
DMX_CTRL.elf:     file format elf32-littlearm

Sections:
Idx Name          Size      VMA       LMA       File off  Algn
  0 .isr_vector   0000010c  08000000  08000000  00010000  2**0
                  CONTENTS, ALLOC, LOAD, READONLY, DATA
  1 .text         00009fb0  08000110  08000110  00010110  2**3
                  CONTENTS, ALLOC, LOAD, READONLY, CODE
  2 .rodata       00001640  0800a0c0  0800a0c0  0001a0c0  2**3
                  CONTENTS, ALLOC, LOAD, READONLY, DATA
  3 .init_array   00000004  0800b700  0800b700  0001b700  2**2
                  CONTENTS, ALLOC, LOAD, DATA
  4 .fini_array   00000004  0800b704  0800b704  0001b704  2**2
                  CONTENTS, ALLOC, LOAD, DATA
  5 .data         00000268  20000000  0800b708  00020000  2**2
                  CONTENTS, ALLOC, LOAD, DATA
  6 .bss          00000ac0  20000268  0800b970  00020268  2**3
                  ALLOC
  7 ._user_heap_stack 00000600  20000d28  0800b970  00020d28  2**0
                  ALLOC
  8 .ARM.attributes 00000029  00000000  00000000  00020268  2**0
                  CONTENTS, READONLY
  9 .debug_info   00034edb  00000000  00000000  00020291  2**0
                  CONTENTS, READONLY, DEBUGGING
 10 .debug_abbrev 00007f53  00000000  00000000  0005516c  2**0
                  CONTENTS, READONLY, DEBUGGING
 11 .debug_loc    0000f631  00000000  00000000  0005d0bf  2**0
                  CONTENTS, READONLY, DEBUGGING
 12 .debug_aranges 00001718  00000000  00000000  0006c6f0  2**3
                  CONTENTS, READONLY, DEBUGGING
 13 .debug_ranges 000020e0  00000000  00000000  0006de08  2**3
                  CONTENTS, READONLY, DEBUGGING
 14 .debug_macro  0001c209  00000000  00000000  0006fee8  2**0
                  CONTENTS, READONLY, DEBUGGING
 15 .debug_line   0001d506  00000000  00000000  0008c0f1  2**0
                  CONTENTS, READONLY, DEBUGGING
 16 .debug_str    00081e64  00000000  00000000  000a95f7  2**0
                  CONTENTS, READONLY, DEBUGGING
 17 .comment      0000007b  00000000  00000000  0012b45b  2**0
                  CONTENTS, READONLY
 18 .debug_frame  00004c4c  00000000  00000000  0012b4d8  2**2
                  CONTENTS, READONLY, DEBUGGING

Disassembly of section .text:

08000110 <__do_global_dtors_aux>:
 8000110:	b510      	push	{r4, lr}
 8000112:	4c05      	ldr	r4, [pc, #20]	; (8000128 <__do_global_dtors_aux+0x18>)
 8000114:	7823      	ldrb	r3, [r4, #0]
 8000116:	b933      	cbnz	r3, 8000126 <__do_global_dtors_aux+0x16>
 8000118:	4b04      	ldr	r3, [pc, #16]	; (800012c <__do_global_dtors_aux+0x1c>)
 800011a:	b113      	cbz	r3, 8000122 <__do_global_dtors_aux+0x12>
 800011c:	4804      	ldr	r0, [pc, #16]	; (8000130 <__do_global_dtors_aux+0x20>)
 800011e:	f3af 8000 	nop.w
 8000122:	2301      	movs	r3, #1
 8000124:	7023      	strb	r3, [r4, #0]
 8000126:	bd10      	pop	{r4, pc}
 8000128:	20000268 	.word	0x20000268
 800012c:	00000000 	.word	0x00000000
 8000130:	0800a0a8 	.word	0x0800a0a8

08000134 <frame_dummy>:
 8000134:	b508      	push	{r3, lr}
 8000136:	4b03      	ldr	r3, [pc, #12]	; (8000144 <frame_dummy+0x10>)
 8000138:	b11b      	cbz	r3, 8000142 <frame_dummy+0xe>
 800013a:	4903      	ldr	r1, [pc, #12]	; (8000148 <frame_dummy+0x14>)
 800013c:	4803      	ldr	r0, [pc, #12]	; (800014c <frame_dummy+0x18>)
 800013e:	f3af 8000 	nop.w
 8000142:	bd08      	pop	{r3, pc}
 8000144:	00000000 	.word	0x00000000
 8000148:	2000026c 	.word	0x2000026c
 800014c:	0800a0a8 	.word	0x0800a0a8

08000150 <strlen>:
 8000150:	4603      	mov	r3, r0
 8000152:	f813 2b01 	ldrb.w	r2, [r3], #1
 8000156:	2a00      	cmp	r2, #0
 8000158:	d1fb      	bne.n	8000152 <strlen+0x2>
 800015a:	1a18      	subs	r0, r3, r0
 800015c:	3801      	subs	r0, #1
 800015e:	4770      	bx	lr

08000160 <__aeabi_drsub>:
 8000160:	f081 4100 	eor.w	r1, r1, #2147483648	; 0x80000000
 8000164:	e002      	b.n	800016c <__adddf3>
 8000166:	bf00      	nop

08000168 <__aeabi_dsub>:
 8000168:	f083 4300 	eor.w	r3, r3, #2147483648	; 0x80000000

0800016c <__adddf3>:
 800016c:	b530      	push	{r4, r5, lr}
 800016e:	ea4f 0441 	mov.w	r4, r1, lsl #1
 8000172:	ea4f 0543 	mov.w	r5, r3, lsl #1
 8000176:	ea94 0f05 	teq	r4, r5
 800017a:	bf08      	it	eq
 800017c:	ea90 0f02 	teqeq	r0, r2
 8000180:	bf1f      	itttt	ne
 8000182:	ea54 0c00 	orrsne.w	ip, r4, r0
 8000186:	ea55 0c02 	orrsne.w	ip, r5, r2
 800018a:	ea7f 5c64 	mvnsne.w	ip, r4, asr #21
 800018e:	ea7f 5c65 	mvnsne.w	ip, r5, asr #21
 8000192:	f000 80e2 	beq.w	800035a <__adddf3+0x1ee>
 8000196:	ea4f 5454 	mov.w	r4, r4, lsr #21
 800019a:	ebd4 5555 	rsbs	r5, r4, r5, lsr #21
 800019e:	bfb8      	it	lt
 80001a0:	426d      	neglt	r5, r5
 80001a2:	dd0c      	ble.n	80001be <__adddf3+0x52>
 80001a4:	442c      	add	r4, r5
 80001a6:	ea80 0202 	eor.w	r2, r0, r2
 80001aa:	ea81 0303 	eor.w	r3, r1, r3
 80001ae:	ea82 0000 	eor.w	r0, r2, r0
 80001b2:	ea83 0101 	eor.w	r1, r3, r1
 80001b6:	ea80 0202 	eor.w	r2, r0, r2
 80001ba:	ea81 0303 	eor.w	r3, r1, r3
 80001be:	2d36      	cmp	r5, #54	; 0x36
 80001c0:	bf88      	it	hi
 80001c2:	bd30      	pophi	{r4, r5, pc}
 80001c4:	f011 4f00 	tst.w	r1, #2147483648	; 0x80000000
 80001c8:	ea4f 3101 	mov.w	r1, r1, lsl #12
 80001cc:	f44f 1c80 	mov.w	ip, #1048576	; 0x100000
 80001d0:	ea4c 3111 	orr.w	r1, ip, r1, lsr #12
 80001d4:	d002      	beq.n	80001dc <__adddf3+0x70>
 80001d6:	4240      	negs	r0, r0
 80001d8:	eb61 0141 	sbc.w	r1, r1, r1, lsl #1
 80001dc:	f013 4f00 	tst.w	r3, #2147483648	; 0x80000000
 80001e0:	ea4f 3303 	mov.w	r3, r3, lsl #12
 80001e4:	ea4c 3313 	orr.w	r3, ip, r3, lsr #12
 80001e8:	d002      	beq.n	80001f0 <__adddf3+0x84>
 80001ea:	4252      	negs	r2, r2
 80001ec:	eb63 0343 	sbc.w	r3, r3, r3, lsl #1
 80001f0:	ea94 0f05 	teq	r4, r5
 80001f4:	f000 80a7 	beq.w	8000346 <__adddf3+0x1da>
 80001f8:	f1a4 0401 	sub.w	r4, r4, #1
 80001fc:	f1d5 0e20 	rsbs	lr, r5, #32
 8000200:	db0d      	blt.n	800021e <__adddf3+0xb2>
 8000202:	fa02 fc0e 	lsl.w	ip, r2, lr
 8000206:	fa22 f205 	lsr.w	r2, r2, r5
 800020a:	1880      	adds	r0, r0, r2
 800020c:	f141 0100 	adc.w	r1, r1, #0
 8000210:	fa03 f20e 	lsl.w	r2, r3, lr
 8000214:	1880      	adds	r0, r0, r2
 8000216:	fa43 f305 	asr.w	r3, r3, r5
 800021a:	4159      	adcs	r1, r3
 800021c:	e00e      	b.n	800023c <__adddf3+0xd0>
 800021e:	f1a5 0520 	sub.w	r5, r5, #32
 8000222:	f10e 0e20 	add.w	lr, lr, #32
 8000226:	2a01      	cmp	r2, #1
 8000228:	fa03 fc0e 	lsl.w	ip, r3, lr
 800022c:	bf28      	it	cs
 800022e:	f04c 0c02 	orrcs.w	ip, ip, #2
 8000232:	fa43 f305 	asr.w	r3, r3, r5
 8000236:	18c0      	adds	r0, r0, r3
 8000238:	eb51 71e3 	adcs.w	r1, r1, r3, asr #31
 800023c:	f001 4500 	and.w	r5, r1, #2147483648	; 0x80000000
 8000240:	d507      	bpl.n	8000252 <__adddf3+0xe6>
 8000242:	f04f 0e00 	mov.w	lr, #0
 8000246:	f1dc 0c00 	rsbs	ip, ip, #0
 800024a:	eb7e 0000 	sbcs.w	r0, lr, r0
 800024e:	eb6e 0101 	sbc.w	r1, lr, r1
 8000252:	f5b1 1f80 	cmp.w	r1, #1048576	; 0x100000
 8000256:	d31b      	bcc.n	8000290 <__adddf3+0x124>
 8000258:	f5b1 1f00 	cmp.w	r1, #2097152	; 0x200000
 800025c:	d30c      	bcc.n	8000278 <__adddf3+0x10c>
 800025e:	0849      	lsrs	r1, r1, #1
 8000260:	ea5f 0030 	movs.w	r0, r0, rrx
 8000264:	ea4f 0c3c 	mov.w	ip, ip, rrx
 8000268:	f104 0401 	add.w	r4, r4, #1
 800026c:	ea4f 5244 	mov.w	r2, r4, lsl #21
 8000270:	f512 0f80 	cmn.w	r2, #4194304	; 0x400000
 8000274:	f080 809a 	bcs.w	80003ac <__adddf3+0x240>
 8000278:	f1bc 4f00 	cmp.w	ip, #2147483648	; 0x80000000
 800027c:	bf08      	it	eq
 800027e:	ea5f 0c50 	movseq.w	ip, r0, lsr #1
 8000282:	f150 0000 	adcs.w	r0, r0, #0
 8000286:	eb41 5104 	adc.w	r1, r1, r4, lsl #20
 800028a:	ea41 0105 	orr.w	r1, r1, r5
 800028e:	bd30      	pop	{r4, r5, pc}
 8000290:	ea5f 0c4c 	movs.w	ip, ip, lsl #1
 8000294:	4140      	adcs	r0, r0
 8000296:	eb41 0101 	adc.w	r1, r1, r1
 800029a:	f411 1f80 	tst.w	r1, #1048576	; 0x100000
 800029e:	f1a4 0401 	sub.w	r4, r4, #1
 80002a2:	d1e9      	bne.n	8000278 <__adddf3+0x10c>
 80002a4:	f091 0f00 	teq	r1, #0
 80002a8:	bf04      	itt	eq
 80002aa:	4601      	moveq	r1, r0
 80002ac:	2000      	moveq	r0, #0
 80002ae:	fab1 f381 	clz	r3, r1
 80002b2:	bf08      	it	eq
 80002b4:	3320      	addeq	r3, #32
 80002b6:	f1a3 030b 	sub.w	r3, r3, #11
 80002ba:	f1b3 0220 	subs.w	r2, r3, #32
 80002be:	da0c      	bge.n	80002da <__adddf3+0x16e>
 80002c0:	320c      	adds	r2, #12
 80002c2:	dd08      	ble.n	80002d6 <__adddf3+0x16a>
 80002c4:	f102 0c14 	add.w	ip, r2, #20
 80002c8:	f1c2 020c 	rsb	r2, r2, #12
 80002cc:	fa01 f00c 	lsl.w	r0, r1, ip
 80002d0:	fa21 f102 	lsr.w	r1, r1, r2
 80002d4:	e00c      	b.n	80002f0 <__adddf3+0x184>
 80002d6:	f102 0214 	add.w	r2, r2, #20
 80002da:	bfd8      	it	le
 80002dc:	f1c2 0c20 	rsble	ip, r2, #32
 80002e0:	fa01 f102 	lsl.w	r1, r1, r2
 80002e4:	fa20 fc0c 	lsr.w	ip, r0, ip
 80002e8:	bfdc      	itt	le
 80002ea:	ea41 010c 	orrle.w	r1, r1, ip
 80002ee:	4090      	lslle	r0, r2
 80002f0:	1ae4      	subs	r4, r4, r3
 80002f2:	bfa2      	ittt	ge
 80002f4:	eb01 5104 	addge.w	r1, r1, r4, lsl #20
 80002f8:	4329      	orrge	r1, r5
 80002fa:	bd30      	popge	{r4, r5, pc}
 80002fc:	ea6f 0404 	mvn.w	r4, r4
 8000300:	3c1f      	subs	r4, #31
 8000302:	da1c      	bge.n	800033e <__adddf3+0x1d2>
 8000304:	340c      	adds	r4, #12
 8000306:	dc0e      	bgt.n	8000326 <__adddf3+0x1ba>
 8000308:	f104 0414 	add.w	r4, r4, #20
 800030c:	f1c4 0220 	rsb	r2, r4, #32
 8000310:	fa20 f004 	lsr.w	r0, r0, r4
 8000314:	fa01 f302 	lsl.w	r3, r1, r2
 8000318:	ea40 0003 	orr.w	r0, r0, r3
 800031c:	fa21 f304 	lsr.w	r3, r1, r4
 8000320:	ea45 0103 	orr.w	r1, r5, r3
 8000324:	bd30      	pop	{r4, r5, pc}
 8000326:	f1c4 040c 	rsb	r4, r4, #12
 800032a:	f1c4 0220 	rsb	r2, r4, #32
 800032e:	fa20 f002 	lsr.w	r0, r0, r2
 8000332:	fa01 f304 	lsl.w	r3, r1, r4
 8000336:	ea40 0003 	orr.w	r0, r0, r3
 800033a:	4629      	mov	r1, r5
 800033c:	bd30      	pop	{r4, r5, pc}
 800033e:	fa21 f004 	lsr.w	r0, r1, r4
 8000342:	4629      	mov	r1, r5
 8000344:	bd30      	pop	{r4, r5, pc}
 8000346:	f094 0f00 	teq	r4, #0
 800034a:	f483 1380 	eor.w	r3, r3, #1048576	; 0x100000
 800034e:	bf06      	itte	eq
 8000350:	f481 1180 	eoreq.w	r1, r1, #1048576	; 0x100000
 8000354:	3401      	addeq	r4, #1
 8000356:	3d01      	subne	r5, #1
 8000358:	e74e      	b.n	80001f8 <__adddf3+0x8c>
 800035a:	ea7f 5c64 	mvns.w	ip, r4, asr #21
 800035e:	bf18      	it	ne
 8000360:	ea7f 5c65 	mvnsne.w	ip, r5, asr #21
 8000364:	d029      	beq.n	80003ba <__adddf3+0x24e>
 8000366:	ea94 0f05 	teq	r4, r5
 800036a:	bf08      	it	eq
 800036c:	ea90 0f02 	teqeq	r0, r2
 8000370:	d005      	beq.n	800037e <__adddf3+0x212>
 8000372:	ea54 0c00 	orrs.w	ip, r4, r0
 8000376:	bf04      	itt	eq
 8000378:	4619      	moveq	r1, r3
 800037a:	4610      	moveq	r0, r2
 800037c:	bd30      	pop	{r4, r5, pc}
 800037e:	ea91 0f03 	teq	r1, r3
 8000382:	bf1e      	ittt	ne
 8000384:	2100      	movne	r1, #0
 8000386:	2000      	movne	r0, #0
 8000388:	bd30      	popne	{r4, r5, pc}
 800038a:	ea5f 5c54 	movs.w	ip, r4, lsr #21
 800038e:	d105      	bne.n	800039c <__adddf3+0x230>
 8000390:	0040      	lsls	r0, r0, #1
 8000392:	4149      	adcs	r1, r1
 8000394:	bf28      	it	cs
 8000396:	f041 4100 	orrcs.w	r1, r1, #2147483648	; 0x80000000
 800039a:	bd30      	pop	{r4, r5, pc}
 800039c:	f514 0480 	adds.w	r4, r4, #4194304	; 0x400000
 80003a0:	bf3c      	itt	cc
 80003a2:	f501 1180 	addcc.w	r1, r1, #1048576	; 0x100000
 80003a6:	bd30      	popcc	{r4, r5, pc}
 80003a8:	f001 4500 	and.w	r5, r1, #2147483648	; 0x80000000
 80003ac:	f045 41fe 	orr.w	r1, r5, #2130706432	; 0x7f000000
 80003b0:	f441 0170 	orr.w	r1, r1, #15728640	; 0xf00000
 80003b4:	f04f 0000 	mov.w	r0, #0
 80003b8:	bd30      	pop	{r4, r5, pc}
 80003ba:	ea7f 5c64 	mvns.w	ip, r4, asr #21
 80003be:	bf1a      	itte	ne
 80003c0:	4619      	movne	r1, r3
 80003c2:	4610      	movne	r0, r2
 80003c4:	ea7f 5c65 	mvnseq.w	ip, r5, asr #21
 80003c8:	bf1c      	itt	ne
 80003ca:	460b      	movne	r3, r1
 80003cc:	4602      	movne	r2, r0
 80003ce:	ea50 3401 	orrs.w	r4, r0, r1, lsl #12
 80003d2:	bf06      	itte	eq
 80003d4:	ea52 3503 	orrseq.w	r5, r2, r3, lsl #12
 80003d8:	ea91 0f03 	teqeq	r1, r3
 80003dc:	f441 2100 	orrne.w	r1, r1, #524288	; 0x80000
 80003e0:	bd30      	pop	{r4, r5, pc}
 80003e2:	bf00      	nop

080003e4 <__aeabi_ui2d>:
 80003e4:	f090 0f00 	teq	r0, #0
 80003e8:	bf04      	itt	eq
 80003ea:	2100      	moveq	r1, #0
 80003ec:	4770      	bxeq	lr
 80003ee:	b530      	push	{r4, r5, lr}
 80003f0:	f44f 6480 	mov.w	r4, #1024	; 0x400
 80003f4:	f104 0432 	add.w	r4, r4, #50	; 0x32
 80003f8:	f04f 0500 	mov.w	r5, #0
 80003fc:	f04f 0100 	mov.w	r1, #0
 8000400:	e750      	b.n	80002a4 <__adddf3+0x138>
 8000402:	bf00      	nop

08000404 <__aeabi_i2d>:
 8000404:	f090 0f00 	teq	r0, #0
 8000408:	bf04      	itt	eq
 800040a:	2100      	moveq	r1, #0
 800040c:	4770      	bxeq	lr
 800040e:	b530      	push	{r4, r5, lr}
 8000410:	f44f 6480 	mov.w	r4, #1024	; 0x400
 8000414:	f104 0432 	add.w	r4, r4, #50	; 0x32
 8000418:	f010 4500 	ands.w	r5, r0, #2147483648	; 0x80000000
 800041c:	bf48      	it	mi
 800041e:	4240      	negmi	r0, r0
 8000420:	f04f 0100 	mov.w	r1, #0
 8000424:	e73e      	b.n	80002a4 <__adddf3+0x138>
 8000426:	bf00      	nop

08000428 <__aeabi_f2d>:
 8000428:	0042      	lsls	r2, r0, #1
 800042a:	ea4f 01e2 	mov.w	r1, r2, asr #3
 800042e:	ea4f 0131 	mov.w	r1, r1, rrx
 8000432:	ea4f 7002 	mov.w	r0, r2, lsl #28
 8000436:	bf1f      	itttt	ne
 8000438:	f012 437f 	andsne.w	r3, r2, #4278190080	; 0xff000000
 800043c:	f093 4f7f 	teqne	r3, #4278190080	; 0xff000000
 8000440:	f081 5160 	eorne.w	r1, r1, #939524096	; 0x38000000
 8000444:	4770      	bxne	lr
 8000446:	f032 427f 	bics.w	r2, r2, #4278190080	; 0xff000000
 800044a:	bf08      	it	eq
 800044c:	4770      	bxeq	lr
 800044e:	f093 4f7f 	teq	r3, #4278190080	; 0xff000000
 8000452:	bf04      	itt	eq
 8000454:	f441 2100 	orreq.w	r1, r1, #524288	; 0x80000
 8000458:	4770      	bxeq	lr
 800045a:	b530      	push	{r4, r5, lr}
 800045c:	f44f 7460 	mov.w	r4, #896	; 0x380
 8000460:	f001 4500 	and.w	r5, r1, #2147483648	; 0x80000000
 8000464:	f021 4100 	bic.w	r1, r1, #2147483648	; 0x80000000
 8000468:	e71c      	b.n	80002a4 <__adddf3+0x138>
 800046a:	bf00      	nop

0800046c <__aeabi_ul2d>:
 800046c:	ea50 0201 	orrs.w	r2, r0, r1
 8000470:	bf08      	it	eq
 8000472:	4770      	bxeq	lr
 8000474:	b530      	push	{r4, r5, lr}
 8000476:	f04f 0500 	mov.w	r5, #0
 800047a:	e00a      	b.n	8000492 <__aeabi_l2d+0x16>

0800047c <__aeabi_l2d>:
 800047c:	ea50 0201 	orrs.w	r2, r0, r1
 8000480:	bf08      	it	eq
 8000482:	4770      	bxeq	lr
 8000484:	b530      	push	{r4, r5, lr}
 8000486:	f011 4500 	ands.w	r5, r1, #2147483648	; 0x80000000
 800048a:	d502      	bpl.n	8000492 <__aeabi_l2d+0x16>
 800048c:	4240      	negs	r0, r0
 800048e:	eb61 0141 	sbc.w	r1, r1, r1, lsl #1
 8000492:	f44f 6480 	mov.w	r4, #1024	; 0x400
 8000496:	f104 0432 	add.w	r4, r4, #50	; 0x32
 800049a:	ea5f 5c91 	movs.w	ip, r1, lsr #22
 800049e:	f43f aed8 	beq.w	8000252 <__adddf3+0xe6>
 80004a2:	f04f 0203 	mov.w	r2, #3
 80004a6:	ea5f 0cdc 	movs.w	ip, ip, lsr #3
 80004aa:	bf18      	it	ne
 80004ac:	3203      	addne	r2, #3
 80004ae:	ea5f 0cdc 	movs.w	ip, ip, lsr #3
 80004b2:	bf18      	it	ne
 80004b4:	3203      	addne	r2, #3
 80004b6:	eb02 02dc 	add.w	r2, r2, ip, lsr #3
 80004ba:	f1c2 0320 	rsb	r3, r2, #32
 80004be:	fa00 fc03 	lsl.w	ip, r0, r3
 80004c2:	fa20 f002 	lsr.w	r0, r0, r2
 80004c6:	fa01 fe03 	lsl.w	lr, r1, r3
 80004ca:	ea40 000e 	orr.w	r0, r0, lr
 80004ce:	fa21 f102 	lsr.w	r1, r1, r2
 80004d2:	4414      	add	r4, r2
 80004d4:	e6bd      	b.n	8000252 <__adddf3+0xe6>
 80004d6:	bf00      	nop

080004d8 <__aeabi_dmul>:
 80004d8:	b570      	push	{r4, r5, r6, lr}
 80004da:	f04f 0cff 	mov.w	ip, #255	; 0xff
 80004de:	f44c 6ce0 	orr.w	ip, ip, #1792	; 0x700
 80004e2:	ea1c 5411 	ands.w	r4, ip, r1, lsr #20
 80004e6:	bf1d      	ittte	ne
 80004e8:	ea1c 5513 	andsne.w	r5, ip, r3, lsr #20
 80004ec:	ea94 0f0c 	teqne	r4, ip
 80004f0:	ea95 0f0c 	teqne	r5, ip
 80004f4:	f000 f8de 	bleq	80006b4 <__aeabi_dmul+0x1dc>
 80004f8:	442c      	add	r4, r5
 80004fa:	ea81 0603 	eor.w	r6, r1, r3
 80004fe:	ea21 514c 	bic.w	r1, r1, ip, lsl #21
 8000502:	ea23 534c 	bic.w	r3, r3, ip, lsl #21
 8000506:	ea50 3501 	orrs.w	r5, r0, r1, lsl #12
 800050a:	bf18      	it	ne
 800050c:	ea52 3503 	orrsne.w	r5, r2, r3, lsl #12
 8000510:	f441 1180 	orr.w	r1, r1, #1048576	; 0x100000
 8000514:	f443 1380 	orr.w	r3, r3, #1048576	; 0x100000
 8000518:	d038      	beq.n	800058c <__aeabi_dmul+0xb4>
 800051a:	fba0 ce02 	umull	ip, lr, r0, r2
 800051e:	f04f 0500 	mov.w	r5, #0
 8000522:	fbe1 e502 	umlal	lr, r5, r1, r2
 8000526:	f006 4200 	and.w	r2, r6, #2147483648	; 0x80000000
 800052a:	fbe0 e503 	umlal	lr, r5, r0, r3
 800052e:	f04f 0600 	mov.w	r6, #0
 8000532:	fbe1 5603 	umlal	r5, r6, r1, r3
 8000536:	f09c 0f00 	teq	ip, #0
 800053a:	bf18      	it	ne
 800053c:	f04e 0e01 	orrne.w	lr, lr, #1
 8000540:	f1a4 04ff 	sub.w	r4, r4, #255	; 0xff
 8000544:	f5b6 7f00 	cmp.w	r6, #512	; 0x200
 8000548:	f564 7440 	sbc.w	r4, r4, #768	; 0x300
 800054c:	d204      	bcs.n	8000558 <__aeabi_dmul+0x80>
 800054e:	ea5f 0e4e 	movs.w	lr, lr, lsl #1
 8000552:	416d      	adcs	r5, r5
 8000554:	eb46 0606 	adc.w	r6, r6, r6
 8000558:	ea42 21c6 	orr.w	r1, r2, r6, lsl #11
 800055c:	ea41 5155 	orr.w	r1, r1, r5, lsr #21
 8000560:	ea4f 20c5 	mov.w	r0, r5, lsl #11
 8000564:	ea40 505e 	orr.w	r0, r0, lr, lsr #21
 8000568:	ea4f 2ece 	mov.w	lr, lr, lsl #11
 800056c:	f1b4 0cfd 	subs.w	ip, r4, #253	; 0xfd
 8000570:	bf88      	it	hi
 8000572:	f5bc 6fe0 	cmphi.w	ip, #1792	; 0x700
 8000576:	d81e      	bhi.n	80005b6 <__aeabi_dmul+0xde>
 8000578:	f1be 4f00 	cmp.w	lr, #2147483648	; 0x80000000
 800057c:	bf08      	it	eq
 800057e:	ea5f 0e50 	movseq.w	lr, r0, lsr #1
 8000582:	f150 0000 	adcs.w	r0, r0, #0
 8000586:	eb41 5104 	adc.w	r1, r1, r4, lsl #20
 800058a:	bd70      	pop	{r4, r5, r6, pc}
 800058c:	f006 4600 	and.w	r6, r6, #2147483648	; 0x80000000
 8000590:	ea46 0101 	orr.w	r1, r6, r1
 8000594:	ea40 0002 	orr.w	r0, r0, r2
 8000598:	ea81 0103 	eor.w	r1, r1, r3
 800059c:	ebb4 045c 	subs.w	r4, r4, ip, lsr #1
 80005a0:	bfc2      	ittt	gt
 80005a2:	ebd4 050c 	rsbsgt	r5, r4, ip
 80005a6:	ea41 5104 	orrgt.w	r1, r1, r4, lsl #20
 80005aa:	bd70      	popgt	{r4, r5, r6, pc}
 80005ac:	f441 1180 	orr.w	r1, r1, #1048576	; 0x100000
 80005b0:	f04f 0e00 	mov.w	lr, #0
 80005b4:	3c01      	subs	r4, #1
 80005b6:	f300 80ab 	bgt.w	8000710 <__aeabi_dmul+0x238>
 80005ba:	f114 0f36 	cmn.w	r4, #54	; 0x36
 80005be:	bfde      	ittt	le
 80005c0:	2000      	movle	r0, #0
 80005c2:	f001 4100 	andle.w	r1, r1, #2147483648	; 0x80000000
 80005c6:	bd70      	pople	{r4, r5, r6, pc}
 80005c8:	f1c4 0400 	rsb	r4, r4, #0
 80005cc:	3c20      	subs	r4, #32
 80005ce:	da35      	bge.n	800063c <__aeabi_dmul+0x164>
 80005d0:	340c      	adds	r4, #12
 80005d2:	dc1b      	bgt.n	800060c <__aeabi_dmul+0x134>
 80005d4:	f104 0414 	add.w	r4, r4, #20
 80005d8:	f1c4 0520 	rsb	r5, r4, #32
 80005dc:	fa00 f305 	lsl.w	r3, r0, r5
 80005e0:	fa20 f004 	lsr.w	r0, r0, r4
 80005e4:	fa01 f205 	lsl.w	r2, r1, r5
 80005e8:	ea40 0002 	orr.w	r0, r0, r2
 80005ec:	f001 4200 	and.w	r2, r1, #2147483648	; 0x80000000
 80005f0:	f021 4100 	bic.w	r1, r1, #2147483648	; 0x80000000
 80005f4:	eb10 70d3 	adds.w	r0, r0, r3, lsr #31
 80005f8:	fa21 f604 	lsr.w	r6, r1, r4
 80005fc:	eb42 0106 	adc.w	r1, r2, r6
 8000600:	ea5e 0e43 	orrs.w	lr, lr, r3, lsl #1
 8000604:	bf08      	it	eq
 8000606:	ea20 70d3 	biceq.w	r0, r0, r3, lsr #31
 800060a:	bd70      	pop	{r4, r5, r6, pc}
 800060c:	f1c4 040c 	rsb	r4, r4, #12
 8000610:	f1c4 0520 	rsb	r5, r4, #32
 8000614:	fa00 f304 	lsl.w	r3, r0, r4
 8000618:	fa20 f005 	lsr.w	r0, r0, r5
 800061c:	fa01 f204 	lsl.w	r2, r1, r4
 8000620:	ea40 0002 	orr.w	r0, r0, r2
 8000624:	f001 4100 	and.w	r1, r1, #2147483648	; 0x80000000
 8000628:	eb10 70d3 	adds.w	r0, r0, r3, lsr #31
 800062c:	f141 0100 	adc.w	r1, r1, #0
 8000630:	ea5e 0e43 	orrs.w	lr, lr, r3, lsl #1
 8000634:	bf08      	it	eq
 8000636:	ea20 70d3 	biceq.w	r0, r0, r3, lsr #31
 800063a:	bd70      	pop	{r4, r5, r6, pc}
 800063c:	f1c4 0520 	rsb	r5, r4, #32
 8000640:	fa00 f205 	lsl.w	r2, r0, r5
 8000644:	ea4e 0e02 	orr.w	lr, lr, r2
 8000648:	fa20 f304 	lsr.w	r3, r0, r4
 800064c:	fa01 f205 	lsl.w	r2, r1, r5
 8000650:	ea43 0302 	orr.w	r3, r3, r2
 8000654:	fa21 f004 	lsr.w	r0, r1, r4
 8000658:	f001 4100 	and.w	r1, r1, #2147483648	; 0x80000000
 800065c:	fa21 f204 	lsr.w	r2, r1, r4
 8000660:	ea20 0002 	bic.w	r0, r0, r2
 8000664:	eb00 70d3 	add.w	r0, r0, r3, lsr #31
 8000668:	ea5e 0e43 	orrs.w	lr, lr, r3, lsl #1
 800066c:	bf08      	it	eq
 800066e:	ea20 70d3 	biceq.w	r0, r0, r3, lsr #31
 8000672:	bd70      	pop	{r4, r5, r6, pc}
 8000674:	f094 0f00 	teq	r4, #0
 8000678:	d10f      	bne.n	800069a <__aeabi_dmul+0x1c2>
 800067a:	f001 4600 	and.w	r6, r1, #2147483648	; 0x80000000
 800067e:	0040      	lsls	r0, r0, #1
 8000680:	eb41 0101 	adc.w	r1, r1, r1
 8000684:	f411 1f80 	tst.w	r1, #1048576	; 0x100000
 8000688:	bf08      	it	eq
 800068a:	3c01      	subeq	r4, #1
 800068c:	d0f7      	beq.n	800067e <__aeabi_dmul+0x1a6>
 800068e:	ea41 0106 	orr.w	r1, r1, r6
 8000692:	f095 0f00 	teq	r5, #0
 8000696:	bf18      	it	ne
 8000698:	4770      	bxne	lr
 800069a:	f003 4600 	and.w	r6, r3, #2147483648	; 0x80000000
 800069e:	0052      	lsls	r2, r2, #1
 80006a0:	eb43 0303 	adc.w	r3, r3, r3
 80006a4:	f413 1f80 	tst.w	r3, #1048576	; 0x100000
 80006a8:	bf08      	it	eq
 80006aa:	3d01      	subeq	r5, #1
 80006ac:	d0f7      	beq.n	800069e <__aeabi_dmul+0x1c6>
 80006ae:	ea43 0306 	orr.w	r3, r3, r6
 80006b2:	4770      	bx	lr
 80006b4:	ea94 0f0c 	teq	r4, ip
 80006b8:	ea0c 5513 	and.w	r5, ip, r3, lsr #20
 80006bc:	bf18      	it	ne
 80006be:	ea95 0f0c 	teqne	r5, ip
 80006c2:	d00c      	beq.n	80006de <__aeabi_dmul+0x206>
 80006c4:	ea50 0641 	orrs.w	r6, r0, r1, lsl #1
 80006c8:	bf18      	it	ne
 80006ca:	ea52 0643 	orrsne.w	r6, r2, r3, lsl #1
 80006ce:	d1d1      	bne.n	8000674 <__aeabi_dmul+0x19c>
 80006d0:	ea81 0103 	eor.w	r1, r1, r3
 80006d4:	f001 4100 	and.w	r1, r1, #2147483648	; 0x80000000
 80006d8:	f04f 0000 	mov.w	r0, #0
 80006dc:	bd70      	pop	{r4, r5, r6, pc}
 80006de:	ea50 0641 	orrs.w	r6, r0, r1, lsl #1
 80006e2:	bf06      	itte	eq
 80006e4:	4610      	moveq	r0, r2
 80006e6:	4619      	moveq	r1, r3
 80006e8:	ea52 0643 	orrsne.w	r6, r2, r3, lsl #1
 80006ec:	d019      	beq.n	8000722 <__aeabi_dmul+0x24a>
 80006ee:	ea94 0f0c 	teq	r4, ip
 80006f2:	d102      	bne.n	80006fa <__aeabi_dmul+0x222>
 80006f4:	ea50 3601 	orrs.w	r6, r0, r1, lsl #12
 80006f8:	d113      	bne.n	8000722 <__aeabi_dmul+0x24a>
 80006fa:	ea95 0f0c 	teq	r5, ip
 80006fe:	d105      	bne.n	800070c <__aeabi_dmul+0x234>
 8000700:	ea52 3603 	orrs.w	r6, r2, r3, lsl #12
 8000704:	bf1c      	itt	ne
 8000706:	4610      	movne	r0, r2
 8000708:	4619      	movne	r1, r3
 800070a:	d10a      	bne.n	8000722 <__aeabi_dmul+0x24a>
 800070c:	ea81 0103 	eor.w	r1, r1, r3
 8000710:	f001 4100 	and.w	r1, r1, #2147483648	; 0x80000000
 8000714:	f041 41fe 	orr.w	r1, r1, #2130706432	; 0x7f000000
 8000718:	f441 0170 	orr.w	r1, r1, #15728640	; 0xf00000
 800071c:	f04f 0000 	mov.w	r0, #0
 8000720:	bd70      	pop	{r4, r5, r6, pc}
 8000722:	f041 41fe 	orr.w	r1, r1, #2130706432	; 0x7f000000
 8000726:	f441 0178 	orr.w	r1, r1, #16252928	; 0xf80000
 800072a:	bd70      	pop	{r4, r5, r6, pc}

0800072c <__aeabi_ddiv>:
 800072c:	b570      	push	{r4, r5, r6, lr}
 800072e:	f04f 0cff 	mov.w	ip, #255	; 0xff
 8000732:	f44c 6ce0 	orr.w	ip, ip, #1792	; 0x700
 8000736:	ea1c 5411 	ands.w	r4, ip, r1, lsr #20
 800073a:	bf1d      	ittte	ne
 800073c:	ea1c 5513 	andsne.w	r5, ip, r3, lsr #20
 8000740:	ea94 0f0c 	teqne	r4, ip
 8000744:	ea95 0f0c 	teqne	r5, ip
 8000748:	f000 f8a7 	bleq	800089a <__aeabi_ddiv+0x16e>
 800074c:	eba4 0405 	sub.w	r4, r4, r5
 8000750:	ea81 0e03 	eor.w	lr, r1, r3
 8000754:	ea52 3503 	orrs.w	r5, r2, r3, lsl #12
 8000758:	ea4f 3101 	mov.w	r1, r1, lsl #12
 800075c:	f000 8088 	beq.w	8000870 <__aeabi_ddiv+0x144>
 8000760:	ea4f 3303 	mov.w	r3, r3, lsl #12
 8000764:	f04f 5580 	mov.w	r5, #268435456	; 0x10000000
 8000768:	ea45 1313 	orr.w	r3, r5, r3, lsr #4
 800076c:	ea43 6312 	orr.w	r3, r3, r2, lsr #24
 8000770:	ea4f 2202 	mov.w	r2, r2, lsl #8
 8000774:	ea45 1511 	orr.w	r5, r5, r1, lsr #4
 8000778:	ea45 6510 	orr.w	r5, r5, r0, lsr #24
 800077c:	ea4f 2600 	mov.w	r6, r0, lsl #8
 8000780:	f00e 4100 	and.w	r1, lr, #2147483648	; 0x80000000
 8000784:	429d      	cmp	r5, r3
 8000786:	bf08      	it	eq
 8000788:	4296      	cmpeq	r6, r2
 800078a:	f144 04fd 	adc.w	r4, r4, #253	; 0xfd
 800078e:	f504 7440 	add.w	r4, r4, #768	; 0x300
 8000792:	d202      	bcs.n	800079a <__aeabi_ddiv+0x6e>
 8000794:	085b      	lsrs	r3, r3, #1
 8000796:	ea4f 0232 	mov.w	r2, r2, rrx
 800079a:	1ab6      	subs	r6, r6, r2
 800079c:	eb65 0503 	sbc.w	r5, r5, r3
 80007a0:	085b      	lsrs	r3, r3, #1
 80007a2:	ea4f 0232 	mov.w	r2, r2, rrx
 80007a6:	f44f 1080 	mov.w	r0, #1048576	; 0x100000
 80007aa:	f44f 2c00 	mov.w	ip, #524288	; 0x80000
 80007ae:	ebb6 0e02 	subs.w	lr, r6, r2
 80007b2:	eb75 0e03 	sbcs.w	lr, r5, r3
 80007b6:	bf22      	ittt	cs
 80007b8:	1ab6      	subcs	r6, r6, r2
 80007ba:	4675      	movcs	r5, lr
 80007bc:	ea40 000c 	orrcs.w	r0, r0, ip
 80007c0:	085b      	lsrs	r3, r3, #1
 80007c2:	ea4f 0232 	mov.w	r2, r2, rrx
 80007c6:	ebb6 0e02 	subs.w	lr, r6, r2
 80007ca:	eb75 0e03 	sbcs.w	lr, r5, r3
 80007ce:	bf22      	ittt	cs
 80007d0:	1ab6      	subcs	r6, r6, r2
 80007d2:	4675      	movcs	r5, lr
 80007d4:	ea40 005c 	orrcs.w	r0, r0, ip, lsr #1
 80007d8:	085b      	lsrs	r3, r3, #1
 80007da:	ea4f 0232 	mov.w	r2, r2, rrx
 80007de:	ebb6 0e02 	subs.w	lr, r6, r2
 80007e2:	eb75 0e03 	sbcs.w	lr, r5, r3
 80007e6:	bf22      	ittt	cs
 80007e8:	1ab6      	subcs	r6, r6, r2
 80007ea:	4675      	movcs	r5, lr
 80007ec:	ea40 009c 	orrcs.w	r0, r0, ip, lsr #2
 80007f0:	085b      	lsrs	r3, r3, #1
 80007f2:	ea4f 0232 	mov.w	r2, r2, rrx
 80007f6:	ebb6 0e02 	subs.w	lr, r6, r2
 80007fa:	eb75 0e03 	sbcs.w	lr, r5, r3
 80007fe:	bf22      	ittt	cs
 8000800:	1ab6      	subcs	r6, r6, r2
 8000802:	4675      	movcs	r5, lr
 8000804:	ea40 00dc 	orrcs.w	r0, r0, ip, lsr #3
 8000808:	ea55 0e06 	orrs.w	lr, r5, r6
 800080c:	d018      	beq.n	8000840 <__aeabi_ddiv+0x114>
 800080e:	ea4f 1505 	mov.w	r5, r5, lsl #4
 8000812:	ea45 7516 	orr.w	r5, r5, r6, lsr #28
 8000816:	ea4f 1606 	mov.w	r6, r6, lsl #4
 800081a:	ea4f 03c3 	mov.w	r3, r3, lsl #3
 800081e:	ea43 7352 	orr.w	r3, r3, r2, lsr #29
 8000822:	ea4f 02c2 	mov.w	r2, r2, lsl #3
 8000826:	ea5f 1c1c 	movs.w	ip, ip, lsr #4
 800082a:	d1c0      	bne.n	80007ae <__aeabi_ddiv+0x82>
 800082c:	f411 1f80 	tst.w	r1, #1048576	; 0x100000
 8000830:	d10b      	bne.n	800084a <__aeabi_ddiv+0x11e>
 8000832:	ea41 0100 	orr.w	r1, r1, r0
 8000836:	f04f 0000 	mov.w	r0, #0
 800083a:	f04f 4c00 	mov.w	ip, #2147483648	; 0x80000000
 800083e:	e7b6      	b.n	80007ae <__aeabi_ddiv+0x82>
 8000840:	f411 1f80 	tst.w	r1, #1048576	; 0x100000
 8000844:	bf04      	itt	eq
 8000846:	4301      	orreq	r1, r0
 8000848:	2000      	moveq	r0, #0
 800084a:	f1b4 0cfd 	subs.w	ip, r4, #253	; 0xfd
 800084e:	bf88      	it	hi
 8000850:	f5bc 6fe0 	cmphi.w	ip, #1792	; 0x700
 8000854:	f63f aeaf 	bhi.w	80005b6 <__aeabi_dmul+0xde>
 8000858:	ebb5 0c03 	subs.w	ip, r5, r3
 800085c:	bf04      	itt	eq
 800085e:	ebb6 0c02 	subseq.w	ip, r6, r2
 8000862:	ea5f 0c50 	movseq.w	ip, r0, lsr #1
 8000866:	f150 0000 	adcs.w	r0, r0, #0
 800086a:	eb41 5104 	adc.w	r1, r1, r4, lsl #20
 800086e:	bd70      	pop	{r4, r5, r6, pc}
 8000870:	f00e 4e00 	and.w	lr, lr, #2147483648	; 0x80000000
 8000874:	ea4e 3111 	orr.w	r1, lr, r1, lsr #12
 8000878:	eb14 045c 	adds.w	r4, r4, ip, lsr #1
 800087c:	bfc2      	ittt	gt
 800087e:	ebd4 050c 	rsbsgt	r5, r4, ip
 8000882:	ea41 5104 	orrgt.w	r1, r1, r4, lsl #20
 8000886:	bd70      	popgt	{r4, r5, r6, pc}
 8000888:	f441 1180 	orr.w	r1, r1, #1048576	; 0x100000
 800088c:	f04f 0e00 	mov.w	lr, #0
 8000890:	3c01      	subs	r4, #1
 8000892:	e690      	b.n	80005b6 <__aeabi_dmul+0xde>
 8000894:	ea45 0e06 	orr.w	lr, r5, r6
 8000898:	e68d      	b.n	80005b6 <__aeabi_dmul+0xde>
 800089a:	ea0c 5513 	and.w	r5, ip, r3, lsr #20
 800089e:	ea94 0f0c 	teq	r4, ip
 80008a2:	bf08      	it	eq
 80008a4:	ea95 0f0c 	teqeq	r5, ip
 80008a8:	f43f af3b 	beq.w	8000722 <__aeabi_dmul+0x24a>
 80008ac:	ea94 0f0c 	teq	r4, ip
 80008b0:	d10a      	bne.n	80008c8 <__aeabi_ddiv+0x19c>
 80008b2:	ea50 3401 	orrs.w	r4, r0, r1, lsl #12
 80008b6:	f47f af34 	bne.w	8000722 <__aeabi_dmul+0x24a>
 80008ba:	ea95 0f0c 	teq	r5, ip
 80008be:	f47f af25 	bne.w	800070c <__aeabi_dmul+0x234>
 80008c2:	4610      	mov	r0, r2
 80008c4:	4619      	mov	r1, r3
 80008c6:	e72c      	b.n	8000722 <__aeabi_dmul+0x24a>
 80008c8:	ea95 0f0c 	teq	r5, ip
 80008cc:	d106      	bne.n	80008dc <__aeabi_ddiv+0x1b0>
 80008ce:	ea52 3503 	orrs.w	r5, r2, r3, lsl #12
 80008d2:	f43f aefd 	beq.w	80006d0 <__aeabi_dmul+0x1f8>
 80008d6:	4610      	mov	r0, r2
 80008d8:	4619      	mov	r1, r3
 80008da:	e722      	b.n	8000722 <__aeabi_dmul+0x24a>
 80008dc:	ea50 0641 	orrs.w	r6, r0, r1, lsl #1
 80008e0:	bf18      	it	ne
 80008e2:	ea52 0643 	orrsne.w	r6, r2, r3, lsl #1
 80008e6:	f47f aec5 	bne.w	8000674 <__aeabi_dmul+0x19c>
 80008ea:	ea50 0441 	orrs.w	r4, r0, r1, lsl #1
 80008ee:	f47f af0d 	bne.w	800070c <__aeabi_dmul+0x234>
 80008f2:	ea52 0543 	orrs.w	r5, r2, r3, lsl #1
 80008f6:	f47f aeeb 	bne.w	80006d0 <__aeabi_dmul+0x1f8>
 80008fa:	e712      	b.n	8000722 <__aeabi_dmul+0x24a>

080008fc <__gedf2>:
 80008fc:	f04f 3cff 	mov.w	ip, #4294967295
 8000900:	e006      	b.n	8000910 <__cmpdf2+0x4>
 8000902:	bf00      	nop

08000904 <__ledf2>:
 8000904:	f04f 0c01 	mov.w	ip, #1
 8000908:	e002      	b.n	8000910 <__cmpdf2+0x4>
 800090a:	bf00      	nop

0800090c <__cmpdf2>:
 800090c:	f04f 0c01 	mov.w	ip, #1
 8000910:	f84d cd04 	str.w	ip, [sp, #-4]!
 8000914:	ea4f 0c41 	mov.w	ip, r1, lsl #1
 8000918:	ea7f 5c6c 	mvns.w	ip, ip, asr #21
 800091c:	ea4f 0c43 	mov.w	ip, r3, lsl #1
 8000920:	bf18      	it	ne
 8000922:	ea7f 5c6c 	mvnsne.w	ip, ip, asr #21
 8000926:	d01b      	beq.n	8000960 <__cmpdf2+0x54>
 8000928:	b001      	add	sp, #4
 800092a:	ea50 0c41 	orrs.w	ip, r0, r1, lsl #1
 800092e:	bf0c      	ite	eq
 8000930:	ea52 0c43 	orrseq.w	ip, r2, r3, lsl #1
 8000934:	ea91 0f03 	teqne	r1, r3
 8000938:	bf02      	ittt	eq
 800093a:	ea90 0f02 	teqeq	r0, r2
 800093e:	2000      	moveq	r0, #0
 8000940:	4770      	bxeq	lr
 8000942:	f110 0f00 	cmn.w	r0, #0
 8000946:	ea91 0f03 	teq	r1, r3
 800094a:	bf58      	it	pl
 800094c:	4299      	cmppl	r1, r3
 800094e:	bf08      	it	eq
 8000950:	4290      	cmpeq	r0, r2
 8000952:	bf2c      	ite	cs
 8000954:	17d8      	asrcs	r0, r3, #31
 8000956:	ea6f 70e3 	mvncc.w	r0, r3, asr #31
 800095a:	f040 0001 	orr.w	r0, r0, #1
 800095e:	4770      	bx	lr
 8000960:	ea4f 0c41 	mov.w	ip, r1, lsl #1
 8000964:	ea7f 5c6c 	mvns.w	ip, ip, asr #21
 8000968:	d102      	bne.n	8000970 <__cmpdf2+0x64>
 800096a:	ea50 3c01 	orrs.w	ip, r0, r1, lsl #12
 800096e:	d107      	bne.n	8000980 <__cmpdf2+0x74>
 8000970:	ea4f 0c43 	mov.w	ip, r3, lsl #1
 8000974:	ea7f 5c6c 	mvns.w	ip, ip, asr #21
 8000978:	d1d6      	bne.n	8000928 <__cmpdf2+0x1c>
 800097a:	ea52 3c03 	orrs.w	ip, r2, r3, lsl #12
 800097e:	d0d3      	beq.n	8000928 <__cmpdf2+0x1c>
 8000980:	f85d 0b04 	ldr.w	r0, [sp], #4
 8000984:	4770      	bx	lr
 8000986:	bf00      	nop

08000988 <__aeabi_cdrcmple>:
 8000988:	4684      	mov	ip, r0
 800098a:	4610      	mov	r0, r2
 800098c:	4662      	mov	r2, ip
 800098e:	468c      	mov	ip, r1
 8000990:	4619      	mov	r1, r3
 8000992:	4663      	mov	r3, ip
 8000994:	e000      	b.n	8000998 <__aeabi_cdcmpeq>
 8000996:	bf00      	nop

08000998 <__aeabi_cdcmpeq>:
 8000998:	b501      	push	{r0, lr}
 800099a:	f7ff ffb7 	bl	800090c <__cmpdf2>
 800099e:	2800      	cmp	r0, #0
 80009a0:	bf48      	it	mi
 80009a2:	f110 0f00 	cmnmi.w	r0, #0
 80009a6:	bd01      	pop	{r0, pc}

080009a8 <__aeabi_dcmpeq>:
 80009a8:	f84d ed08 	str.w	lr, [sp, #-8]!
 80009ac:	f7ff fff4 	bl	8000998 <__aeabi_cdcmpeq>
 80009b0:	bf0c      	ite	eq
 80009b2:	2001      	moveq	r0, #1
 80009b4:	2000      	movne	r0, #0
 80009b6:	f85d fb08 	ldr.w	pc, [sp], #8
 80009ba:	bf00      	nop

080009bc <__aeabi_dcmplt>:
 80009bc:	f84d ed08 	str.w	lr, [sp, #-8]!
 80009c0:	f7ff ffea 	bl	8000998 <__aeabi_cdcmpeq>
 80009c4:	bf34      	ite	cc
 80009c6:	2001      	movcc	r0, #1
 80009c8:	2000      	movcs	r0, #0
 80009ca:	f85d fb08 	ldr.w	pc, [sp], #8
 80009ce:	bf00      	nop

080009d0 <__aeabi_dcmple>:
 80009d0:	f84d ed08 	str.w	lr, [sp, #-8]!
 80009d4:	f7ff ffe0 	bl	8000998 <__aeabi_cdcmpeq>
 80009d8:	bf94      	ite	ls
 80009da:	2001      	movls	r0, #1
 80009dc:	2000      	movhi	r0, #0
 80009de:	f85d fb08 	ldr.w	pc, [sp], #8
 80009e2:	bf00      	nop

080009e4 <__aeabi_dcmpge>:
 80009e4:	f84d ed08 	str.w	lr, [sp, #-8]!
 80009e8:	f7ff ffce 	bl	8000988 <__aeabi_cdrcmple>
 80009ec:	bf94      	ite	ls
 80009ee:	2001      	movls	r0, #1
 80009f0:	2000      	movhi	r0, #0
 80009f2:	f85d fb08 	ldr.w	pc, [sp], #8
 80009f6:	bf00      	nop

080009f8 <__aeabi_dcmpgt>:
 80009f8:	f84d ed08 	str.w	lr, [sp, #-8]!
 80009fc:	f7ff ffc4 	bl	8000988 <__aeabi_cdrcmple>
 8000a00:	bf34      	ite	cc
 8000a02:	2001      	movcc	r0, #1
 8000a04:	2000      	movcs	r0, #0
 8000a06:	f85d fb08 	ldr.w	pc, [sp], #8
 8000a0a:	bf00      	nop

08000a0c <__aeabi_dcmpun>:
 8000a0c:	ea4f 0c41 	mov.w	ip, r1, lsl #1
 8000a10:	ea7f 5c6c 	mvns.w	ip, ip, asr #21
 8000a14:	d102      	bne.n	8000a1c <__aeabi_dcmpun+0x10>
 8000a16:	ea50 3c01 	orrs.w	ip, r0, r1, lsl #12
 8000a1a:	d10a      	bne.n	8000a32 <__aeabi_dcmpun+0x26>
 8000a1c:	ea4f 0c43 	mov.w	ip, r3, lsl #1
 8000a20:	ea7f 5c6c 	mvns.w	ip, ip, asr #21
 8000a24:	d102      	bne.n	8000a2c <__aeabi_dcmpun+0x20>
 8000a26:	ea52 3c03 	orrs.w	ip, r2, r3, lsl #12
 8000a2a:	d102      	bne.n	8000a32 <__aeabi_dcmpun+0x26>
 8000a2c:	f04f 0000 	mov.w	r0, #0
 8000a30:	4770      	bx	lr
 8000a32:	f04f 0001 	mov.w	r0, #1
 8000a36:	4770      	bx	lr

08000a38 <__aeabi_d2iz>:
 8000a38:	ea4f 0241 	mov.w	r2, r1, lsl #1
 8000a3c:	f512 1200 	adds.w	r2, r2, #2097152	; 0x200000
 8000a40:	d215      	bcs.n	8000a6e <__aeabi_d2iz+0x36>
 8000a42:	d511      	bpl.n	8000a68 <__aeabi_d2iz+0x30>
 8000a44:	f46f 7378 	mvn.w	r3, #992	; 0x3e0
 8000a48:	ebb3 5262 	subs.w	r2, r3, r2, asr #21
 8000a4c:	d912      	bls.n	8000a74 <__aeabi_d2iz+0x3c>
 8000a4e:	ea4f 23c1 	mov.w	r3, r1, lsl #11
 8000a52:	f043 4300 	orr.w	r3, r3, #2147483648	; 0x80000000
 8000a56:	ea43 5350 	orr.w	r3, r3, r0, lsr #21
 8000a5a:	f011 4f00 	tst.w	r1, #2147483648	; 0x80000000
 8000a5e:	fa23 f002 	lsr.w	r0, r3, r2
 8000a62:	bf18      	it	ne
 8000a64:	4240      	negne	r0, r0
 8000a66:	4770      	bx	lr
 8000a68:	f04f 0000 	mov.w	r0, #0
 8000a6c:	4770      	bx	lr
 8000a6e:	ea50 3001 	orrs.w	r0, r0, r1, lsl #12
 8000a72:	d105      	bne.n	8000a80 <__aeabi_d2iz+0x48>
 8000a74:	f011 4000 	ands.w	r0, r1, #2147483648	; 0x80000000
 8000a78:	bf08      	it	eq
 8000a7a:	f06f 4000 	mvneq.w	r0, #2147483648	; 0x80000000
 8000a7e:	4770      	bx	lr
 8000a80:	f04f 0000 	mov.w	r0, #0
 8000a84:	4770      	bx	lr
 8000a86:	bf00      	nop

08000a88 <__aeabi_d2f>:
 8000a88:	ea4f 0241 	mov.w	r2, r1, lsl #1
 8000a8c:	f1b2 43e0 	subs.w	r3, r2, #1879048192	; 0x70000000
 8000a90:	bf24      	itt	cs
 8000a92:	f5b3 1c00 	subscs.w	ip, r3, #2097152	; 0x200000
 8000a96:	f1dc 5cfe 	rsbscs	ip, ip, #532676608	; 0x1fc00000
 8000a9a:	d90d      	bls.n	8000ab8 <__aeabi_d2f+0x30>
 8000a9c:	f001 4c00 	and.w	ip, r1, #2147483648	; 0x80000000
 8000aa0:	ea4f 02c0 	mov.w	r2, r0, lsl #3
 8000aa4:	ea4c 7050 	orr.w	r0, ip, r0, lsr #29
 8000aa8:	f1b2 4f00 	cmp.w	r2, #2147483648	; 0x80000000
 8000aac:	eb40 0083 	adc.w	r0, r0, r3, lsl #2
 8000ab0:	bf08      	it	eq
 8000ab2:	f020 0001 	biceq.w	r0, r0, #1
 8000ab6:	4770      	bx	lr
 8000ab8:	f011 4f80 	tst.w	r1, #1073741824	; 0x40000000
 8000abc:	d121      	bne.n	8000b02 <__aeabi_d2f+0x7a>
 8000abe:	f113 7238 	adds.w	r2, r3, #48234496	; 0x2e00000
 8000ac2:	bfbc      	itt	lt
 8000ac4:	f001 4000 	andlt.w	r0, r1, #2147483648	; 0x80000000
 8000ac8:	4770      	bxlt	lr
 8000aca:	f441 1180 	orr.w	r1, r1, #1048576	; 0x100000
 8000ace:	ea4f 5252 	mov.w	r2, r2, lsr #21
 8000ad2:	f1c2 0218 	rsb	r2, r2, #24
 8000ad6:	f1c2 0c20 	rsb	ip, r2, #32
 8000ada:	fa10 f30c 	lsls.w	r3, r0, ip
 8000ade:	fa20 f002 	lsr.w	r0, r0, r2
 8000ae2:	bf18      	it	ne
 8000ae4:	f040 0001 	orrne.w	r0, r0, #1
 8000ae8:	ea4f 23c1 	mov.w	r3, r1, lsl #11
 8000aec:	ea4f 23d3 	mov.w	r3, r3, lsr #11
 8000af0:	fa03 fc0c 	lsl.w	ip, r3, ip
 8000af4:	ea40 000c 	orr.w	r0, r0, ip
 8000af8:	fa23 f302 	lsr.w	r3, r3, r2
 8000afc:	ea4f 0343 	mov.w	r3, r3, lsl #1
 8000b00:	e7cc      	b.n	8000a9c <__aeabi_d2f+0x14>
 8000b02:	ea7f 5362 	mvns.w	r3, r2, asr #21
 8000b06:	d107      	bne.n	8000b18 <__aeabi_d2f+0x90>
 8000b08:	ea50 3301 	orrs.w	r3, r0, r1, lsl #12
 8000b0c:	bf1e      	ittt	ne
 8000b0e:	f04f 40fe 	movne.w	r0, #2130706432	; 0x7f000000
 8000b12:	f440 0040 	orrne.w	r0, r0, #12582912	; 0xc00000
 8000b16:	4770      	bxne	lr
 8000b18:	f001 4000 	and.w	r0, r1, #2147483648	; 0x80000000
 8000b1c:	f040 40fe 	orr.w	r0, r0, #2130706432	; 0x7f000000
 8000b20:	f440 0000 	orr.w	r0, r0, #8388608	; 0x800000
 8000b24:	4770      	bx	lr
 8000b26:	bf00      	nop

08000b28 <__aeabi_frsub>:
 8000b28:	f080 4000 	eor.w	r0, r0, #2147483648	; 0x80000000
 8000b2c:	e002      	b.n	8000b34 <__addsf3>
 8000b2e:	bf00      	nop

08000b30 <__aeabi_fsub>:
 8000b30:	f081 4100 	eor.w	r1, r1, #2147483648	; 0x80000000

08000b34 <__addsf3>:
 8000b34:	0042      	lsls	r2, r0, #1
 8000b36:	bf1f      	itttt	ne
 8000b38:	ea5f 0341 	movsne.w	r3, r1, lsl #1
 8000b3c:	ea92 0f03 	teqne	r2, r3
 8000b40:	ea7f 6c22 	mvnsne.w	ip, r2, asr #24
 8000b44:	ea7f 6c23 	mvnsne.w	ip, r3, asr #24
 8000b48:	d06a      	beq.n	8000c20 <__addsf3+0xec>
 8000b4a:	ea4f 6212 	mov.w	r2, r2, lsr #24
 8000b4e:	ebd2 6313 	rsbs	r3, r2, r3, lsr #24
 8000b52:	bfc1      	itttt	gt
 8000b54:	18d2      	addgt	r2, r2, r3
 8000b56:	4041      	eorgt	r1, r0
 8000b58:	4048      	eorgt	r0, r1
 8000b5a:	4041      	eorgt	r1, r0
 8000b5c:	bfb8      	it	lt
 8000b5e:	425b      	neglt	r3, r3
 8000b60:	2b19      	cmp	r3, #25
 8000b62:	bf88      	it	hi
 8000b64:	4770      	bxhi	lr
 8000b66:	f010 4f00 	tst.w	r0, #2147483648	; 0x80000000
 8000b6a:	f440 0000 	orr.w	r0, r0, #8388608	; 0x800000
 8000b6e:	f020 407f 	bic.w	r0, r0, #4278190080	; 0xff000000
 8000b72:	bf18      	it	ne
 8000b74:	4240      	negne	r0, r0
 8000b76:	f011 4f00 	tst.w	r1, #2147483648	; 0x80000000
 8000b7a:	f441 0100 	orr.w	r1, r1, #8388608	; 0x800000
 8000b7e:	f021 417f 	bic.w	r1, r1, #4278190080	; 0xff000000
 8000b82:	bf18      	it	ne
 8000b84:	4249      	negne	r1, r1
 8000b86:	ea92 0f03 	teq	r2, r3
 8000b8a:	d03f      	beq.n	8000c0c <__addsf3+0xd8>
 8000b8c:	f1a2 0201 	sub.w	r2, r2, #1
 8000b90:	fa41 fc03 	asr.w	ip, r1, r3
 8000b94:	eb10 000c 	adds.w	r0, r0, ip
 8000b98:	f1c3 0320 	rsb	r3, r3, #32
 8000b9c:	fa01 f103 	lsl.w	r1, r1, r3
 8000ba0:	f000 4300 	and.w	r3, r0, #2147483648	; 0x80000000
 8000ba4:	d502      	bpl.n	8000bac <__addsf3+0x78>
 8000ba6:	4249      	negs	r1, r1
 8000ba8:	eb60 0040 	sbc.w	r0, r0, r0, lsl #1
 8000bac:	f5b0 0f00 	cmp.w	r0, #8388608	; 0x800000
 8000bb0:	d313      	bcc.n	8000bda <__addsf3+0xa6>
 8000bb2:	f1b0 7f80 	cmp.w	r0, #16777216	; 0x1000000
 8000bb6:	d306      	bcc.n	8000bc6 <__addsf3+0x92>
 8000bb8:	0840      	lsrs	r0, r0, #1
 8000bba:	ea4f 0131 	mov.w	r1, r1, rrx
 8000bbe:	f102 0201 	add.w	r2, r2, #1
 8000bc2:	2afe      	cmp	r2, #254	; 0xfe
 8000bc4:	d251      	bcs.n	8000c6a <__addsf3+0x136>
 8000bc6:	f1b1 4f00 	cmp.w	r1, #2147483648	; 0x80000000
 8000bca:	eb40 50c2 	adc.w	r0, r0, r2, lsl #23
 8000bce:	bf08      	it	eq
 8000bd0:	f020 0001 	biceq.w	r0, r0, #1
 8000bd4:	ea40 0003 	orr.w	r0, r0, r3
 8000bd8:	4770      	bx	lr
 8000bda:	0049      	lsls	r1, r1, #1
 8000bdc:	eb40 0000 	adc.w	r0, r0, r0
 8000be0:	f410 0f00 	tst.w	r0, #8388608	; 0x800000
 8000be4:	f1a2 0201 	sub.w	r2, r2, #1
 8000be8:	d1ed      	bne.n	8000bc6 <__addsf3+0x92>
 8000bea:	fab0 fc80 	clz	ip, r0
 8000bee:	f1ac 0c08 	sub.w	ip, ip, #8
 8000bf2:	ebb2 020c 	subs.w	r2, r2, ip
 8000bf6:	fa00 f00c 	lsl.w	r0, r0, ip
 8000bfa:	bfaa      	itet	ge
 8000bfc:	eb00 50c2 	addge.w	r0, r0, r2, lsl #23
 8000c00:	4252      	neglt	r2, r2
 8000c02:	4318      	orrge	r0, r3
 8000c04:	bfbc      	itt	lt
 8000c06:	40d0      	lsrlt	r0, r2
 8000c08:	4318      	orrlt	r0, r3
 8000c0a:	4770      	bx	lr
 8000c0c:	f092 0f00 	teq	r2, #0
 8000c10:	f481 0100 	eor.w	r1, r1, #8388608	; 0x800000
 8000c14:	bf06      	itte	eq
 8000c16:	f480 0000 	eoreq.w	r0, r0, #8388608	; 0x800000
 8000c1a:	3201      	addeq	r2, #1
 8000c1c:	3b01      	subne	r3, #1
 8000c1e:	e7b5      	b.n	8000b8c <__addsf3+0x58>
 8000c20:	ea4f 0341 	mov.w	r3, r1, lsl #1
 8000c24:	ea7f 6c22 	mvns.w	ip, r2, asr #24
 8000c28:	bf18      	it	ne
 8000c2a:	ea7f 6c23 	mvnsne.w	ip, r3, asr #24
 8000c2e:	d021      	beq.n	8000c74 <__addsf3+0x140>
 8000c30:	ea92 0f03 	teq	r2, r3
 8000c34:	d004      	beq.n	8000c40 <__addsf3+0x10c>
 8000c36:	f092 0f00 	teq	r2, #0
 8000c3a:	bf08      	it	eq
 8000c3c:	4608      	moveq	r0, r1
 8000c3e:	4770      	bx	lr
 8000c40:	ea90 0f01 	teq	r0, r1
 8000c44:	bf1c      	itt	ne
 8000c46:	2000      	movne	r0, #0
 8000c48:	4770      	bxne	lr
 8000c4a:	f012 4f7f 	tst.w	r2, #4278190080	; 0xff000000
 8000c4e:	d104      	bne.n	8000c5a <__addsf3+0x126>
 8000c50:	0040      	lsls	r0, r0, #1
 8000c52:	bf28      	it	cs
 8000c54:	f040 4000 	orrcs.w	r0, r0, #2147483648	; 0x80000000
 8000c58:	4770      	bx	lr
 8000c5a:	f112 7200 	adds.w	r2, r2, #33554432	; 0x2000000
 8000c5e:	bf3c      	itt	cc
 8000c60:	f500 0000 	addcc.w	r0, r0, #8388608	; 0x800000
 8000c64:	4770      	bxcc	lr
 8000c66:	f000 4300 	and.w	r3, r0, #2147483648	; 0x80000000
 8000c6a:	f043 40fe 	orr.w	r0, r3, #2130706432	; 0x7f000000
 8000c6e:	f440 0000 	orr.w	r0, r0, #8388608	; 0x800000
 8000c72:	4770      	bx	lr
 8000c74:	ea7f 6222 	mvns.w	r2, r2, asr #24
 8000c78:	bf16      	itet	ne
 8000c7a:	4608      	movne	r0, r1
 8000c7c:	ea7f 6323 	mvnseq.w	r3, r3, asr #24
 8000c80:	4601      	movne	r1, r0
 8000c82:	0242      	lsls	r2, r0, #9
 8000c84:	bf06      	itte	eq
 8000c86:	ea5f 2341 	movseq.w	r3, r1, lsl #9
 8000c8a:	ea90 0f01 	teqeq	r0, r1
 8000c8e:	f440 0080 	orrne.w	r0, r0, #4194304	; 0x400000
 8000c92:	4770      	bx	lr

08000c94 <__aeabi_ui2f>:
 8000c94:	f04f 0300 	mov.w	r3, #0
 8000c98:	e004      	b.n	8000ca4 <__aeabi_i2f+0x8>
 8000c9a:	bf00      	nop

08000c9c <__aeabi_i2f>:
 8000c9c:	f010 4300 	ands.w	r3, r0, #2147483648	; 0x80000000
 8000ca0:	bf48      	it	mi
 8000ca2:	4240      	negmi	r0, r0
 8000ca4:	ea5f 0c00 	movs.w	ip, r0
 8000ca8:	bf08      	it	eq
 8000caa:	4770      	bxeq	lr
 8000cac:	f043 4396 	orr.w	r3, r3, #1258291200	; 0x4b000000
 8000cb0:	4601      	mov	r1, r0
 8000cb2:	f04f 0000 	mov.w	r0, #0
 8000cb6:	e01c      	b.n	8000cf2 <__aeabi_l2f+0x2a>

08000cb8 <__aeabi_ul2f>:
 8000cb8:	ea50 0201 	orrs.w	r2, r0, r1
 8000cbc:	bf08      	it	eq
 8000cbe:	4770      	bxeq	lr
 8000cc0:	f04f 0300 	mov.w	r3, #0
 8000cc4:	e00a      	b.n	8000cdc <__aeabi_l2f+0x14>
 8000cc6:	bf00      	nop

08000cc8 <__aeabi_l2f>:
 8000cc8:	ea50 0201 	orrs.w	r2, r0, r1
 8000ccc:	bf08      	it	eq
 8000cce:	4770      	bxeq	lr
 8000cd0:	f011 4300 	ands.w	r3, r1, #2147483648	; 0x80000000
 8000cd4:	d502      	bpl.n	8000cdc <__aeabi_l2f+0x14>
 8000cd6:	4240      	negs	r0, r0
 8000cd8:	eb61 0141 	sbc.w	r1, r1, r1, lsl #1
 8000cdc:	ea5f 0c01 	movs.w	ip, r1
 8000ce0:	bf02      	ittt	eq
 8000ce2:	4684      	moveq	ip, r0
 8000ce4:	4601      	moveq	r1, r0
 8000ce6:	2000      	moveq	r0, #0
 8000ce8:	f043 43b6 	orr.w	r3, r3, #1526726656	; 0x5b000000
 8000cec:	bf08      	it	eq
 8000cee:	f1a3 5380 	subeq.w	r3, r3, #268435456	; 0x10000000
 8000cf2:	f5a3 0300 	sub.w	r3, r3, #8388608	; 0x800000
 8000cf6:	fabc f28c 	clz	r2, ip
 8000cfa:	3a08      	subs	r2, #8
 8000cfc:	eba3 53c2 	sub.w	r3, r3, r2, lsl #23
 8000d00:	db10      	blt.n	8000d24 <__aeabi_l2f+0x5c>
 8000d02:	fa01 fc02 	lsl.w	ip, r1, r2
 8000d06:	4463      	add	r3, ip
 8000d08:	fa00 fc02 	lsl.w	ip, r0, r2
 8000d0c:	f1c2 0220 	rsb	r2, r2, #32
 8000d10:	f1bc 4f00 	cmp.w	ip, #2147483648	; 0x80000000
 8000d14:	fa20 f202 	lsr.w	r2, r0, r2
 8000d18:	eb43 0002 	adc.w	r0, r3, r2
 8000d1c:	bf08      	it	eq
 8000d1e:	f020 0001 	biceq.w	r0, r0, #1
 8000d22:	4770      	bx	lr
 8000d24:	f102 0220 	add.w	r2, r2, #32
 8000d28:	fa01 fc02 	lsl.w	ip, r1, r2
 8000d2c:	f1c2 0220 	rsb	r2, r2, #32
 8000d30:	ea50 004c 	orrs.w	r0, r0, ip, lsl #1
 8000d34:	fa21 f202 	lsr.w	r2, r1, r2
 8000d38:	eb43 0002 	adc.w	r0, r3, r2
 8000d3c:	bf08      	it	eq
 8000d3e:	ea20 70dc 	biceq.w	r0, r0, ip, lsr #31
 8000d42:	4770      	bx	lr

08000d44 <__aeabi_fmul>:
 8000d44:	f04f 0cff 	mov.w	ip, #255	; 0xff
 8000d48:	ea1c 52d0 	ands.w	r2, ip, r0, lsr #23
 8000d4c:	bf1e      	ittt	ne
 8000d4e:	ea1c 53d1 	andsne.w	r3, ip, r1, lsr #23
 8000d52:	ea92 0f0c 	teqne	r2, ip
 8000d56:	ea93 0f0c 	teqne	r3, ip
 8000d5a:	d06f      	beq.n	8000e3c <__aeabi_fmul+0xf8>
 8000d5c:	441a      	add	r2, r3
 8000d5e:	ea80 0c01 	eor.w	ip, r0, r1
 8000d62:	0240      	lsls	r0, r0, #9
 8000d64:	bf18      	it	ne
 8000d66:	ea5f 2141 	movsne.w	r1, r1, lsl #9
 8000d6a:	d01e      	beq.n	8000daa <__aeabi_fmul+0x66>
 8000d6c:	f04f 6300 	mov.w	r3, #134217728	; 0x8000000
 8000d70:	ea43 1050 	orr.w	r0, r3, r0, lsr #5
 8000d74:	ea43 1151 	orr.w	r1, r3, r1, lsr #5
 8000d78:	fba0 3101 	umull	r3, r1, r0, r1
 8000d7c:	f00c 4000 	and.w	r0, ip, #2147483648	; 0x80000000
 8000d80:	f5b1 0f00 	cmp.w	r1, #8388608	; 0x800000
 8000d84:	bf3e      	ittt	cc
 8000d86:	0049      	lslcc	r1, r1, #1
 8000d88:	ea41 71d3 	orrcc.w	r1, r1, r3, lsr #31
 8000d8c:	005b      	lslcc	r3, r3, #1
 8000d8e:	ea40 0001 	orr.w	r0, r0, r1
 8000d92:	f162 027f 	sbc.w	r2, r2, #127	; 0x7f
 8000d96:	2afd      	cmp	r2, #253	; 0xfd
 8000d98:	d81d      	bhi.n	8000dd6 <__aeabi_fmul+0x92>
 8000d9a:	f1b3 4f00 	cmp.w	r3, #2147483648	; 0x80000000
 8000d9e:	eb40 50c2 	adc.w	r0, r0, r2, lsl #23
 8000da2:	bf08      	it	eq
 8000da4:	f020 0001 	biceq.w	r0, r0, #1
 8000da8:	4770      	bx	lr
 8000daa:	f090 0f00 	teq	r0, #0
 8000dae:	f00c 4c00 	and.w	ip, ip, #2147483648	; 0x80000000
 8000db2:	bf08      	it	eq
 8000db4:	0249      	lsleq	r1, r1, #9
 8000db6:	ea4c 2050 	orr.w	r0, ip, r0, lsr #9
 8000dba:	ea40 2051 	orr.w	r0, r0, r1, lsr #9
 8000dbe:	3a7f      	subs	r2, #127	; 0x7f
 8000dc0:	bfc2      	ittt	gt
 8000dc2:	f1d2 03ff 	rsbsgt	r3, r2, #255	; 0xff
 8000dc6:	ea40 50c2 	orrgt.w	r0, r0, r2, lsl #23
 8000dca:	4770      	bxgt	lr
 8000dcc:	f440 0000 	orr.w	r0, r0, #8388608	; 0x800000
 8000dd0:	f04f 0300 	mov.w	r3, #0
 8000dd4:	3a01      	subs	r2, #1
 8000dd6:	dc5d      	bgt.n	8000e94 <__aeabi_fmul+0x150>
 8000dd8:	f112 0f19 	cmn.w	r2, #25
 8000ddc:	bfdc      	itt	le
 8000dde:	f000 4000 	andle.w	r0, r0, #2147483648	; 0x80000000
 8000de2:	4770      	bxle	lr
 8000de4:	f1c2 0200 	rsb	r2, r2, #0
 8000de8:	0041      	lsls	r1, r0, #1
 8000dea:	fa21 f102 	lsr.w	r1, r1, r2
 8000dee:	f1c2 0220 	rsb	r2, r2, #32
 8000df2:	fa00 fc02 	lsl.w	ip, r0, r2
 8000df6:	ea5f 0031 	movs.w	r0, r1, rrx
 8000dfa:	f140 0000 	adc.w	r0, r0, #0
 8000dfe:	ea53 034c 	orrs.w	r3, r3, ip, lsl #1
 8000e02:	bf08      	it	eq
 8000e04:	ea20 70dc 	biceq.w	r0, r0, ip, lsr #31
 8000e08:	4770      	bx	lr
 8000e0a:	f092 0f00 	teq	r2, #0
 8000e0e:	f000 4c00 	and.w	ip, r0, #2147483648	; 0x80000000
 8000e12:	bf02      	ittt	eq
 8000e14:	0040      	lsleq	r0, r0, #1
 8000e16:	f410 0f00 	tsteq.w	r0, #8388608	; 0x800000
 8000e1a:	3a01      	subeq	r2, #1
 8000e1c:	d0f9      	beq.n	8000e12 <__aeabi_fmul+0xce>
 8000e1e:	ea40 000c 	orr.w	r0, r0, ip
 8000e22:	f093 0f00 	teq	r3, #0
 8000e26:	f001 4c00 	and.w	ip, r1, #2147483648	; 0x80000000
 8000e2a:	bf02      	ittt	eq
 8000e2c:	0049      	lsleq	r1, r1, #1
 8000e2e:	f411 0f00 	tsteq.w	r1, #8388608	; 0x800000
 8000e32:	3b01      	subeq	r3, #1
 8000e34:	d0f9      	beq.n	8000e2a <__aeabi_fmul+0xe6>
 8000e36:	ea41 010c 	orr.w	r1, r1, ip
 8000e3a:	e78f      	b.n	8000d5c <__aeabi_fmul+0x18>
 8000e3c:	ea0c 53d1 	and.w	r3, ip, r1, lsr #23
 8000e40:	ea92 0f0c 	teq	r2, ip
 8000e44:	bf18      	it	ne
 8000e46:	ea93 0f0c 	teqne	r3, ip
 8000e4a:	d00a      	beq.n	8000e62 <__aeabi_fmul+0x11e>
 8000e4c:	f030 4c00 	bics.w	ip, r0, #2147483648	; 0x80000000
 8000e50:	bf18      	it	ne
 8000e52:	f031 4c00 	bicsne.w	ip, r1, #2147483648	; 0x80000000
 8000e56:	d1d8      	bne.n	8000e0a <__aeabi_fmul+0xc6>
 8000e58:	ea80 0001 	eor.w	r0, r0, r1
 8000e5c:	f000 4000 	and.w	r0, r0, #2147483648	; 0x80000000
 8000e60:	4770      	bx	lr
 8000e62:	f090 0f00 	teq	r0, #0
 8000e66:	bf17      	itett	ne
 8000e68:	f090 4f00 	teqne	r0, #2147483648	; 0x80000000
 8000e6c:	4608      	moveq	r0, r1
 8000e6e:	f091 0f00 	teqne	r1, #0
 8000e72:	f091 4f00 	teqne	r1, #2147483648	; 0x80000000
 8000e76:	d014      	beq.n	8000ea2 <__aeabi_fmul+0x15e>
 8000e78:	ea92 0f0c 	teq	r2, ip
 8000e7c:	d101      	bne.n	8000e82 <__aeabi_fmul+0x13e>
 8000e7e:	0242      	lsls	r2, r0, #9
 8000e80:	d10f      	bne.n	8000ea2 <__aeabi_fmul+0x15e>
 8000e82:	ea93 0f0c 	teq	r3, ip
 8000e86:	d103      	bne.n	8000e90 <__aeabi_fmul+0x14c>
 8000e88:	024b      	lsls	r3, r1, #9
 8000e8a:	bf18      	it	ne
 8000e8c:	4608      	movne	r0, r1
 8000e8e:	d108      	bne.n	8000ea2 <__aeabi_fmul+0x15e>
 8000e90:	ea80 0001 	eor.w	r0, r0, r1
 8000e94:	f000 4000 	and.w	r0, r0, #2147483648	; 0x80000000
 8000e98:	f040 40fe 	orr.w	r0, r0, #2130706432	; 0x7f000000
 8000e9c:	f440 0000 	orr.w	r0, r0, #8388608	; 0x800000
 8000ea0:	4770      	bx	lr
 8000ea2:	f040 40fe 	orr.w	r0, r0, #2130706432	; 0x7f000000
 8000ea6:	f440 0040 	orr.w	r0, r0, #12582912	; 0xc00000
 8000eaa:	4770      	bx	lr

08000eac <__aeabi_fdiv>:
 8000eac:	f04f 0cff 	mov.w	ip, #255	; 0xff
 8000eb0:	ea1c 52d0 	ands.w	r2, ip, r0, lsr #23
 8000eb4:	bf1e      	ittt	ne
 8000eb6:	ea1c 53d1 	andsne.w	r3, ip, r1, lsr #23
 8000eba:	ea92 0f0c 	teqne	r2, ip
 8000ebe:	ea93 0f0c 	teqne	r3, ip
 8000ec2:	d069      	beq.n	8000f98 <__aeabi_fdiv+0xec>
 8000ec4:	eba2 0203 	sub.w	r2, r2, r3
 8000ec8:	ea80 0c01 	eor.w	ip, r0, r1
 8000ecc:	0249      	lsls	r1, r1, #9
 8000ece:	ea4f 2040 	mov.w	r0, r0, lsl #9
 8000ed2:	d037      	beq.n	8000f44 <__aeabi_fdiv+0x98>
 8000ed4:	f04f 5380 	mov.w	r3, #268435456	; 0x10000000
 8000ed8:	ea43 1111 	orr.w	r1, r3, r1, lsr #4
 8000edc:	ea43 1310 	orr.w	r3, r3, r0, lsr #4
 8000ee0:	f00c 4000 	and.w	r0, ip, #2147483648	; 0x80000000
 8000ee4:	428b      	cmp	r3, r1
 8000ee6:	bf38      	it	cc
 8000ee8:	005b      	lslcc	r3, r3, #1
 8000eea:	f142 027d 	adc.w	r2, r2, #125	; 0x7d
 8000eee:	f44f 0c00 	mov.w	ip, #8388608	; 0x800000
 8000ef2:	428b      	cmp	r3, r1
 8000ef4:	bf24      	itt	cs
 8000ef6:	1a5b      	subcs	r3, r3, r1
 8000ef8:	ea40 000c 	orrcs.w	r0, r0, ip
 8000efc:	ebb3 0f51 	cmp.w	r3, r1, lsr #1
 8000f00:	bf24      	itt	cs
 8000f02:	eba3 0351 	subcs.w	r3, r3, r1, lsr #1
 8000f06:	ea40 005c 	orrcs.w	r0, r0, ip, lsr #1
 8000f0a:	ebb3 0f91 	cmp.w	r3, r1, lsr #2
 8000f0e:	bf24      	itt	cs
 8000f10:	eba3 0391 	subcs.w	r3, r3, r1, lsr #2
 8000f14:	ea40 009c 	orrcs.w	r0, r0, ip, lsr #2
 8000f18:	ebb3 0fd1 	cmp.w	r3, r1, lsr #3
 8000f1c:	bf24      	itt	cs
 8000f1e:	eba3 03d1 	subcs.w	r3, r3, r1, lsr #3
 8000f22:	ea40 00dc 	orrcs.w	r0, r0, ip, lsr #3
 8000f26:	011b      	lsls	r3, r3, #4
 8000f28:	bf18      	it	ne
 8000f2a:	ea5f 1c1c 	movsne.w	ip, ip, lsr #4
 8000f2e:	d1e0      	bne.n	8000ef2 <__aeabi_fdiv+0x46>
 8000f30:	2afd      	cmp	r2, #253	; 0xfd
 8000f32:	f63f af50 	bhi.w	8000dd6 <__aeabi_fmul+0x92>
 8000f36:	428b      	cmp	r3, r1
 8000f38:	eb40 50c2 	adc.w	r0, r0, r2, lsl #23
 8000f3c:	bf08      	it	eq
 8000f3e:	f020 0001 	biceq.w	r0, r0, #1
 8000f42:	4770      	bx	lr
 8000f44:	f00c 4c00 	and.w	ip, ip, #2147483648	; 0x80000000
 8000f48:	ea4c 2050 	orr.w	r0, ip, r0, lsr #9
 8000f4c:	327f      	adds	r2, #127	; 0x7f
 8000f4e:	bfc2      	ittt	gt
 8000f50:	f1d2 03ff 	rsbsgt	r3, r2, #255	; 0xff
 8000f54:	ea40 50c2 	orrgt.w	r0, r0, r2, lsl #23
 8000f58:	4770      	bxgt	lr
 8000f5a:	f440 0000 	orr.w	r0, r0, #8388608	; 0x800000
 8000f5e:	f04f 0300 	mov.w	r3, #0
 8000f62:	3a01      	subs	r2, #1
 8000f64:	e737      	b.n	8000dd6 <__aeabi_fmul+0x92>
 8000f66:	f092 0f00 	teq	r2, #0
 8000f6a:	f000 4c00 	and.w	ip, r0, #2147483648	; 0x80000000
 8000f6e:	bf02      	ittt	eq
 8000f70:	0040      	lsleq	r0, r0, #1
 8000f72:	f410 0f00 	tsteq.w	r0, #8388608	; 0x800000
 8000f76:	3a01      	subeq	r2, #1
 8000f78:	d0f9      	beq.n	8000f6e <__aeabi_fdiv+0xc2>
 8000f7a:	ea40 000c 	orr.w	r0, r0, ip
 8000f7e:	f093 0f00 	teq	r3, #0
 8000f82:	f001 4c00 	and.w	ip, r1, #2147483648	; 0x80000000
 8000f86:	bf02      	ittt	eq
 8000f88:	0049      	lsleq	r1, r1, #1
 8000f8a:	f411 0f00 	tsteq.w	r1, #8388608	; 0x800000
 8000f8e:	3b01      	subeq	r3, #1
 8000f90:	d0f9      	beq.n	8000f86 <__aeabi_fdiv+0xda>
 8000f92:	ea41 010c 	orr.w	r1, r1, ip
 8000f96:	e795      	b.n	8000ec4 <__aeabi_fdiv+0x18>
 8000f98:	ea0c 53d1 	and.w	r3, ip, r1, lsr #23
 8000f9c:	ea92 0f0c 	teq	r2, ip
 8000fa0:	d108      	bne.n	8000fb4 <__aeabi_fdiv+0x108>
 8000fa2:	0242      	lsls	r2, r0, #9
 8000fa4:	f47f af7d 	bne.w	8000ea2 <__aeabi_fmul+0x15e>
 8000fa8:	ea93 0f0c 	teq	r3, ip
 8000fac:	f47f af70 	bne.w	8000e90 <__aeabi_fmul+0x14c>
 8000fb0:	4608      	mov	r0, r1
 8000fb2:	e776      	b.n	8000ea2 <__aeabi_fmul+0x15e>
 8000fb4:	ea93 0f0c 	teq	r3, ip
 8000fb8:	d104      	bne.n	8000fc4 <__aeabi_fdiv+0x118>
 8000fba:	024b      	lsls	r3, r1, #9
 8000fbc:	f43f af4c 	beq.w	8000e58 <__aeabi_fmul+0x114>
 8000fc0:	4608      	mov	r0, r1
 8000fc2:	e76e      	b.n	8000ea2 <__aeabi_fmul+0x15e>
 8000fc4:	f030 4c00 	bics.w	ip, r0, #2147483648	; 0x80000000
 8000fc8:	bf18      	it	ne
 8000fca:	f031 4c00 	bicsne.w	ip, r1, #2147483648	; 0x80000000
 8000fce:	d1ca      	bne.n	8000f66 <__aeabi_fdiv+0xba>
 8000fd0:	f030 4200 	bics.w	r2, r0, #2147483648	; 0x80000000
 8000fd4:	f47f af5c 	bne.w	8000e90 <__aeabi_fmul+0x14c>
 8000fd8:	f031 4300 	bics.w	r3, r1, #2147483648	; 0x80000000
 8000fdc:	f47f af3c 	bne.w	8000e58 <__aeabi_fmul+0x114>
 8000fe0:	e75f      	b.n	8000ea2 <__aeabi_fmul+0x15e>
 8000fe2:	bf00      	nop

08000fe4 <__gesf2>:
 8000fe4:	f04f 3cff 	mov.w	ip, #4294967295
 8000fe8:	e006      	b.n	8000ff8 <__cmpsf2+0x4>
 8000fea:	bf00      	nop

08000fec <__lesf2>:
 8000fec:	f04f 0c01 	mov.w	ip, #1
 8000ff0:	e002      	b.n	8000ff8 <__cmpsf2+0x4>
 8000ff2:	bf00      	nop

08000ff4 <__cmpsf2>:
 8000ff4:	f04f 0c01 	mov.w	ip, #1
 8000ff8:	f84d cd04 	str.w	ip, [sp, #-4]!
 8000ffc:	ea4f 0240 	mov.w	r2, r0, lsl #1
 8001000:	ea4f 0341 	mov.w	r3, r1, lsl #1
 8001004:	ea7f 6c22 	mvns.w	ip, r2, asr #24
 8001008:	bf18      	it	ne
 800100a:	ea7f 6c23 	mvnsne.w	ip, r3, asr #24
 800100e:	d011      	beq.n	8001034 <__cmpsf2+0x40>
 8001010:	b001      	add	sp, #4
 8001012:	ea52 0c53 	orrs.w	ip, r2, r3, lsr #1
 8001016:	bf18      	it	ne
 8001018:	ea90 0f01 	teqne	r0, r1
 800101c:	bf58      	it	pl
 800101e:	ebb2 0003 	subspl.w	r0, r2, r3
 8001022:	bf88      	it	hi
 8001024:	17c8      	asrhi	r0, r1, #31
 8001026:	bf38      	it	cc
 8001028:	ea6f 70e1 	mvncc.w	r0, r1, asr #31
 800102c:	bf18      	it	ne
 800102e:	f040 0001 	orrne.w	r0, r0, #1
 8001032:	4770      	bx	lr
 8001034:	ea7f 6c22 	mvns.w	ip, r2, asr #24
 8001038:	d102      	bne.n	8001040 <__cmpsf2+0x4c>
 800103a:	ea5f 2c40 	movs.w	ip, r0, lsl #9
 800103e:	d105      	bne.n	800104c <__cmpsf2+0x58>
 8001040:	ea7f 6c23 	mvns.w	ip, r3, asr #24
 8001044:	d1e4      	bne.n	8001010 <__cmpsf2+0x1c>
 8001046:	ea5f 2c41 	movs.w	ip, r1, lsl #9
 800104a:	d0e1      	beq.n	8001010 <__cmpsf2+0x1c>
 800104c:	f85d 0b04 	ldr.w	r0, [sp], #4
 8001050:	4770      	bx	lr
 8001052:	bf00      	nop

08001054 <__aeabi_cfrcmple>:
 8001054:	4684      	mov	ip, r0
 8001056:	4608      	mov	r0, r1
 8001058:	4661      	mov	r1, ip
 800105a:	e7ff      	b.n	800105c <__aeabi_cfcmpeq>

0800105c <__aeabi_cfcmpeq>:
 800105c:	b50f      	push	{r0, r1, r2, r3, lr}
 800105e:	f7ff ffc9 	bl	8000ff4 <__cmpsf2>
 8001062:	2800      	cmp	r0, #0
 8001064:	bf48      	it	mi
 8001066:	f110 0f00 	cmnmi.w	r0, #0
 800106a:	bd0f      	pop	{r0, r1, r2, r3, pc}

0800106c <__aeabi_fcmpeq>:
 800106c:	f84d ed08 	str.w	lr, [sp, #-8]!
 8001070:	f7ff fff4 	bl	800105c <__aeabi_cfcmpeq>
 8001074:	bf0c      	ite	eq
 8001076:	2001      	moveq	r0, #1
 8001078:	2000      	movne	r0, #0
 800107a:	f85d fb08 	ldr.w	pc, [sp], #8
 800107e:	bf00      	nop

08001080 <__aeabi_fcmplt>:
 8001080:	f84d ed08 	str.w	lr, [sp, #-8]!
 8001084:	f7ff ffea 	bl	800105c <__aeabi_cfcmpeq>
 8001088:	bf34      	ite	cc
 800108a:	2001      	movcc	r0, #1
 800108c:	2000      	movcs	r0, #0
 800108e:	f85d fb08 	ldr.w	pc, [sp], #8
 8001092:	bf00      	nop

08001094 <__aeabi_fcmple>:
 8001094:	f84d ed08 	str.w	lr, [sp, #-8]!
 8001098:	f7ff ffe0 	bl	800105c <__aeabi_cfcmpeq>
 800109c:	bf94      	ite	ls
 800109e:	2001      	movls	r0, #1
 80010a0:	2000      	movhi	r0, #0
 80010a2:	f85d fb08 	ldr.w	pc, [sp], #8
 80010a6:	bf00      	nop

080010a8 <__aeabi_fcmpge>:
 80010a8:	f84d ed08 	str.w	lr, [sp, #-8]!
 80010ac:	f7ff ffd2 	bl	8001054 <__aeabi_cfrcmple>
 80010b0:	bf94      	ite	ls
 80010b2:	2001      	movls	r0, #1
 80010b4:	2000      	movhi	r0, #0
 80010b6:	f85d fb08 	ldr.w	pc, [sp], #8
 80010ba:	bf00      	nop

080010bc <__aeabi_fcmpgt>:
 80010bc:	f84d ed08 	str.w	lr, [sp, #-8]!
 80010c0:	f7ff ffc8 	bl	8001054 <__aeabi_cfrcmple>
 80010c4:	bf34      	ite	cc
 80010c6:	2001      	movcc	r0, #1
 80010c8:	2000      	movcs	r0, #0
 80010ca:	f85d fb08 	ldr.w	pc, [sp], #8
 80010ce:	bf00      	nop

080010d0 <__aeabi_f2iz>:
 80010d0:	ea4f 0240 	mov.w	r2, r0, lsl #1
 80010d4:	f1b2 4ffe 	cmp.w	r2, #2130706432	; 0x7f000000
 80010d8:	d30f      	bcc.n	80010fa <__aeabi_f2iz+0x2a>
 80010da:	f04f 039e 	mov.w	r3, #158	; 0x9e
 80010de:	ebb3 6212 	subs.w	r2, r3, r2, lsr #24
 80010e2:	d90d      	bls.n	8001100 <__aeabi_f2iz+0x30>
 80010e4:	ea4f 2300 	mov.w	r3, r0, lsl #8
 80010e8:	f043 4300 	orr.w	r3, r3, #2147483648	; 0x80000000
 80010ec:	f010 4f00 	tst.w	r0, #2147483648	; 0x80000000
 80010f0:	fa23 f002 	lsr.w	r0, r3, r2
 80010f4:	bf18      	it	ne
 80010f6:	4240      	negne	r0, r0
 80010f8:	4770      	bx	lr
 80010fa:	f04f 0000 	mov.w	r0, #0
 80010fe:	4770      	bx	lr
 8001100:	f112 0f61 	cmn.w	r2, #97	; 0x61
 8001104:	d101      	bne.n	800110a <__aeabi_f2iz+0x3a>
 8001106:	0242      	lsls	r2, r0, #9
 8001108:	d105      	bne.n	8001116 <__aeabi_f2iz+0x46>
 800110a:	f010 4000 	ands.w	r0, r0, #2147483648	; 0x80000000
 800110e:	bf08      	it	eq
 8001110:	f06f 4000 	mvneq.w	r0, #2147483648	; 0x80000000
 8001114:	4770      	bx	lr
 8001116:	f04f 0000 	mov.w	r0, #0
 800111a:	4770      	bx	lr

0800111c <__aeabi_f2uiz>:
 800111c:	0042      	lsls	r2, r0, #1
 800111e:	d20e      	bcs.n	800113e <__aeabi_f2uiz+0x22>
 8001120:	f1b2 4ffe 	cmp.w	r2, #2130706432	; 0x7f000000
 8001124:	d30b      	bcc.n	800113e <__aeabi_f2uiz+0x22>
 8001126:	f04f 039e 	mov.w	r3, #158	; 0x9e
 800112a:	ebb3 6212 	subs.w	r2, r3, r2, lsr #24
 800112e:	d409      	bmi.n	8001144 <__aeabi_f2uiz+0x28>
 8001130:	ea4f 2300 	mov.w	r3, r0, lsl #8
 8001134:	f043 4300 	orr.w	r3, r3, #2147483648	; 0x80000000
 8001138:	fa23 f002 	lsr.w	r0, r3, r2
 800113c:	4770      	bx	lr
 800113e:	f04f 0000 	mov.w	r0, #0
 8001142:	4770      	bx	lr
 8001144:	f112 0f61 	cmn.w	r2, #97	; 0x61
 8001148:	d101      	bne.n	800114e <__aeabi_f2uiz+0x32>
 800114a:	0242      	lsls	r2, r0, #9
 800114c:	d102      	bne.n	8001154 <__aeabi_f2uiz+0x38>
 800114e:	f04f 30ff 	mov.w	r0, #4294967295
 8001152:	4770      	bx	lr
 8001154:	f04f 0000 	mov.w	r0, #0
 8001158:	4770      	bx	lr
 800115a:	bf00      	nop

0800115c <HAL_InitTick>:
 800115c:	b538      	push	{r3, r4, r5, lr}
 800115e:	4b0e      	ldr	r3, [pc, #56]	; (8001198 <HAL_InitTick+0x3c>)
 8001160:	4605      	mov	r5, r0
 8001162:	7818      	ldrb	r0, [r3, #0]
 8001164:	f44f 737a 	mov.w	r3, #1000	; 0x3e8
 8001168:	fbb3 f3f0 	udiv	r3, r3, r0
 800116c:	4a0b      	ldr	r2, [pc, #44]	; (800119c <HAL_InitTick+0x40>)
 800116e:	6810      	ldr	r0, [r2, #0]
 8001170:	fbb0 f0f3 	udiv	r0, r0, r3
 8001174:	f000 fac8 	bl	8001708 <HAL_SYSTICK_Config>
 8001178:	4604      	mov	r4, r0
 800117a:	b958      	cbnz	r0, 8001194 <HAL_InitTick+0x38>
 800117c:	2d0f      	cmp	r5, #15
 800117e:	d809      	bhi.n	8001194 <HAL_InitTick+0x38>
 8001180:	4602      	mov	r2, r0
 8001182:	4629      	mov	r1, r5
 8001184:	f04f 30ff 	mov.w	r0, #4294967295
 8001188:	f000 fa7c 	bl	8001684 <HAL_NVIC_SetPriority>
 800118c:	4620      	mov	r0, r4
 800118e:	4b04      	ldr	r3, [pc, #16]	; (80011a0 <HAL_InitTick+0x44>)
 8001190:	601d      	str	r5, [r3, #0]
 8001192:	bd38      	pop	{r3, r4, r5, pc}
 8001194:	2001      	movs	r0, #1
 8001196:	e7fc      	b.n	8001192 <HAL_InitTick+0x36>
 8001198:	20000000 	.word	0x20000000
 800119c:	20000074 	.word	0x20000074
 80011a0:	20000004 	.word	0x20000004

080011a4 <HAL_Init>:
 80011a4:	4a07      	ldr	r2, [pc, #28]	; (80011c4 <HAL_Init+0x20>)
 80011a6:	b508      	push	{r3, lr}
 80011a8:	6813      	ldr	r3, [r2, #0]
 80011aa:	2003      	movs	r0, #3
 80011ac:	f043 0310 	orr.w	r3, r3, #16
 80011b0:	6013      	str	r3, [r2, #0]
 80011b2:	f000 fa55 	bl	8001660 <HAL_NVIC_SetPriorityGrouping>
 80011b6:	2000      	movs	r0, #0
 80011b8:	f7ff ffd0 	bl	800115c <HAL_InitTick>
 80011bc:	f005 f9ca 	bl	8006554 <HAL_MspInit>
 80011c0:	2000      	movs	r0, #0
 80011c2:	bd08      	pop	{r3, pc}
 80011c4:	40022000 	.word	0x40022000

080011c8 <HAL_IncTick>:
 80011c8:	4a03      	ldr	r2, [pc, #12]	; (80011d8 <HAL_IncTick+0x10>)
 80011ca:	4b04      	ldr	r3, [pc, #16]	; (80011dc <HAL_IncTick+0x14>)
 80011cc:	6811      	ldr	r1, [r2, #0]
 80011ce:	781b      	ldrb	r3, [r3, #0]
 80011d0:	440b      	add	r3, r1
 80011d2:	6013      	str	r3, [r2, #0]
 80011d4:	4770      	bx	lr
 80011d6:	bf00      	nop
 80011d8:	200005d8 	.word	0x200005d8
 80011dc:	20000000 	.word	0x20000000

080011e0 <HAL_GetTick>:
 80011e0:	4b01      	ldr	r3, [pc, #4]	; (80011e8 <HAL_GetTick+0x8>)
 80011e2:	6818      	ldr	r0, [r3, #0]
 80011e4:	4770      	bx	lr
 80011e6:	bf00      	nop
 80011e8:	200005d8 	.word	0x200005d8

080011ec <HAL_ADC_GetValue>:
 80011ec:	6803      	ldr	r3, [r0, #0]
 80011ee:	6cd8      	ldr	r0, [r3, #76]	; 0x4c
 80011f0:	4770      	bx	lr

080011f2 <HAL_ADC_LevelOutOfWindowCallback>:
 80011f2:	4770      	bx	lr

080011f4 <HAL_ADC_IRQHandler>:
 80011f4:	6803      	ldr	r3, [r0, #0]
 80011f6:	b510      	push	{r4, lr}
 80011f8:	685a      	ldr	r2, [r3, #4]
 80011fa:	4604      	mov	r4, r0
 80011fc:	0690      	lsls	r0, r2, #26
 80011fe:	d527      	bpl.n	8001250 <HAL_ADC_IRQHandler+0x5c>
 8001200:	681a      	ldr	r2, [r3, #0]
 8001202:	0791      	lsls	r1, r2, #30
 8001204:	d524      	bpl.n	8001250 <HAL_ADC_IRQHandler+0x5c>
 8001206:	6aa2      	ldr	r2, [r4, #40]	; 0x28
 8001208:	06d2      	lsls	r2, r2, #27
 800120a:	bf5e      	ittt	pl
 800120c:	6aa2      	ldrpl	r2, [r4, #40]	; 0x28
 800120e:	f442 7200 	orrpl.w	r2, r2, #512	; 0x200
 8001212:	62a2      	strpl	r2, [r4, #40]	; 0x28
 8001214:	689a      	ldr	r2, [r3, #8]
 8001216:	f402 2260 	and.w	r2, r2, #917504	; 0xe0000
 800121a:	f5b2 2f60 	cmp.w	r2, #917504	; 0xe0000
 800121e:	d110      	bne.n	8001242 <HAL_ADC_IRQHandler+0x4e>
 8001220:	7b22      	ldrb	r2, [r4, #12]
 8001222:	b972      	cbnz	r2, 8001242 <HAL_ADC_IRQHandler+0x4e>
 8001224:	685a      	ldr	r2, [r3, #4]
 8001226:	f022 0220 	bic.w	r2, r2, #32
 800122a:	605a      	str	r2, [r3, #4]
 800122c:	6aa3      	ldr	r3, [r4, #40]	; 0x28
 800122e:	f423 7380 	bic.w	r3, r3, #256	; 0x100
 8001232:	62a3      	str	r3, [r4, #40]	; 0x28
 8001234:	6aa3      	ldr	r3, [r4, #40]	; 0x28
 8001236:	04db      	lsls	r3, r3, #19
 8001238:	bf5e      	ittt	pl
 800123a:	6aa3      	ldrpl	r3, [r4, #40]	; 0x28
 800123c:	f043 0301 	orrpl.w	r3, r3, #1
 8001240:	62a3      	strpl	r3, [r4, #40]	; 0x28
 8001242:	4620      	mov	r0, r4
 8001244:	f005 fb24 	bl	8006890 <HAL_ADC_ConvCpltCallback>
 8001248:	f06f 0212 	mvn.w	r2, #18
 800124c:	6823      	ldr	r3, [r4, #0]
 800124e:	601a      	str	r2, [r3, #0]
 8001250:	6823      	ldr	r3, [r4, #0]
 8001252:	685a      	ldr	r2, [r3, #4]
 8001254:	0610      	lsls	r0, r2, #24
 8001256:	d530      	bpl.n	80012ba <HAL_ADC_IRQHandler+0xc6>
 8001258:	681a      	ldr	r2, [r3, #0]
 800125a:	0751      	lsls	r1, r2, #29
 800125c:	d52d      	bpl.n	80012ba <HAL_ADC_IRQHandler+0xc6>
 800125e:	6aa2      	ldr	r2, [r4, #40]	; 0x28
 8001260:	06d2      	lsls	r2, r2, #27
 8001262:	bf5e      	ittt	pl
 8001264:	6aa2      	ldrpl	r2, [r4, #40]	; 0x28
 8001266:	f442 5200 	orrpl.w	r2, r2, #8192	; 0x2000
 800126a:	62a2      	strpl	r2, [r4, #40]	; 0x28
 800126c:	689a      	ldr	r2, [r3, #8]
 800126e:	f402 42e0 	and.w	r2, r2, #28672	; 0x7000
 8001272:	f5b2 4fe0 	cmp.w	r2, #28672	; 0x7000
 8001276:	d00a      	beq.n	800128e <HAL_ADC_IRQHandler+0x9a>
 8001278:	685a      	ldr	r2, [r3, #4]
 800127a:	0550      	lsls	r0, r2, #21
 800127c:	d416      	bmi.n	80012ac <HAL_ADC_IRQHandler+0xb8>
 800127e:	689a      	ldr	r2, [r3, #8]
 8001280:	f402 2260 	and.w	r2, r2, #917504	; 0xe0000
 8001284:	f5b2 2f60 	cmp.w	r2, #917504	; 0xe0000
 8001288:	d110      	bne.n	80012ac <HAL_ADC_IRQHandler+0xb8>
 800128a:	7b22      	ldrb	r2, [r4, #12]
 800128c:	b972      	cbnz	r2, 80012ac <HAL_ADC_IRQHandler+0xb8>
 800128e:	685a      	ldr	r2, [r3, #4]
 8001290:	f022 0280 	bic.w	r2, r2, #128	; 0x80
 8001294:	605a      	str	r2, [r3, #4]
 8001296:	6aa3      	ldr	r3, [r4, #40]	; 0x28
 8001298:	f423 5380 	bic.w	r3, r3, #4096	; 0x1000
 800129c:	62a3      	str	r3, [r4, #40]	; 0x28
 800129e:	6aa3      	ldr	r3, [r4, #40]	; 0x28
 80012a0:	05d9      	lsls	r1, r3, #23
 80012a2:	bf5e      	ittt	pl
 80012a4:	6aa3      	ldrpl	r3, [r4, #40]	; 0x28
 80012a6:	f043 0301 	orrpl.w	r3, r3, #1
 80012aa:	62a3      	strpl	r3, [r4, #40]	; 0x28
 80012ac:	4620      	mov	r0, r4
 80012ae:	f000 f9d5 	bl	800165c <HAL_ADCEx_InjectedConvCpltCallback>
 80012b2:	f06f 020c 	mvn.w	r2, #12
 80012b6:	6823      	ldr	r3, [r4, #0]
 80012b8:	601a      	str	r2, [r3, #0]
 80012ba:	6823      	ldr	r3, [r4, #0]
 80012bc:	685a      	ldr	r2, [r3, #4]
 80012be:	0652      	lsls	r2, r2, #25
 80012c0:	d50d      	bpl.n	80012de <HAL_ADC_IRQHandler+0xea>
 80012c2:	681b      	ldr	r3, [r3, #0]
 80012c4:	07db      	lsls	r3, r3, #31
 80012c6:	d50a      	bpl.n	80012de <HAL_ADC_IRQHandler+0xea>
 80012c8:	6aa3      	ldr	r3, [r4, #40]	; 0x28
 80012ca:	4620      	mov	r0, r4
 80012cc:	f443 3380 	orr.w	r3, r3, #65536	; 0x10000
 80012d0:	62a3      	str	r3, [r4, #40]	; 0x28
 80012d2:	f7ff ff8e 	bl	80011f2 <HAL_ADC_LevelOutOfWindowCallback>
 80012d6:	f06f 0201 	mvn.w	r2, #1
 80012da:	6823      	ldr	r3, [r4, #0]
 80012dc:	601a      	str	r2, [r3, #0]
 80012de:	bd10      	pop	{r4, pc}

080012e0 <HAL_ADC_ConfigChannel>:
 80012e0:	2300      	movs	r3, #0
 80012e2:	b573      	push	{r0, r1, r4, r5, r6, lr}
 80012e4:	9301      	str	r3, [sp, #4]
 80012e6:	f890 3024 	ldrb.w	r3, [r0, #36]	; 0x24
 80012ea:	2b01      	cmp	r3, #1
 80012ec:	d06d      	beq.n	80013ca <HAL_ADC_ConfigChannel+0xea>
 80012ee:	2301      	movs	r3, #1
 80012f0:	684d      	ldr	r5, [r1, #4]
 80012f2:	f880 3024 	strb.w	r3, [r0, #36]	; 0x24
 80012f6:	2d06      	cmp	r5, #6
 80012f8:	6802      	ldr	r2, [r0, #0]
 80012fa:	eb05 0385 	add.w	r3, r5, r5, lsl #2
 80012fe:	680c      	ldr	r4, [r1, #0]
 8001300:	d823      	bhi.n	800134a <HAL_ADC_ConfigChannel+0x6a>
 8001302:	261f      	movs	r6, #31
 8001304:	6b55      	ldr	r5, [r2, #52]	; 0x34
 8001306:	3b05      	subs	r3, #5
 8001308:	409e      	lsls	r6, r3
 800130a:	ea25 0506 	bic.w	r5, r5, r6
 800130e:	fa04 f303 	lsl.w	r3, r4, r3
 8001312:	432b      	orrs	r3, r5
 8001314:	6353      	str	r3, [r2, #52]	; 0x34
 8001316:	2c09      	cmp	r4, #9
 8001318:	688b      	ldr	r3, [r1, #8]
 800131a:	eb04 0544 	add.w	r5, r4, r4, lsl #1
 800131e:	f04f 0107 	mov.w	r1, #7
 8001322:	d92a      	bls.n	800137a <HAL_ADC_ConfigChannel+0x9a>
 8001324:	68d6      	ldr	r6, [r2, #12]
 8001326:	3d1e      	subs	r5, #30
 8001328:	40a9      	lsls	r1, r5
 800132a:	ea26 0101 	bic.w	r1, r6, r1
 800132e:	40ab      	lsls	r3, r5
 8001330:	430b      	orrs	r3, r1
 8001332:	60d3      	str	r3, [r2, #12]
 8001334:	f1a4 0310 	sub.w	r3, r4, #16
 8001338:	2b01      	cmp	r3, #1
 800133a:	d926      	bls.n	800138a <HAL_ADC_ConfigChannel+0xaa>
 800133c:	2300      	movs	r3, #0
 800133e:	2200      	movs	r2, #0
 8001340:	f880 2024 	strb.w	r2, [r0, #36]	; 0x24
 8001344:	4618      	mov	r0, r3
 8001346:	b002      	add	sp, #8
 8001348:	bd70      	pop	{r4, r5, r6, pc}
 800134a:	2d0c      	cmp	r5, #12
 800134c:	f04f 051f 	mov.w	r5, #31
 8001350:	d809      	bhi.n	8001366 <HAL_ADC_ConfigChannel+0x86>
 8001352:	6b16      	ldr	r6, [r2, #48]	; 0x30
 8001354:	3b23      	subs	r3, #35	; 0x23
 8001356:	409d      	lsls	r5, r3
 8001358:	ea26 0505 	bic.w	r5, r6, r5
 800135c:	fa04 f303 	lsl.w	r3, r4, r3
 8001360:	432b      	orrs	r3, r5
 8001362:	6313      	str	r3, [r2, #48]	; 0x30
 8001364:	e7d7      	b.n	8001316 <HAL_ADC_ConfigChannel+0x36>
 8001366:	6ad6      	ldr	r6, [r2, #44]	; 0x2c
 8001368:	3b41      	subs	r3, #65	; 0x41
 800136a:	409d      	lsls	r5, r3
 800136c:	ea26 0505 	bic.w	r5, r6, r5
 8001370:	fa04 f303 	lsl.w	r3, r4, r3
 8001374:	432b      	orrs	r3, r5
 8001376:	62d3      	str	r3, [r2, #44]	; 0x2c
 8001378:	e7cd      	b.n	8001316 <HAL_ADC_ConfigChannel+0x36>
 800137a:	6916      	ldr	r6, [r2, #16]
 800137c:	40a9      	lsls	r1, r5
 800137e:	ea26 0101 	bic.w	r1, r6, r1
 8001382:	40ab      	lsls	r3, r5
 8001384:	430b      	orrs	r3, r1
 8001386:	6113      	str	r3, [r2, #16]
 8001388:	e7d4      	b.n	8001334 <HAL_ADC_ConfigChannel+0x54>
 800138a:	4b11      	ldr	r3, [pc, #68]	; (80013d0 <HAL_ADC_ConfigChannel+0xf0>)
 800138c:	429a      	cmp	r2, r3
 800138e:	d116      	bne.n	80013be <HAL_ADC_ConfigChannel+0xde>
 8001390:	6893      	ldr	r3, [r2, #8]
 8001392:	021b      	lsls	r3, r3, #8
 8001394:	d4d2      	bmi.n	800133c <HAL_ADC_ConfigChannel+0x5c>
 8001396:	6893      	ldr	r3, [r2, #8]
 8001398:	2c10      	cmp	r4, #16
 800139a:	f443 0300 	orr.w	r3, r3, #8388608	; 0x800000
 800139e:	6093      	str	r3, [r2, #8]
 80013a0:	d1cc      	bne.n	800133c <HAL_ADC_ConfigChannel+0x5c>
 80013a2:	4b0c      	ldr	r3, [pc, #48]	; (80013d4 <HAL_ADC_ConfigChannel+0xf4>)
 80013a4:	4a0c      	ldr	r2, [pc, #48]	; (80013d8 <HAL_ADC_ConfigChannel+0xf8>)
 80013a6:	681b      	ldr	r3, [r3, #0]
 80013a8:	fbb3 f2f2 	udiv	r2, r3, r2
 80013ac:	230a      	movs	r3, #10
 80013ae:	4353      	muls	r3, r2
 80013b0:	9301      	str	r3, [sp, #4]
 80013b2:	9b01      	ldr	r3, [sp, #4]
 80013b4:	2b00      	cmp	r3, #0
 80013b6:	d0c1      	beq.n	800133c <HAL_ADC_ConfigChannel+0x5c>
 80013b8:	9b01      	ldr	r3, [sp, #4]
 80013ba:	3b01      	subs	r3, #1
 80013bc:	e7f8      	b.n	80013b0 <HAL_ADC_ConfigChannel+0xd0>
 80013be:	6a83      	ldr	r3, [r0, #40]	; 0x28
 80013c0:	f043 0320 	orr.w	r3, r3, #32
 80013c4:	6283      	str	r3, [r0, #40]	; 0x28
 80013c6:	2301      	movs	r3, #1
 80013c8:	e7b9      	b.n	800133e <HAL_ADC_ConfigChannel+0x5e>
 80013ca:	2302      	movs	r3, #2
 80013cc:	e7ba      	b.n	8001344 <HAL_ADC_ConfigChannel+0x64>
 80013ce:	bf00      	nop
 80013d0:	40012400 	.word	0x40012400
 80013d4:	20000074 	.word	0x20000074
 80013d8:	000f4240 	.word	0x000f4240

080013dc <ADC_Enable>:
 80013dc:	2300      	movs	r3, #0
 80013de:	b573      	push	{r0, r1, r4, r5, r6, lr}
 80013e0:	9301      	str	r3, [sp, #4]
 80013e2:	6803      	ldr	r3, [r0, #0]
 80013e4:	4604      	mov	r4, r0
 80013e6:	689a      	ldr	r2, [r3, #8]
 80013e8:	07d2      	lsls	r2, r2, #31
 80013ea:	d502      	bpl.n	80013f2 <ADC_Enable+0x16>
 80013ec:	2000      	movs	r0, #0
 80013ee:	b002      	add	sp, #8
 80013f0:	bd70      	pop	{r4, r5, r6, pc}
 80013f2:	689a      	ldr	r2, [r3, #8]
 80013f4:	f042 0201 	orr.w	r2, r2, #1
 80013f8:	609a      	str	r2, [r3, #8]
 80013fa:	4b12      	ldr	r3, [pc, #72]	; (8001444 <ADC_Enable+0x68>)
 80013fc:	4a12      	ldr	r2, [pc, #72]	; (8001448 <ADC_Enable+0x6c>)
 80013fe:	681b      	ldr	r3, [r3, #0]
 8001400:	fbb3 f3f2 	udiv	r3, r3, r2
 8001404:	9301      	str	r3, [sp, #4]
 8001406:	9b01      	ldr	r3, [sp, #4]
 8001408:	b9c3      	cbnz	r3, 800143c <ADC_Enable+0x60>
 800140a:	f7ff fee9 	bl	80011e0 <HAL_GetTick>
 800140e:	4606      	mov	r6, r0
 8001410:	6823      	ldr	r3, [r4, #0]
 8001412:	689d      	ldr	r5, [r3, #8]
 8001414:	f015 0501 	ands.w	r5, r5, #1
 8001418:	d1e8      	bne.n	80013ec <ADC_Enable+0x10>
 800141a:	f7ff fee1 	bl	80011e0 <HAL_GetTick>
 800141e:	1b80      	subs	r0, r0, r6
 8001420:	2802      	cmp	r0, #2
 8001422:	d9f5      	bls.n	8001410 <ADC_Enable+0x34>
 8001424:	6aa3      	ldr	r3, [r4, #40]	; 0x28
 8001426:	f884 5024 	strb.w	r5, [r4, #36]	; 0x24
 800142a:	f043 0310 	orr.w	r3, r3, #16
 800142e:	62a3      	str	r3, [r4, #40]	; 0x28
 8001430:	6ae3      	ldr	r3, [r4, #44]	; 0x2c
 8001432:	2001      	movs	r0, #1
 8001434:	f043 0301 	orr.w	r3, r3, #1
 8001438:	62e3      	str	r3, [r4, #44]	; 0x2c
 800143a:	e7d8      	b.n	80013ee <ADC_Enable+0x12>
 800143c:	9b01      	ldr	r3, [sp, #4]
 800143e:	3b01      	subs	r3, #1
 8001440:	e7e0      	b.n	8001404 <ADC_Enable+0x28>
 8001442:	bf00      	nop
 8001444:	20000074 	.word	0x20000074
 8001448:	000f4240 	.word	0x000f4240

0800144c <HAL_ADC_Start_IT>:
 800144c:	f890 3024 	ldrb.w	r3, [r0, #36]	; 0x24
 8001450:	b510      	push	{r4, lr}
 8001452:	2b01      	cmp	r3, #1
 8001454:	4604      	mov	r4, r0
 8001456:	d058      	beq.n	800150a <HAL_ADC_Start_IT+0xbe>
 8001458:	2301      	movs	r3, #1
 800145a:	f880 3024 	strb.w	r3, [r0, #36]	; 0x24
 800145e:	f7ff ffbd 	bl	80013dc <ADC_Enable>
 8001462:	2800      	cmp	r0, #0
 8001464:	d14d      	bne.n	8001502 <HAL_ADC_Start_IT+0xb6>
 8001466:	6aa3      	ldr	r3, [r4, #40]	; 0x28
 8001468:	4a29      	ldr	r2, [pc, #164]	; (8001510 <HAL_ADC_Start_IT+0xc4>)
 800146a:	f423 6370 	bic.w	r3, r3, #3840	; 0xf00
 800146e:	f023 0301 	bic.w	r3, r3, #1
 8001472:	f443 7380 	orr.w	r3, r3, #256	; 0x100
 8001476:	62a3      	str	r3, [r4, #40]	; 0x28
 8001478:	6823      	ldr	r3, [r4, #0]
 800147a:	4293      	cmp	r3, r2
 800147c:	d104      	bne.n	8001488 <HAL_ADC_Start_IT+0x3c>
 800147e:	4925      	ldr	r1, [pc, #148]	; (8001514 <HAL_ADC_Start_IT+0xc8>)
 8001480:	684a      	ldr	r2, [r1, #4]
 8001482:	f412 2f70 	tst.w	r2, #983040	; 0xf0000
 8001486:	d132      	bne.n	80014ee <HAL_ADC_Start_IT+0xa2>
 8001488:	6aa2      	ldr	r2, [r4, #40]	; 0x28
 800148a:	f422 1280 	bic.w	r2, r2, #1048576	; 0x100000
 800148e:	62a2      	str	r2, [r4, #40]	; 0x28
 8001490:	685a      	ldr	r2, [r3, #4]
 8001492:	0552      	lsls	r2, r2, #21
 8001494:	bf41      	itttt	mi
 8001496:	6aa2      	ldrmi	r2, [r4, #40]	; 0x28
 8001498:	f422 5240 	bicmi.w	r2, r2, #12288	; 0x3000
 800149c:	f442 5280 	orrmi.w	r2, r2, #4096	; 0x1000
 80014a0:	62a2      	strmi	r2, [r4, #40]	; 0x28
 80014a2:	6aa2      	ldr	r2, [r4, #40]	; 0x28
 80014a4:	f412 5280 	ands.w	r2, r2, #4096	; 0x1000
 80014a8:	bf1c      	itt	ne
 80014aa:	6ae2      	ldrne	r2, [r4, #44]	; 0x2c
 80014ac:	f022 0206 	bicne.w	r2, r2, #6
 80014b0:	62e2      	str	r2, [r4, #44]	; 0x2c
 80014b2:	2200      	movs	r2, #0
 80014b4:	f884 2024 	strb.w	r2, [r4, #36]	; 0x24
 80014b8:	f06f 0202 	mvn.w	r2, #2
 80014bc:	601a      	str	r2, [r3, #0]
 80014be:	685a      	ldr	r2, [r3, #4]
 80014c0:	f042 0220 	orr.w	r2, r2, #32
 80014c4:	605a      	str	r2, [r3, #4]
 80014c6:	689a      	ldr	r2, [r3, #8]
 80014c8:	f402 2260 	and.w	r2, r2, #917504	; 0xe0000
 80014cc:	f5b2 2f60 	cmp.w	r2, #917504	; 0xe0000
 80014d0:	d113      	bne.n	80014fa <HAL_ADC_Start_IT+0xae>
 80014d2:	4a0f      	ldr	r2, [pc, #60]	; (8001510 <HAL_ADC_Start_IT+0xc4>)
 80014d4:	4293      	cmp	r3, r2
 80014d6:	d105      	bne.n	80014e4 <HAL_ADC_Start_IT+0x98>
 80014d8:	f5a2 6280 	sub.w	r2, r2, #1024	; 0x400
 80014dc:	6852      	ldr	r2, [r2, #4]
 80014de:	f412 2f70 	tst.w	r2, #983040	; 0xf0000
 80014e2:	d10a      	bne.n	80014fa <HAL_ADC_Start_IT+0xae>
 80014e4:	689a      	ldr	r2, [r3, #8]
 80014e6:	f442 02a0 	orr.w	r2, r2, #5242880	; 0x500000
 80014ea:	609a      	str	r2, [r3, #8]
 80014ec:	bd10      	pop	{r4, pc}
 80014ee:	6aa2      	ldr	r2, [r4, #40]	; 0x28
 80014f0:	f442 1280 	orr.w	r2, r2, #1048576	; 0x100000
 80014f4:	62a2      	str	r2, [r4, #40]	; 0x28
 80014f6:	684a      	ldr	r2, [r1, #4]
 80014f8:	e7cb      	b.n	8001492 <HAL_ADC_Start_IT+0x46>
 80014fa:	689a      	ldr	r2, [r3, #8]
 80014fc:	f442 1280 	orr.w	r2, r2, #1048576	; 0x100000
 8001500:	e7f3      	b.n	80014ea <HAL_ADC_Start_IT+0x9e>
 8001502:	2300      	movs	r3, #0
 8001504:	f884 3024 	strb.w	r3, [r4, #36]	; 0x24
 8001508:	e7f0      	b.n	80014ec <HAL_ADC_Start_IT+0xa0>
 800150a:	2002      	movs	r0, #2
 800150c:	e7ee      	b.n	80014ec <HAL_ADC_Start_IT+0xa0>
 800150e:	bf00      	nop
 8001510:	40012800 	.word	0x40012800
 8001514:	40012400 	.word	0x40012400

08001518 <ADC_ConversionStop_Disable>:
 8001518:	b538      	push	{r3, r4, r5, lr}
 800151a:	6803      	ldr	r3, [r0, #0]
 800151c:	4604      	mov	r4, r0
 800151e:	689a      	ldr	r2, [r3, #8]
 8001520:	07d2      	lsls	r2, r2, #31
 8001522:	d401      	bmi.n	8001528 <ADC_ConversionStop_Disable+0x10>
 8001524:	2000      	movs	r0, #0
 8001526:	bd38      	pop	{r3, r4, r5, pc}
 8001528:	689a      	ldr	r2, [r3, #8]
 800152a:	f022 0201 	bic.w	r2, r2, #1
 800152e:	609a      	str	r2, [r3, #8]
 8001530:	f7ff fe56 	bl	80011e0 <HAL_GetTick>
 8001534:	4605      	mov	r5, r0
 8001536:	6823      	ldr	r3, [r4, #0]
 8001538:	689b      	ldr	r3, [r3, #8]
 800153a:	07db      	lsls	r3, r3, #31
 800153c:	d5f2      	bpl.n	8001524 <ADC_ConversionStop_Disable+0xc>
 800153e:	f7ff fe4f 	bl	80011e0 <HAL_GetTick>
 8001542:	1b40      	subs	r0, r0, r5
 8001544:	2802      	cmp	r0, #2
 8001546:	d9f6      	bls.n	8001536 <ADC_ConversionStop_Disable+0x1e>
 8001548:	6aa3      	ldr	r3, [r4, #40]	; 0x28
 800154a:	2001      	movs	r0, #1
 800154c:	f043 0310 	orr.w	r3, r3, #16
 8001550:	62a3      	str	r3, [r4, #40]	; 0x28
 8001552:	6ae3      	ldr	r3, [r4, #44]	; 0x2c
 8001554:	f043 0301 	orr.w	r3, r3, #1
 8001558:	62e3      	str	r3, [r4, #44]	; 0x2c
 800155a:	e7e4      	b.n	8001526 <ADC_ConversionStop_Disable+0xe>

0800155c <HAL_ADC_Init>:
 800155c:	b570      	push	{r4, r5, r6, lr}
 800155e:	4604      	mov	r4, r0
 8001560:	2800      	cmp	r0, #0
 8001562:	d070      	beq.n	8001646 <HAL_ADC_Init+0xea>
 8001564:	6a83      	ldr	r3, [r0, #40]	; 0x28
 8001566:	b923      	cbnz	r3, 8001572 <HAL_ADC_Init+0x16>
 8001568:	62c3      	str	r3, [r0, #44]	; 0x2c
 800156a:	f880 3024 	strb.w	r3, [r0, #36]	; 0x24
 800156e:	f005 f813 	bl	8006598 <HAL_ADC_MspInit>
 8001572:	4620      	mov	r0, r4
 8001574:	f7ff ffd0 	bl	8001518 <ADC_ConversionStop_Disable>
 8001578:	6aa3      	ldr	r3, [r4, #40]	; 0x28
 800157a:	f013 0f10 	tst.w	r3, #16
 800157e:	6aa3      	ldr	r3, [r4, #40]	; 0x28
 8001580:	d163      	bne.n	800164a <HAL_ADC_Init+0xee>
 8001582:	2800      	cmp	r0, #0
 8001584:	d161      	bne.n	800164a <HAL_ADC_Init+0xee>
 8001586:	69e1      	ldr	r1, [r4, #28]
 8001588:	f423 5388 	bic.w	r3, r3, #4352	; 0x1100
 800158c:	6862      	ldr	r2, [r4, #4]
 800158e:	f023 0302 	bic.w	r3, r3, #2
 8001592:	f043 0302 	orr.w	r3, r3, #2
 8001596:	430a      	orrs	r2, r1
 8001598:	68a1      	ldr	r1, [r4, #8]
 800159a:	62a3      	str	r3, [r4, #40]	; 0x28
 800159c:	7b23      	ldrb	r3, [r4, #12]
 800159e:	f5b1 7f80 	cmp.w	r1, #256	; 0x100
 80015a2:	ea42 0243 	orr.w	r2, r2, r3, lsl #1
 80015a6:	d037      	beq.n	8001618 <HAL_ADC_Init+0xbc>
 80015a8:	2901      	cmp	r1, #1
 80015aa:	bf14      	ite	ne
 80015ac:	4606      	movne	r6, r0
 80015ae:	f44f 7680 	moveq.w	r6, #256	; 0x100
 80015b2:	7d25      	ldrb	r5, [r4, #20]
 80015b4:	2d01      	cmp	r5, #1
 80015b6:	d106      	bne.n	80015c6 <HAL_ADC_Init+0x6a>
 80015b8:	bb83      	cbnz	r3, 800161c <HAL_ADC_Init+0xc0>
 80015ba:	69a3      	ldr	r3, [r4, #24]
 80015bc:	3b01      	subs	r3, #1
 80015be:	ea46 3543 	orr.w	r5, r6, r3, lsl #13
 80015c2:	f445 6600 	orr.w	r6, r5, #2048	; 0x800
 80015c6:	6823      	ldr	r3, [r4, #0]
 80015c8:	f5b1 7f80 	cmp.w	r1, #256	; 0x100
 80015cc:	685d      	ldr	r5, [r3, #4]
 80015ce:	f425 4569 	bic.w	r5, r5, #59648	; 0xe900
 80015d2:	ea45 0506 	orr.w	r5, r5, r6
 80015d6:	605d      	str	r5, [r3, #4]
 80015d8:	689e      	ldr	r6, [r3, #8]
 80015da:	4d1e      	ldr	r5, [pc, #120]	; (8001654 <HAL_ADC_Init+0xf8>)
 80015dc:	ea05 0506 	and.w	r5, r5, r6
 80015e0:	ea45 0502 	orr.w	r5, r5, r2
 80015e4:	609d      	str	r5, [r3, #8]
 80015e6:	d001      	beq.n	80015ec <HAL_ADC_Init+0x90>
 80015e8:	2901      	cmp	r1, #1
 80015ea:	d120      	bne.n	800162e <HAL_ADC_Init+0xd2>
 80015ec:	6921      	ldr	r1, [r4, #16]
 80015ee:	3901      	subs	r1, #1
 80015f0:	0509      	lsls	r1, r1, #20
 80015f2:	6add      	ldr	r5, [r3, #44]	; 0x2c
 80015f4:	f425 0570 	bic.w	r5, r5, #15728640	; 0xf00000
 80015f8:	4329      	orrs	r1, r5
 80015fa:	62d9      	str	r1, [r3, #44]	; 0x2c
 80015fc:	6899      	ldr	r1, [r3, #8]
 80015fe:	4b16      	ldr	r3, [pc, #88]	; (8001658 <HAL_ADC_Init+0xfc>)
 8001600:	400b      	ands	r3, r1
 8001602:	429a      	cmp	r2, r3
 8001604:	d115      	bne.n	8001632 <HAL_ADC_Init+0xd6>
 8001606:	2300      	movs	r3, #0
 8001608:	62e3      	str	r3, [r4, #44]	; 0x2c
 800160a:	6aa3      	ldr	r3, [r4, #40]	; 0x28
 800160c:	f023 0303 	bic.w	r3, r3, #3
 8001610:	f043 0301 	orr.w	r3, r3, #1
 8001614:	62a3      	str	r3, [r4, #40]	; 0x28
 8001616:	bd70      	pop	{r4, r5, r6, pc}
 8001618:	460e      	mov	r6, r1
 800161a:	e7ca      	b.n	80015b2 <HAL_ADC_Init+0x56>
 800161c:	6aa3      	ldr	r3, [r4, #40]	; 0x28
 800161e:	f043 0320 	orr.w	r3, r3, #32
 8001622:	62a3      	str	r3, [r4, #40]	; 0x28
 8001624:	6ae3      	ldr	r3, [r4, #44]	; 0x2c
 8001626:	f043 0301 	orr.w	r3, r3, #1
 800162a:	62e3      	str	r3, [r4, #44]	; 0x2c
 800162c:	e7cb      	b.n	80015c6 <HAL_ADC_Init+0x6a>
 800162e:	2100      	movs	r1, #0
 8001630:	e7df      	b.n	80015f2 <HAL_ADC_Init+0x96>
 8001632:	6aa3      	ldr	r3, [r4, #40]	; 0x28
 8001634:	f023 0312 	bic.w	r3, r3, #18
 8001638:	f043 0310 	orr.w	r3, r3, #16
 800163c:	62a3      	str	r3, [r4, #40]	; 0x28
 800163e:	6ae3      	ldr	r3, [r4, #44]	; 0x2c
 8001640:	f043 0301 	orr.w	r3, r3, #1
 8001644:	62e3      	str	r3, [r4, #44]	; 0x2c
 8001646:	2001      	movs	r0, #1
 8001648:	e7e5      	b.n	8001616 <HAL_ADC_Init+0xba>
 800164a:	f043 0310 	orr.w	r3, r3, #16
 800164e:	62a3      	str	r3, [r4, #40]	; 0x28
 8001650:	e7f9      	b.n	8001646 <HAL_ADC_Init+0xea>
 8001652:	bf00      	nop
 8001654:	ffe1f7fd 	.word	0xffe1f7fd
 8001658:	ff1f0efe 	.word	0xff1f0efe

0800165c <HAL_ADCEx_InjectedConvCpltCallback>:
 800165c:	4770      	bx	lr
	...

08001660 <HAL_NVIC_SetPriorityGrouping>:
 8001660:	4a07      	ldr	r2, [pc, #28]	; (8001680 <HAL_NVIC_SetPriorityGrouping+0x20>)
 8001662:	0200      	lsls	r0, r0, #8
 8001664:	68d3      	ldr	r3, [r2, #12]
 8001666:	f400 60e0 	and.w	r0, r0, #1792	; 0x700
 800166a:	f423 63e0 	bic.w	r3, r3, #1792	; 0x700
 800166e:	041b      	lsls	r3, r3, #16
 8001670:	0c1b      	lsrs	r3, r3, #16
 8001672:	f043 63bf 	orr.w	r3, r3, #100139008	; 0x5f80000
 8001676:	f443 3300 	orr.w	r3, r3, #131072	; 0x20000
 800167a:	4303      	orrs	r3, r0
 800167c:	60d3      	str	r3, [r2, #12]
 800167e:	4770      	bx	lr
 8001680:	e000ed00 	.word	0xe000ed00

08001684 <HAL_NVIC_SetPriority>:
 8001684:	4b17      	ldr	r3, [pc, #92]	; (80016e4 <HAL_NVIC_SetPriority+0x60>)
 8001686:	b570      	push	{r4, r5, r6, lr}
 8001688:	68dc      	ldr	r4, [r3, #12]
 800168a:	f04f 36ff 	mov.w	r6, #4294967295
 800168e:	f3c4 2402 	ubfx	r4, r4, #8, #3
 8001692:	f1c4 0507 	rsb	r5, r4, #7
 8001696:	2d04      	cmp	r5, #4
 8001698:	f104 0304 	add.w	r3, r4, #4
 800169c:	bf28      	it	cs
 800169e:	2504      	movcs	r5, #4
 80016a0:	2b06      	cmp	r3, #6
 80016a2:	bf98      	it	ls
 80016a4:	2400      	movls	r4, #0
 80016a6:	fa06 f305 	lsl.w	r3, r6, r5
 80016aa:	bf88      	it	hi
 80016ac:	3c03      	subhi	r4, #3
 80016ae:	ea21 0303 	bic.w	r3, r1, r3
 80016b2:	40a3      	lsls	r3, r4
 80016b4:	fa06 f404 	lsl.w	r4, r6, r4
 80016b8:	ea22 0404 	bic.w	r4, r2, r4
 80016bc:	2800      	cmp	r0, #0
 80016be:	ea43 0304 	orr.w	r3, r3, r4
 80016c2:	bfa8      	it	ge
 80016c4:	f100 4060 	addge.w	r0, r0, #3758096384	; 0xe0000000
 80016c8:	ea4f 1303 	mov.w	r3, r3, lsl #4
 80016cc:	bfb8      	it	lt
 80016ce:	4a06      	ldrlt	r2, [pc, #24]	; (80016e8 <HAL_NVIC_SetPriority+0x64>)
 80016d0:	b2db      	uxtb	r3, r3
 80016d2:	bfab      	itete	ge
 80016d4:	f500 4061 	addge.w	r0, r0, #57600	; 0xe100
 80016d8:	f000 000f 	andlt.w	r0, r0, #15
 80016dc:	f880 3300 	strbge.w	r3, [r0, #768]	; 0x300
 80016e0:	5413      	strblt	r3, [r2, r0]
 80016e2:	bd70      	pop	{r4, r5, r6, pc}
 80016e4:	e000ed00 	.word	0xe000ed00
 80016e8:	e000ed14 	.word	0xe000ed14

080016ec <HAL_NVIC_EnableIRQ>:
 80016ec:	2800      	cmp	r0, #0
 80016ee:	db08      	blt.n	8001702 <HAL_NVIC_EnableIRQ+0x16>
 80016f0:	2301      	movs	r3, #1
 80016f2:	0942      	lsrs	r2, r0, #5
 80016f4:	f000 001f 	and.w	r0, r0, #31
 80016f8:	fa03 f000 	lsl.w	r0, r3, r0
 80016fc:	4b01      	ldr	r3, [pc, #4]	; (8001704 <HAL_NVIC_EnableIRQ+0x18>)
 80016fe:	f843 0022 	str.w	r0, [r3, r2, lsl #2]
 8001702:	4770      	bx	lr
 8001704:	e000e100 	.word	0xe000e100

08001708 <HAL_SYSTICK_Config>:
 8001708:	3801      	subs	r0, #1
 800170a:	f1b0 7f80 	cmp.w	r0, #16777216	; 0x1000000
 800170e:	d20a      	bcs.n	8001726 <HAL_SYSTICK_Config+0x1e>
 8001710:	21f0      	movs	r1, #240	; 0xf0
 8001712:	4b06      	ldr	r3, [pc, #24]	; (800172c <HAL_SYSTICK_Config+0x24>)
 8001714:	4a06      	ldr	r2, [pc, #24]	; (8001730 <HAL_SYSTICK_Config+0x28>)
 8001716:	6058      	str	r0, [r3, #4]
 8001718:	f882 1023 	strb.w	r1, [r2, #35]	; 0x23
 800171c:	2000      	movs	r0, #0
 800171e:	2207      	movs	r2, #7
 8001720:	6098      	str	r0, [r3, #8]
 8001722:	601a      	str	r2, [r3, #0]
 8001724:	4770      	bx	lr
 8001726:	2001      	movs	r0, #1
 8001728:	4770      	bx	lr
 800172a:	bf00      	nop
 800172c:	e000e010 	.word	0xe000e010
 8001730:	e000ed00 	.word	0xe000ed00

08001734 <HAL_DMA_Init>:
 8001734:	b510      	push	{r4, lr}
 8001736:	b330      	cbz	r0, 8001786 <HAL_DMA_Init+0x52>
 8001738:	2214      	movs	r2, #20
 800173a:	6801      	ldr	r1, [r0, #0]
 800173c:	4b13      	ldr	r3, [pc, #76]	; (800178c <HAL_DMA_Init+0x58>)
 800173e:	440b      	add	r3, r1
 8001740:	fbb3 f3f2 	udiv	r3, r3, r2
 8001744:	009b      	lsls	r3, r3, #2
 8001746:	6403      	str	r3, [r0, #64]	; 0x40
 8001748:	4b11      	ldr	r3, [pc, #68]	; (8001790 <HAL_DMA_Init+0x5c>)
 800174a:	680a      	ldr	r2, [r1, #0]
 800174c:	63c3      	str	r3, [r0, #60]	; 0x3c
 800174e:	e9d0 3401 	ldrd	r3, r4, [r0, #4]
 8001752:	4323      	orrs	r3, r4
 8001754:	68c4      	ldr	r4, [r0, #12]
 8001756:	f422 527f 	bic.w	r2, r2, #16320	; 0x3fc0
 800175a:	4323      	orrs	r3, r4
 800175c:	6904      	ldr	r4, [r0, #16]
 800175e:	f022 0230 	bic.w	r2, r2, #48	; 0x30
 8001762:	4323      	orrs	r3, r4
 8001764:	6944      	ldr	r4, [r0, #20]
 8001766:	4323      	orrs	r3, r4
 8001768:	6984      	ldr	r4, [r0, #24]
 800176a:	4323      	orrs	r3, r4
 800176c:	69c4      	ldr	r4, [r0, #28]
 800176e:	4323      	orrs	r3, r4
 8001770:	4313      	orrs	r3, r2
 8001772:	600b      	str	r3, [r1, #0]
 8001774:	2201      	movs	r2, #1
 8001776:	2300      	movs	r3, #0
 8001778:	f880 2021 	strb.w	r2, [r0, #33]	; 0x21
 800177c:	6383      	str	r3, [r0, #56]	; 0x38
 800177e:	f880 3020 	strb.w	r3, [r0, #32]
 8001782:	4618      	mov	r0, r3
 8001784:	bd10      	pop	{r4, pc}
 8001786:	2001      	movs	r0, #1
 8001788:	e7fc      	b.n	8001784 <HAL_DMA_Init+0x50>
 800178a:	bf00      	nop
 800178c:	bffdfff8 	.word	0xbffdfff8
 8001790:	40020000 	.word	0x40020000

08001794 <HAL_DMA_Start_IT>:
 8001794:	b5f0      	push	{r4, r5, r6, r7, lr}
 8001796:	f890 4020 	ldrb.w	r4, [r0, #32]
 800179a:	2c01      	cmp	r4, #1
 800179c:	d035      	beq.n	800180a <HAL_DMA_Start_IT+0x76>
 800179e:	2401      	movs	r4, #1
 80017a0:	f890 5021 	ldrb.w	r5, [r0, #33]	; 0x21
 80017a4:	f880 4020 	strb.w	r4, [r0, #32]
 80017a8:	42a5      	cmp	r5, r4
 80017aa:	f04f 0600 	mov.w	r6, #0
 80017ae:	f04f 0402 	mov.w	r4, #2
 80017b2:	d128      	bne.n	8001806 <HAL_DMA_Start_IT+0x72>
 80017b4:	f880 4021 	strb.w	r4, [r0, #33]	; 0x21
 80017b8:	6804      	ldr	r4, [r0, #0]
 80017ba:	6386      	str	r6, [r0, #56]	; 0x38
 80017bc:	6826      	ldr	r6, [r4, #0]
 80017be:	f026 0601 	bic.w	r6, r6, #1
 80017c2:	6026      	str	r6, [r4, #0]
 80017c4:	e9d0 670f 	ldrd	r6, r7, [r0, #60]	; 0x3c
 80017c8:	40bd      	lsls	r5, r7
 80017ca:	6075      	str	r5, [r6, #4]
 80017cc:	6063      	str	r3, [r4, #4]
 80017ce:	6843      	ldr	r3, [r0, #4]
 80017d0:	6805      	ldr	r5, [r0, #0]
 80017d2:	2b10      	cmp	r3, #16
 80017d4:	6ac3      	ldr	r3, [r0, #44]	; 0x2c
 80017d6:	bf0b      	itete	eq
 80017d8:	60a2      	streq	r2, [r4, #8]
 80017da:	60a1      	strne	r1, [r4, #8]
 80017dc:	60e1      	streq	r1, [r4, #12]
 80017de:	60e2      	strne	r2, [r4, #12]
 80017e0:	b14b      	cbz	r3, 80017f6 <HAL_DMA_Start_IT+0x62>
 80017e2:	6823      	ldr	r3, [r4, #0]
 80017e4:	f043 030e 	orr.w	r3, r3, #14
 80017e8:	2000      	movs	r0, #0
 80017ea:	6023      	str	r3, [r4, #0]
 80017ec:	682b      	ldr	r3, [r5, #0]
 80017ee:	f043 0301 	orr.w	r3, r3, #1
 80017f2:	602b      	str	r3, [r5, #0]
 80017f4:	bdf0      	pop	{r4, r5, r6, r7, pc}
 80017f6:	6823      	ldr	r3, [r4, #0]
 80017f8:	f023 0304 	bic.w	r3, r3, #4
 80017fc:	6023      	str	r3, [r4, #0]
 80017fe:	6823      	ldr	r3, [r4, #0]
 8001800:	f043 030a 	orr.w	r3, r3, #10
 8001804:	e7f0      	b.n	80017e8 <HAL_DMA_Start_IT+0x54>
 8001806:	f880 6020 	strb.w	r6, [r0, #32]
 800180a:	2002      	movs	r0, #2
 800180c:	e7f2      	b.n	80017f4 <HAL_DMA_Start_IT+0x60>
	...

08001810 <HAL_DMA_Abort_IT>:
 8001810:	f890 3021 	ldrb.w	r3, [r0, #33]	; 0x21
 8001814:	b510      	push	{r4, lr}
 8001816:	2b02      	cmp	r3, #2
 8001818:	d003      	beq.n	8001822 <HAL_DMA_Abort_IT+0x12>
 800181a:	2304      	movs	r3, #4
 800181c:	6383      	str	r3, [r0, #56]	; 0x38
 800181e:	2001      	movs	r0, #1
 8001820:	bd10      	pop	{r4, pc}
 8001822:	6803      	ldr	r3, [r0, #0]
 8001824:	681a      	ldr	r2, [r3, #0]
 8001826:	f022 020e 	bic.w	r2, r2, #14
 800182a:	601a      	str	r2, [r3, #0]
 800182c:	681a      	ldr	r2, [r3, #0]
 800182e:	f022 0201 	bic.w	r2, r2, #1
 8001832:	601a      	str	r2, [r3, #0]
 8001834:	4a18      	ldr	r2, [pc, #96]	; (8001898 <HAL_DMA_Abort_IT+0x88>)
 8001836:	4293      	cmp	r3, r2
 8001838:	d01f      	beq.n	800187a <HAL_DMA_Abort_IT+0x6a>
 800183a:	3214      	adds	r2, #20
 800183c:	4293      	cmp	r3, r2
 800183e:	d01e      	beq.n	800187e <HAL_DMA_Abort_IT+0x6e>
 8001840:	3214      	adds	r2, #20
 8001842:	4293      	cmp	r3, r2
 8001844:	d01d      	beq.n	8001882 <HAL_DMA_Abort_IT+0x72>
 8001846:	3214      	adds	r2, #20
 8001848:	4293      	cmp	r3, r2
 800184a:	d01d      	beq.n	8001888 <HAL_DMA_Abort_IT+0x78>
 800184c:	3214      	adds	r2, #20
 800184e:	4293      	cmp	r3, r2
 8001850:	d01d      	beq.n	800188e <HAL_DMA_Abort_IT+0x7e>
 8001852:	3214      	adds	r2, #20
 8001854:	4293      	cmp	r3, r2
 8001856:	bf0c      	ite	eq
 8001858:	f44f 1380 	moveq.w	r3, #1048576	; 0x100000
 800185c:	f04f 7380 	movne.w	r3, #16777216	; 0x1000000
 8001860:	4a0e      	ldr	r2, [pc, #56]	; (800189c <HAL_DMA_Abort_IT+0x8c>)
 8001862:	2400      	movs	r4, #0
 8001864:	6053      	str	r3, [r2, #4]
 8001866:	2301      	movs	r3, #1
 8001868:	f880 3021 	strb.w	r3, [r0, #33]	; 0x21
 800186c:	6b43      	ldr	r3, [r0, #52]	; 0x34
 800186e:	f880 4020 	strb.w	r4, [r0, #32]
 8001872:	b17b      	cbz	r3, 8001894 <HAL_DMA_Abort_IT+0x84>
 8001874:	4798      	blx	r3
 8001876:	4620      	mov	r0, r4
 8001878:	e7d2      	b.n	8001820 <HAL_DMA_Abort_IT+0x10>
 800187a:	2301      	movs	r3, #1
 800187c:	e7f0      	b.n	8001860 <HAL_DMA_Abort_IT+0x50>
 800187e:	2310      	movs	r3, #16
 8001880:	e7ee      	b.n	8001860 <HAL_DMA_Abort_IT+0x50>
 8001882:	f44f 7380 	mov.w	r3, #256	; 0x100
 8001886:	e7eb      	b.n	8001860 <HAL_DMA_Abort_IT+0x50>
 8001888:	f44f 5380 	mov.w	r3, #4096	; 0x1000
 800188c:	e7e8      	b.n	8001860 <HAL_DMA_Abort_IT+0x50>
 800188e:	f44f 3380 	mov.w	r3, #65536	; 0x10000
 8001892:	e7e5      	b.n	8001860 <HAL_DMA_Abort_IT+0x50>
 8001894:	4618      	mov	r0, r3
 8001896:	e7c3      	b.n	8001820 <HAL_DMA_Abort_IT+0x10>
 8001898:	40020008 	.word	0x40020008
 800189c:	40020000 	.word	0x40020000

080018a0 <HAL_DMA_IRQHandler>:
 80018a0:	b470      	push	{r4, r5, r6}
 80018a2:	2504      	movs	r5, #4
 80018a4:	6bc6      	ldr	r6, [r0, #60]	; 0x3c
 80018a6:	6c02      	ldr	r2, [r0, #64]	; 0x40
 80018a8:	6834      	ldr	r4, [r6, #0]
 80018aa:	6803      	ldr	r3, [r0, #0]
 80018ac:	4095      	lsls	r5, r2
 80018ae:	4225      	tst	r5, r4
 80018b0:	6819      	ldr	r1, [r3, #0]
 80018b2:	d032      	beq.n	800191a <HAL_DMA_IRQHandler+0x7a>
 80018b4:	074d      	lsls	r5, r1, #29
 80018b6:	d530      	bpl.n	800191a <HAL_DMA_IRQHandler+0x7a>
 80018b8:	681a      	ldr	r2, [r3, #0]
 80018ba:	0696      	lsls	r6, r2, #26
 80018bc:	bf5e      	ittt	pl
 80018be:	681a      	ldrpl	r2, [r3, #0]
 80018c0:	f022 0204 	bicpl.w	r2, r2, #4
 80018c4:	601a      	strpl	r2, [r3, #0]
 80018c6:	4a3e      	ldr	r2, [pc, #248]	; (80019c0 <HAL_DMA_IRQHandler+0x120>)
 80018c8:	4293      	cmp	r3, r2
 80018ca:	d019      	beq.n	8001900 <HAL_DMA_IRQHandler+0x60>
 80018cc:	3214      	adds	r2, #20
 80018ce:	4293      	cmp	r3, r2
 80018d0:	d018      	beq.n	8001904 <HAL_DMA_IRQHandler+0x64>
 80018d2:	3214      	adds	r2, #20
 80018d4:	4293      	cmp	r3, r2
 80018d6:	d017      	beq.n	8001908 <HAL_DMA_IRQHandler+0x68>
 80018d8:	3214      	adds	r2, #20
 80018da:	4293      	cmp	r3, r2
 80018dc:	d017      	beq.n	800190e <HAL_DMA_IRQHandler+0x6e>
 80018de:	3214      	adds	r2, #20
 80018e0:	4293      	cmp	r3, r2
 80018e2:	d017      	beq.n	8001914 <HAL_DMA_IRQHandler+0x74>
 80018e4:	3214      	adds	r2, #20
 80018e6:	4293      	cmp	r3, r2
 80018e8:	bf0c      	ite	eq
 80018ea:	f44f 0380 	moveq.w	r3, #4194304	; 0x400000
 80018ee:	f04f 6380 	movne.w	r3, #67108864	; 0x4000000
 80018f2:	4a34      	ldr	r2, [pc, #208]	; (80019c4 <HAL_DMA_IRQHandler+0x124>)
 80018f4:	6053      	str	r3, [r2, #4]
 80018f6:	6ac3      	ldr	r3, [r0, #44]	; 0x2c
 80018f8:	2b00      	cmp	r3, #0
 80018fa:	d05e      	beq.n	80019ba <HAL_DMA_IRQHandler+0x11a>
 80018fc:	bc70      	pop	{r4, r5, r6}
 80018fe:	4718      	bx	r3
 8001900:	2304      	movs	r3, #4
 8001902:	e7f6      	b.n	80018f2 <HAL_DMA_IRQHandler+0x52>
 8001904:	2340      	movs	r3, #64	; 0x40
 8001906:	e7f4      	b.n	80018f2 <HAL_DMA_IRQHandler+0x52>
 8001908:	f44f 6380 	mov.w	r3, #1024	; 0x400
 800190c:	e7f1      	b.n	80018f2 <HAL_DMA_IRQHandler+0x52>
 800190e:	f44f 4380 	mov.w	r3, #16384	; 0x4000
 8001912:	e7ee      	b.n	80018f2 <HAL_DMA_IRQHandler+0x52>
 8001914:	f44f 2380 	mov.w	r3, #262144	; 0x40000
 8001918:	e7eb      	b.n	80018f2 <HAL_DMA_IRQHandler+0x52>
 800191a:	2502      	movs	r5, #2
 800191c:	4095      	lsls	r5, r2
 800191e:	4225      	tst	r5, r4
 8001920:	d035      	beq.n	800198e <HAL_DMA_IRQHandler+0xee>
 8001922:	078d      	lsls	r5, r1, #30
 8001924:	d533      	bpl.n	800198e <HAL_DMA_IRQHandler+0xee>
 8001926:	681a      	ldr	r2, [r3, #0]
 8001928:	0694      	lsls	r4, r2, #26
 800192a:	d406      	bmi.n	800193a <HAL_DMA_IRQHandler+0x9a>
 800192c:	681a      	ldr	r2, [r3, #0]
 800192e:	f022 020a 	bic.w	r2, r2, #10
 8001932:	601a      	str	r2, [r3, #0]
 8001934:	2201      	movs	r2, #1
 8001936:	f880 2021 	strb.w	r2, [r0, #33]	; 0x21
 800193a:	4a21      	ldr	r2, [pc, #132]	; (80019c0 <HAL_DMA_IRQHandler+0x120>)
 800193c:	4293      	cmp	r3, r2
 800193e:	d019      	beq.n	8001974 <HAL_DMA_IRQHandler+0xd4>
 8001940:	3214      	adds	r2, #20
 8001942:	4293      	cmp	r3, r2
 8001944:	d018      	beq.n	8001978 <HAL_DMA_IRQHandler+0xd8>
 8001946:	3214      	adds	r2, #20
 8001948:	4293      	cmp	r3, r2
 800194a:	d017      	beq.n	800197c <HAL_DMA_IRQHandler+0xdc>
 800194c:	3214      	adds	r2, #20
 800194e:	4293      	cmp	r3, r2
 8001950:	d017      	beq.n	8001982 <HAL_DMA_IRQHandler+0xe2>
 8001952:	3214      	adds	r2, #20
 8001954:	4293      	cmp	r3, r2
 8001956:	d017      	beq.n	8001988 <HAL_DMA_IRQHandler+0xe8>
 8001958:	3214      	adds	r2, #20
 800195a:	4293      	cmp	r3, r2
 800195c:	bf0c      	ite	eq
 800195e:	f44f 1300 	moveq.w	r3, #2097152	; 0x200000
 8001962:	f04f 7300 	movne.w	r3, #33554432	; 0x2000000
 8001966:	4a17      	ldr	r2, [pc, #92]	; (80019c4 <HAL_DMA_IRQHandler+0x124>)
 8001968:	6053      	str	r3, [r2, #4]
 800196a:	2300      	movs	r3, #0
 800196c:	f880 3020 	strb.w	r3, [r0, #32]
 8001970:	6a83      	ldr	r3, [r0, #40]	; 0x28
 8001972:	e7c1      	b.n	80018f8 <HAL_DMA_IRQHandler+0x58>
 8001974:	2302      	movs	r3, #2
 8001976:	e7f6      	b.n	8001966 <HAL_DMA_IRQHandler+0xc6>
 8001978:	2320      	movs	r3, #32
 800197a:	e7f4      	b.n	8001966 <HAL_DMA_IRQHandler+0xc6>
 800197c:	f44f 7300 	mov.w	r3, #512	; 0x200
 8001980:	e7f1      	b.n	8001966 <HAL_DMA_IRQHandler+0xc6>
 8001982:	f44f 5300 	mov.w	r3, #8192	; 0x2000
 8001986:	e7ee      	b.n	8001966 <HAL_DMA_IRQHandler+0xc6>
 8001988:	f44f 3300 	mov.w	r3, #131072	; 0x20000
 800198c:	e7eb      	b.n	8001966 <HAL_DMA_IRQHandler+0xc6>
 800198e:	2508      	movs	r5, #8
 8001990:	4095      	lsls	r5, r2
 8001992:	4225      	tst	r5, r4
 8001994:	d011      	beq.n	80019ba <HAL_DMA_IRQHandler+0x11a>
 8001996:	0709      	lsls	r1, r1, #28
 8001998:	d50f      	bpl.n	80019ba <HAL_DMA_IRQHandler+0x11a>
 800199a:	6819      	ldr	r1, [r3, #0]
 800199c:	f021 010e 	bic.w	r1, r1, #14
 80019a0:	6019      	str	r1, [r3, #0]
 80019a2:	2301      	movs	r3, #1
 80019a4:	fa03 f202 	lsl.w	r2, r3, r2
 80019a8:	6072      	str	r2, [r6, #4]
 80019aa:	6383      	str	r3, [r0, #56]	; 0x38
 80019ac:	f880 3021 	strb.w	r3, [r0, #33]	; 0x21
 80019b0:	2300      	movs	r3, #0
 80019b2:	f880 3020 	strb.w	r3, [r0, #32]
 80019b6:	6b03      	ldr	r3, [r0, #48]	; 0x30
 80019b8:	e79e      	b.n	80018f8 <HAL_DMA_IRQHandler+0x58>
 80019ba:	bc70      	pop	{r4, r5, r6}
 80019bc:	4770      	bx	lr
 80019be:	bf00      	nop
 80019c0:	40020008 	.word	0x40020008
 80019c4:	40020000 	.word	0x40020000

080019c8 <FLASH_SetErrorCode>:
 80019c8:	4a11      	ldr	r2, [pc, #68]	; (8001a10 <FLASH_SetErrorCode+0x48>)
 80019ca:	68d3      	ldr	r3, [r2, #12]
 80019cc:	f013 0310 	ands.w	r3, r3, #16
 80019d0:	d005      	beq.n	80019de <FLASH_SetErrorCode+0x16>
 80019d2:	4910      	ldr	r1, [pc, #64]	; (8001a14 <FLASH_SetErrorCode+0x4c>)
 80019d4:	69cb      	ldr	r3, [r1, #28]
 80019d6:	f043 0302 	orr.w	r3, r3, #2
 80019da:	61cb      	str	r3, [r1, #28]
 80019dc:	2310      	movs	r3, #16
 80019de:	68d2      	ldr	r2, [r2, #12]
 80019e0:	0750      	lsls	r0, r2, #29
 80019e2:	d506      	bpl.n	80019f2 <FLASH_SetErrorCode+0x2a>
 80019e4:	490b      	ldr	r1, [pc, #44]	; (8001a14 <FLASH_SetErrorCode+0x4c>)
 80019e6:	f043 0304 	orr.w	r3, r3, #4
 80019ea:	69ca      	ldr	r2, [r1, #28]
 80019ec:	f042 0201 	orr.w	r2, r2, #1
 80019f0:	61ca      	str	r2, [r1, #28]
 80019f2:	4a07      	ldr	r2, [pc, #28]	; (8001a10 <FLASH_SetErrorCode+0x48>)
 80019f4:	69d1      	ldr	r1, [r2, #28]
 80019f6:	07c9      	lsls	r1, r1, #31
 80019f8:	d508      	bpl.n	8001a0c <FLASH_SetErrorCode+0x44>
 80019fa:	4806      	ldr	r0, [pc, #24]	; (8001a14 <FLASH_SetErrorCode+0x4c>)
 80019fc:	69c1      	ldr	r1, [r0, #28]
 80019fe:	f041 0104 	orr.w	r1, r1, #4
 8001a02:	61c1      	str	r1, [r0, #28]
 8001a04:	69d1      	ldr	r1, [r2, #28]
 8001a06:	f021 0101 	bic.w	r1, r1, #1
 8001a0a:	61d1      	str	r1, [r2, #28]
 8001a0c:	60d3      	str	r3, [r2, #12]
 8001a0e:	4770      	bx	lr
 8001a10:	40022000 	.word	0x40022000
 8001a14:	200005e0 	.word	0x200005e0

08001a18 <HAL_FLASH_Unlock>:
 8001a18:	4b06      	ldr	r3, [pc, #24]	; (8001a34 <HAL_FLASH_Unlock+0x1c>)
 8001a1a:	6918      	ldr	r0, [r3, #16]
 8001a1c:	f010 0080 	ands.w	r0, r0, #128	; 0x80
 8001a20:	d007      	beq.n	8001a32 <HAL_FLASH_Unlock+0x1a>
 8001a22:	4a05      	ldr	r2, [pc, #20]	; (8001a38 <HAL_FLASH_Unlock+0x20>)
 8001a24:	605a      	str	r2, [r3, #4]
 8001a26:	f102 3288 	add.w	r2, r2, #2290649224	; 0x88888888
 8001a2a:	605a      	str	r2, [r3, #4]
 8001a2c:	6918      	ldr	r0, [r3, #16]
 8001a2e:	f3c0 10c0 	ubfx	r0, r0, #7, #1
 8001a32:	4770      	bx	lr
 8001a34:	40022000 	.word	0x40022000
 8001a38:	45670123 	.word	0x45670123

08001a3c <HAL_FLASH_Lock>:
 8001a3c:	4a03      	ldr	r2, [pc, #12]	; (8001a4c <HAL_FLASH_Lock+0x10>)
 8001a3e:	2000      	movs	r0, #0
 8001a40:	6913      	ldr	r3, [r2, #16]
 8001a42:	f043 0380 	orr.w	r3, r3, #128	; 0x80
 8001a46:	6113      	str	r3, [r2, #16]
 8001a48:	4770      	bx	lr
 8001a4a:	bf00      	nop
 8001a4c:	40022000 	.word	0x40022000

08001a50 <FLASH_WaitForLastOperation>:
 8001a50:	b5f8      	push	{r3, r4, r5, r6, r7, lr}
 8001a52:	4606      	mov	r6, r0
 8001a54:	f7ff fbc4 	bl	80011e0 <HAL_GetTick>
 8001a58:	4c11      	ldr	r4, [pc, #68]	; (8001aa0 <FLASH_WaitForLastOperation+0x50>)
 8001a5a:	4607      	mov	r7, r0
 8001a5c:	4625      	mov	r5, r4
 8001a5e:	68e3      	ldr	r3, [r4, #12]
 8001a60:	07d8      	lsls	r0, r3, #31
 8001a62:	d412      	bmi.n	8001a8a <FLASH_WaitForLastOperation+0x3a>
 8001a64:	68e3      	ldr	r3, [r4, #12]
 8001a66:	0699      	lsls	r1, r3, #26
 8001a68:	bf44      	itt	mi
 8001a6a:	2320      	movmi	r3, #32
 8001a6c:	60e3      	strmi	r3, [r4, #12]
 8001a6e:	68eb      	ldr	r3, [r5, #12]
 8001a70:	06da      	lsls	r2, r3, #27
 8001a72:	d406      	bmi.n	8001a82 <FLASH_WaitForLastOperation+0x32>
 8001a74:	69eb      	ldr	r3, [r5, #28]
 8001a76:	07db      	lsls	r3, r3, #31
 8001a78:	d403      	bmi.n	8001a82 <FLASH_WaitForLastOperation+0x32>
 8001a7a:	68e8      	ldr	r0, [r5, #12]
 8001a7c:	f010 0004 	ands.w	r0, r0, #4
 8001a80:	d007      	beq.n	8001a92 <FLASH_WaitForLastOperation+0x42>
 8001a82:	f7ff ffa1 	bl	80019c8 <FLASH_SetErrorCode>
 8001a86:	2001      	movs	r0, #1
 8001a88:	e003      	b.n	8001a92 <FLASH_WaitForLastOperation+0x42>
 8001a8a:	1c73      	adds	r3, r6, #1
 8001a8c:	d0e7      	beq.n	8001a5e <FLASH_WaitForLastOperation+0xe>
 8001a8e:	b90e      	cbnz	r6, 8001a94 <FLASH_WaitForLastOperation+0x44>
 8001a90:	2003      	movs	r0, #3
 8001a92:	bdf8      	pop	{r3, r4, r5, r6, r7, pc}
 8001a94:	f7ff fba4 	bl	80011e0 <HAL_GetTick>
 8001a98:	1bc0      	subs	r0, r0, r7
 8001a9a:	42b0      	cmp	r0, r6
 8001a9c:	d9df      	bls.n	8001a5e <FLASH_WaitForLastOperation+0xe>
 8001a9e:	e7f7      	b.n	8001a90 <FLASH_WaitForLastOperation+0x40>
 8001aa0:	40022000 	.word	0x40022000

08001aa4 <HAL_FLASH_Program>:
 8001aa4:	e92d 4ff8 	stmdb	sp!, {r3, r4, r5, r6, r7, r8, r9, sl, fp, lr}
 8001aa8:	4c24      	ldr	r4, [pc, #144]	; (8001b3c <HAL_FLASH_Program+0x98>)
 8001aaa:	461e      	mov	r6, r3
 8001aac:	7e23      	ldrb	r3, [r4, #24]
 8001aae:	4605      	mov	r5, r0
 8001ab0:	2b01      	cmp	r3, #1
 8001ab2:	460f      	mov	r7, r1
 8001ab4:	4690      	mov	r8, r2
 8001ab6:	d03f      	beq.n	8001b38 <HAL_FLASH_Program+0x94>
 8001ab8:	2301      	movs	r3, #1
 8001aba:	f24c 3050 	movw	r0, #50000	; 0xc350
 8001abe:	7623      	strb	r3, [r4, #24]
 8001ac0:	f7ff ffc6 	bl	8001a50 <FLASH_WaitForLastOperation>
 8001ac4:	bba0      	cbnz	r0, 8001b30 <HAL_FLASH_Program+0x8c>
 8001ac6:	2d01      	cmp	r5, #1
 8001ac8:	d003      	beq.n	8001ad2 <HAL_FLASH_Program+0x2e>
 8001aca:	2d02      	cmp	r5, #2
 8001acc:	bf0c      	ite	eq
 8001ace:	2502      	moveq	r5, #2
 8001ad0:	2504      	movne	r5, #4
 8001ad2:	f04f 0900 	mov.w	r9, #0
 8001ad6:	46cb      	mov	fp, r9
 8001ad8:	f8df a064 	ldr.w	sl, [pc, #100]	; 8001b40 <HAL_FLASH_Program+0x9c>
 8001adc:	ea4f 1309 	mov.w	r3, r9, lsl #4
 8001ae0:	f1c3 0120 	rsb	r1, r3, #32
 8001ae4:	f1a3 0220 	sub.w	r2, r3, #32
 8001ae8:	fa06 f101 	lsl.w	r1, r6, r1
 8001aec:	fa28 f303 	lsr.w	r3, r8, r3
 8001af0:	f8c4 b01c 	str.w	fp, [r4, #28]
 8001af4:	430b      	orrs	r3, r1
 8001af6:	fa26 f202 	lsr.w	r2, r6, r2
 8001afa:	4313      	orrs	r3, r2
 8001afc:	f8da 2010 	ldr.w	r2, [sl, #16]
 8001b00:	b29b      	uxth	r3, r3
 8001b02:	f042 0201 	orr.w	r2, r2, #1
 8001b06:	f8ca 2010 	str.w	r2, [sl, #16]
 8001b0a:	f24c 3050 	movw	r0, #50000	; 0xc350
 8001b0e:	f827 3019 	strh.w	r3, [r7, r9, lsl #1]
 8001b12:	f7ff ff9d 	bl	8001a50 <FLASH_WaitForLastOperation>
 8001b16:	f8da 3010 	ldr.w	r3, [sl, #16]
 8001b1a:	f023 0301 	bic.w	r3, r3, #1
 8001b1e:	f8ca 3010 	str.w	r3, [sl, #16]
 8001b22:	b928      	cbnz	r0, 8001b30 <HAL_FLASH_Program+0x8c>
 8001b24:	f109 0901 	add.w	r9, r9, #1
 8001b28:	fa5f f389 	uxtb.w	r3, r9
 8001b2c:	429d      	cmp	r5, r3
 8001b2e:	d8d5      	bhi.n	8001adc <HAL_FLASH_Program+0x38>
 8001b30:	2300      	movs	r3, #0
 8001b32:	7623      	strb	r3, [r4, #24]
 8001b34:	e8bd 8ff8 	ldmia.w	sp!, {r3, r4, r5, r6, r7, r8, r9, sl, fp, pc}
 8001b38:	2002      	movs	r0, #2
 8001b3a:	e7fb      	b.n	8001b34 <HAL_FLASH_Program+0x90>
 8001b3c:	200005e0 	.word	0x200005e0
 8001b40:	40022000 	.word	0x40022000

08001b44 <FLASH_MassErase.isra.0>:
 8001b44:	2200      	movs	r2, #0
 8001b46:	4b06      	ldr	r3, [pc, #24]	; (8001b60 <FLASH_MassErase.isra.0+0x1c>)
 8001b48:	61da      	str	r2, [r3, #28]
 8001b4a:	4b06      	ldr	r3, [pc, #24]	; (8001b64 <FLASH_MassErase.isra.0+0x20>)
 8001b4c:	691a      	ldr	r2, [r3, #16]
 8001b4e:	f042 0204 	orr.w	r2, r2, #4
 8001b52:	611a      	str	r2, [r3, #16]
 8001b54:	691a      	ldr	r2, [r3, #16]
 8001b56:	f042 0240 	orr.w	r2, r2, #64	; 0x40
 8001b5a:	611a      	str	r2, [r3, #16]
 8001b5c:	4770      	bx	lr
 8001b5e:	bf00      	nop
 8001b60:	200005e0 	.word	0x200005e0
 8001b64:	40022000 	.word	0x40022000

08001b68 <FLASH_PageErase>:
 8001b68:	2200      	movs	r2, #0
 8001b6a:	4b06      	ldr	r3, [pc, #24]	; (8001b84 <FLASH_PageErase+0x1c>)
 8001b6c:	61da      	str	r2, [r3, #28]
 8001b6e:	4b06      	ldr	r3, [pc, #24]	; (8001b88 <FLASH_PageErase+0x20>)
 8001b70:	691a      	ldr	r2, [r3, #16]
 8001b72:	f042 0202 	orr.w	r2, r2, #2
 8001b76:	611a      	str	r2, [r3, #16]
 8001b78:	6158      	str	r0, [r3, #20]
 8001b7a:	691a      	ldr	r2, [r3, #16]
 8001b7c:	f042 0240 	orr.w	r2, r2, #64	; 0x40
 8001b80:	611a      	str	r2, [r3, #16]
 8001b82:	4770      	bx	lr
 8001b84:	200005e0 	.word	0x200005e0
 8001b88:	40022000 	.word	0x40022000

08001b8c <HAL_FLASHEx_Erase>:
 8001b8c:	e92d 41f0 	stmdb	sp!, {r4, r5, r6, r7, r8, lr}
 8001b90:	4d22      	ldr	r5, [pc, #136]	; (8001c1c <HAL_FLASHEx_Erase+0x90>)
 8001b92:	4607      	mov	r7, r0
 8001b94:	7e2b      	ldrb	r3, [r5, #24]
 8001b96:	4688      	mov	r8, r1
 8001b98:	2b01      	cmp	r3, #1
 8001b9a:	d03d      	beq.n	8001c18 <HAL_FLASHEx_Erase+0x8c>
 8001b9c:	2401      	movs	r4, #1
 8001b9e:	6803      	ldr	r3, [r0, #0]
 8001ba0:	762c      	strb	r4, [r5, #24]
 8001ba2:	2b02      	cmp	r3, #2
 8001ba4:	f24c 3050 	movw	r0, #50000	; 0xc350
 8001ba8:	d113      	bne.n	8001bd2 <HAL_FLASHEx_Erase+0x46>
 8001baa:	f7ff ff51 	bl	8001a50 <FLASH_WaitForLastOperation>
 8001bae:	b120      	cbz	r0, 8001bba <HAL_FLASHEx_Erase+0x2e>
 8001bb0:	2001      	movs	r0, #1
 8001bb2:	2300      	movs	r3, #0
 8001bb4:	762b      	strb	r3, [r5, #24]
 8001bb6:	e8bd 81f0 	ldmia.w	sp!, {r4, r5, r6, r7, r8, pc}
 8001bba:	f7ff ffc3 	bl	8001b44 <FLASH_MassErase.isra.0>
 8001bbe:	f24c 3050 	movw	r0, #50000	; 0xc350
 8001bc2:	f7ff ff45 	bl	8001a50 <FLASH_WaitForLastOperation>
 8001bc6:	4a16      	ldr	r2, [pc, #88]	; (8001c20 <HAL_FLASHEx_Erase+0x94>)
 8001bc8:	6913      	ldr	r3, [r2, #16]
 8001bca:	f023 0304 	bic.w	r3, r3, #4
 8001bce:	6113      	str	r3, [r2, #16]
 8001bd0:	e7ef      	b.n	8001bb2 <HAL_FLASHEx_Erase+0x26>
 8001bd2:	f7ff ff3d 	bl	8001a50 <FLASH_WaitForLastOperation>
 8001bd6:	2800      	cmp	r0, #0
 8001bd8:	d1ea      	bne.n	8001bb0 <HAL_FLASHEx_Erase+0x24>
 8001bda:	f04f 33ff 	mov.w	r3, #4294967295
 8001bde:	f8c8 3000 	str.w	r3, [r8]
 8001be2:	4620      	mov	r0, r4
 8001be4:	68be      	ldr	r6, [r7, #8]
 8001be6:	4c0e      	ldr	r4, [pc, #56]	; (8001c20 <HAL_FLASHEx_Erase+0x94>)
 8001be8:	e9d7 3202 	ldrd	r3, r2, [r7, #8]
 8001bec:	eb03 2382 	add.w	r3, r3, r2, lsl #10
 8001bf0:	42b3      	cmp	r3, r6
 8001bf2:	d9de      	bls.n	8001bb2 <HAL_FLASHEx_Erase+0x26>
 8001bf4:	4630      	mov	r0, r6
 8001bf6:	f7ff ffb7 	bl	8001b68 <FLASH_PageErase>
 8001bfa:	f24c 3050 	movw	r0, #50000	; 0xc350
 8001bfe:	f7ff ff27 	bl	8001a50 <FLASH_WaitForLastOperation>
 8001c02:	6923      	ldr	r3, [r4, #16]
 8001c04:	f023 0302 	bic.w	r3, r3, #2
 8001c08:	6123      	str	r3, [r4, #16]
 8001c0a:	b110      	cbz	r0, 8001c12 <HAL_FLASHEx_Erase+0x86>
 8001c0c:	f8c8 6000 	str.w	r6, [r8]
 8001c10:	e7cf      	b.n	8001bb2 <HAL_FLASHEx_Erase+0x26>
 8001c12:	f506 6680 	add.w	r6, r6, #1024	; 0x400
 8001c16:	e7e7      	b.n	8001be8 <HAL_FLASHEx_Erase+0x5c>
 8001c18:	2002      	movs	r0, #2
 8001c1a:	e7cc      	b.n	8001bb6 <HAL_FLASHEx_Erase+0x2a>
 8001c1c:	200005e0 	.word	0x200005e0
 8001c20:	40022000 	.word	0x40022000

08001c24 <HAL_GPIO_Init>:
 8001c24:	e92d 4ff7 	stmdb	sp!, {r0, r1, r2, r4, r5, r6, r7, r8, r9, sl, fp, lr}
 8001c28:	2400      	movs	r4, #0
 8001c2a:	4626      	mov	r6, r4
 8001c2c:	4b65      	ldr	r3, [pc, #404]	; (8001dc4 <HAL_GPIO_Init+0x1a0>)
 8001c2e:	f8df c1a4 	ldr.w	ip, [pc, #420]	; 8001dd4 <HAL_GPIO_Init+0x1b0>
 8001c32:	f8df e1a4 	ldr.w	lr, [pc, #420]	; 8001dd8 <HAL_GPIO_Init+0x1b4>
 8001c36:	680a      	ldr	r2, [r1, #0]
 8001c38:	fa32 f506 	lsrs.w	r5, r2, r6
 8001c3c:	d102      	bne.n	8001c44 <HAL_GPIO_Init+0x20>
 8001c3e:	b003      	add	sp, #12
 8001c40:	e8bd 8ff0 	ldmia.w	sp!, {r4, r5, r6, r7, r8, r9, sl, fp, pc}
 8001c44:	f04f 0801 	mov.w	r8, #1
 8001c48:	fa08 f806 	lsl.w	r8, r8, r6
 8001c4c:	ea02 0208 	and.w	r2, r2, r8
 8001c50:	4590      	cmp	r8, r2
 8001c52:	d17e      	bne.n	8001d52 <HAL_GPIO_Init+0x12e>
 8001c54:	684d      	ldr	r5, [r1, #4]
 8001c56:	2d12      	cmp	r5, #18
 8001c58:	f000 80a9 	beq.w	8001dae <HAL_GPIO_Init+0x18a>
 8001c5c:	f200 8082 	bhi.w	8001d64 <HAL_GPIO_Init+0x140>
 8001c60:	2d02      	cmp	r5, #2
 8001c62:	f000 80a1 	beq.w	8001da8 <HAL_GPIO_Init+0x184>
 8001c66:	d876      	bhi.n	8001d56 <HAL_GPIO_Init+0x132>
 8001c68:	2d00      	cmp	r5, #0
 8001c6a:	f000 8088 	beq.w	8001d7e <HAL_GPIO_Init+0x15a>
 8001c6e:	2d01      	cmp	r5, #1
 8001c70:	f000 8098 	beq.w	8001da4 <HAL_GPIO_Init+0x180>
 8001c74:	f04f 090f 	mov.w	r9, #15
 8001c78:	2aff      	cmp	r2, #255	; 0xff
 8001c7a:	bf93      	iteet	ls
 8001c7c:	4682      	movls	sl, r0
 8001c7e:	f106 4580 	addhi.w	r5, r6, #1073741824	; 0x40000000
 8001c82:	3d08      	subhi	r5, #8
 8001c84:	f8d0 b000 	ldrls.w	fp, [r0]
 8001c88:	bf92      	itee	ls
 8001c8a:	00b5      	lslls	r5, r6, #2
 8001c8c:	f8d0 b004 	ldrhi.w	fp, [r0, #4]
 8001c90:	00ad      	lslhi	r5, r5, #2
 8001c92:	fa09 f805 	lsl.w	r8, r9, r5
 8001c96:	ea2b 0808 	bic.w	r8, fp, r8
 8001c9a:	fa04 f505 	lsl.w	r5, r4, r5
 8001c9e:	bf88      	it	hi
 8001ca0:	f100 0a04 	addhi.w	sl, r0, #4
 8001ca4:	ea48 0505 	orr.w	r5, r8, r5
 8001ca8:	f8ca 5000 	str.w	r5, [sl]
 8001cac:	f8d1 a004 	ldr.w	sl, [r1, #4]
 8001cb0:	f01a 5f80 	tst.w	sl, #268435456	; 0x10000000
 8001cb4:	d04d      	beq.n	8001d52 <HAL_GPIO_Init+0x12e>
 8001cb6:	4f44      	ldr	r7, [pc, #272]	; (8001dc8 <HAL_GPIO_Init+0x1a4>)
 8001cb8:	f026 0803 	bic.w	r8, r6, #3
 8001cbc:	69bd      	ldr	r5, [r7, #24]
 8001cbe:	f108 4880 	add.w	r8, r8, #1073741824	; 0x40000000
 8001cc2:	f045 0501 	orr.w	r5, r5, #1
 8001cc6:	61bd      	str	r5, [r7, #24]
 8001cc8:	69bd      	ldr	r5, [r7, #24]
 8001cca:	f508 3880 	add.w	r8, r8, #65536	; 0x10000
 8001cce:	f005 0501 	and.w	r5, r5, #1
 8001cd2:	9501      	str	r5, [sp, #4]
 8001cd4:	f006 0b03 	and.w	fp, r6, #3
 8001cd8:	9d01      	ldr	r5, [sp, #4]
 8001cda:	ea4f 0b8b 	mov.w	fp, fp, lsl #2
 8001cde:	f8d8 5008 	ldr.w	r5, [r8, #8]
 8001ce2:	fa09 f90b 	lsl.w	r9, r9, fp
 8001ce6:	ea25 0909 	bic.w	r9, r5, r9
 8001cea:	4d38      	ldr	r5, [pc, #224]	; (8001dcc <HAL_GPIO_Init+0x1a8>)
 8001cec:	42a8      	cmp	r0, r5
 8001cee:	d063      	beq.n	8001db8 <HAL_GPIO_Init+0x194>
 8001cf0:	f505 6580 	add.w	r5, r5, #1024	; 0x400
 8001cf4:	42a8      	cmp	r0, r5
 8001cf6:	d061      	beq.n	8001dbc <HAL_GPIO_Init+0x198>
 8001cf8:	f505 6580 	add.w	r5, r5, #1024	; 0x400
 8001cfc:	42a8      	cmp	r0, r5
 8001cfe:	d05f      	beq.n	8001dc0 <HAL_GPIO_Init+0x19c>
 8001d00:	f505 6580 	add.w	r5, r5, #1024	; 0x400
 8001d04:	42a8      	cmp	r0, r5
 8001d06:	bf0c      	ite	eq
 8001d08:	2503      	moveq	r5, #3
 8001d0a:	2504      	movne	r5, #4
 8001d0c:	fa05 f50b 	lsl.w	r5, r5, fp
 8001d10:	ea45 0509 	orr.w	r5, r5, r9
 8001d14:	f8c8 5008 	str.w	r5, [r8, #8]
 8001d18:	681d      	ldr	r5, [r3, #0]
 8001d1a:	f41a 3f80 	tst.w	sl, #65536	; 0x10000
 8001d1e:	bf14      	ite	ne
 8001d20:	4315      	orrne	r5, r2
 8001d22:	4395      	biceq	r5, r2
 8001d24:	601d      	str	r5, [r3, #0]
 8001d26:	685d      	ldr	r5, [r3, #4]
 8001d28:	f41a 3f00 	tst.w	sl, #131072	; 0x20000
 8001d2c:	bf14      	ite	ne
 8001d2e:	4315      	orrne	r5, r2
 8001d30:	4395      	biceq	r5, r2
 8001d32:	605d      	str	r5, [r3, #4]
 8001d34:	689d      	ldr	r5, [r3, #8]
 8001d36:	f41a 1f80 	tst.w	sl, #1048576	; 0x100000
 8001d3a:	bf14      	ite	ne
 8001d3c:	4315      	orrne	r5, r2
 8001d3e:	4395      	biceq	r5, r2
 8001d40:	609d      	str	r5, [r3, #8]
 8001d42:	68dd      	ldr	r5, [r3, #12]
 8001d44:	f41a 1f00 	tst.w	sl, #2097152	; 0x200000
 8001d48:	bf14      	ite	ne
 8001d4a:	432a      	orrne	r2, r5
 8001d4c:	ea25 0202 	biceq.w	r2, r5, r2
 8001d50:	60da      	str	r2, [r3, #12]
 8001d52:	3601      	adds	r6, #1
 8001d54:	e76f      	b.n	8001c36 <HAL_GPIO_Init+0x12>
 8001d56:	2d03      	cmp	r5, #3
 8001d58:	d022      	beq.n	8001da0 <HAL_GPIO_Init+0x17c>
 8001d5a:	2d11      	cmp	r5, #17
 8001d5c:	d18a      	bne.n	8001c74 <HAL_GPIO_Init+0x50>
 8001d5e:	68cc      	ldr	r4, [r1, #12]
 8001d60:	3404      	adds	r4, #4
 8001d62:	e787      	b.n	8001c74 <HAL_GPIO_Init+0x50>
 8001d64:	4f1a      	ldr	r7, [pc, #104]	; (8001dd0 <HAL_GPIO_Init+0x1ac>)
 8001d66:	42bd      	cmp	r5, r7
 8001d68:	d009      	beq.n	8001d7e <HAL_GPIO_Init+0x15a>
 8001d6a:	d812      	bhi.n	8001d92 <HAL_GPIO_Init+0x16e>
 8001d6c:	f8df 906c 	ldr.w	r9, [pc, #108]	; 8001ddc <HAL_GPIO_Init+0x1b8>
 8001d70:	454d      	cmp	r5, r9
 8001d72:	d004      	beq.n	8001d7e <HAL_GPIO_Init+0x15a>
 8001d74:	f509 3980 	add.w	r9, r9, #65536	; 0x10000
 8001d78:	454d      	cmp	r5, r9
 8001d7a:	f47f af7b 	bne.w	8001c74 <HAL_GPIO_Init+0x50>
 8001d7e:	688c      	ldr	r4, [r1, #8]
 8001d80:	b1c4      	cbz	r4, 8001db4 <HAL_GPIO_Init+0x190>
 8001d82:	2c01      	cmp	r4, #1
 8001d84:	bf0c      	ite	eq
 8001d86:	f8c0 8010 	streq.w	r8, [r0, #16]
 8001d8a:	f8c0 8014 	strne.w	r8, [r0, #20]
 8001d8e:	2408      	movs	r4, #8
 8001d90:	e770      	b.n	8001c74 <HAL_GPIO_Init+0x50>
 8001d92:	4565      	cmp	r5, ip
 8001d94:	d0f3      	beq.n	8001d7e <HAL_GPIO_Init+0x15a>
 8001d96:	4575      	cmp	r5, lr
 8001d98:	d0f1      	beq.n	8001d7e <HAL_GPIO_Init+0x15a>
 8001d9a:	f8df 9044 	ldr.w	r9, [pc, #68]	; 8001de0 <HAL_GPIO_Init+0x1bc>
 8001d9e:	e7eb      	b.n	8001d78 <HAL_GPIO_Init+0x154>
 8001da0:	2400      	movs	r4, #0
 8001da2:	e767      	b.n	8001c74 <HAL_GPIO_Init+0x50>
 8001da4:	68cc      	ldr	r4, [r1, #12]
 8001da6:	e765      	b.n	8001c74 <HAL_GPIO_Init+0x50>
 8001da8:	68cc      	ldr	r4, [r1, #12]
 8001daa:	3408      	adds	r4, #8
 8001dac:	e762      	b.n	8001c74 <HAL_GPIO_Init+0x50>
 8001dae:	68cc      	ldr	r4, [r1, #12]
 8001db0:	340c      	adds	r4, #12
 8001db2:	e75f      	b.n	8001c74 <HAL_GPIO_Init+0x50>
 8001db4:	2404      	movs	r4, #4
 8001db6:	e75d      	b.n	8001c74 <HAL_GPIO_Init+0x50>
 8001db8:	2500      	movs	r5, #0
 8001dba:	e7a7      	b.n	8001d0c <HAL_GPIO_Init+0xe8>
 8001dbc:	2501      	movs	r5, #1
 8001dbe:	e7a5      	b.n	8001d0c <HAL_GPIO_Init+0xe8>
 8001dc0:	2502      	movs	r5, #2
 8001dc2:	e7a3      	b.n	8001d0c <HAL_GPIO_Init+0xe8>
 8001dc4:	40010400 	.word	0x40010400
 8001dc8:	40021000 	.word	0x40021000
 8001dcc:	40010800 	.word	0x40010800
 8001dd0:	10210000 	.word	0x10210000
 8001dd4:	10310000 	.word	0x10310000
 8001dd8:	10320000 	.word	0x10320000
 8001ddc:	10110000 	.word	0x10110000
 8001de0:	10220000 	.word	0x10220000

08001de4 <HAL_GPIO_ReadPin>:
 8001de4:	6883      	ldr	r3, [r0, #8]
 8001de6:	4219      	tst	r1, r3
 8001de8:	bf14      	ite	ne
 8001dea:	2001      	movne	r0, #1
 8001dec:	2000      	moveq	r0, #0
 8001dee:	4770      	bx	lr

08001df0 <HAL_GPIO_WritePin>:
 8001df0:	b10a      	cbz	r2, 8001df6 <HAL_GPIO_WritePin+0x6>
 8001df2:	6101      	str	r1, [r0, #16]
 8001df4:	4770      	bx	lr
 8001df6:	0409      	lsls	r1, r1, #16
 8001df8:	e7fb      	b.n	8001df2 <HAL_GPIO_WritePin+0x2>

08001dfa <HAL_PCD_SetAddress>:
 8001dfa:	f890 2228 	ldrb.w	r2, [r0, #552]	; 0x228
 8001dfe:	b510      	push	{r4, lr}
 8001e00:	2a01      	cmp	r2, #1
 8001e02:	4604      	mov	r4, r0
 8001e04:	d00b      	beq.n	8001e1e <HAL_PCD_SetAddress+0x24>
 8001e06:	2201      	movs	r2, #1
 8001e08:	f880 2228 	strb.w	r2, [r0, #552]	; 0x228
 8001e0c:	f884 1024 	strb.w	r1, [r4, #36]	; 0x24
 8001e10:	6800      	ldr	r0, [r0, #0]
 8001e12:	f001 fe1e 	bl	8003a52 <USB_SetDevAddress>
 8001e16:	2000      	movs	r0, #0
 8001e18:	f884 0228 	strb.w	r0, [r4, #552]	; 0x228
 8001e1c:	bd10      	pop	{r4, pc}
 8001e1e:	2002      	movs	r0, #2
 8001e20:	e7fc      	b.n	8001e1c <HAL_PCD_SetAddress+0x22>

08001e22 <HAL_PCD_EP_Open>:
 8001e22:	b570      	push	{r4, r5, r6, lr}
 8001e24:	4604      	mov	r4, r0
 8001e26:	f001 0507 	and.w	r5, r1, #7
 8001e2a:	f011 0f80 	tst.w	r1, #128	; 0x80
 8001e2e:	ea4f 1045 	mov.w	r0, r5, lsl #5
 8001e32:	bf14      	ite	ne
 8001e34:	f100 0128 	addne.w	r1, r0, #40	; 0x28
 8001e38:	f500 7194 	addeq.w	r1, r0, #296	; 0x128
 8001e3c:	eb04 0600 	add.w	r6, r4, r0
 8001e40:	bf17      	itett	ne
 8001e42:	2001      	movne	r0, #1
 8001e44:	2000      	moveq	r0, #0
 8001e46:	1909      	addne	r1, r1, r4
 8001e48:	f886 0029 	strbne.w	r0, [r6, #41]	; 0x29
 8001e4c:	bf04      	itt	eq
 8001e4e:	1909      	addeq	r1, r1, r4
 8001e50:	f886 0129 	strbeq.w	r0, [r6, #297]	; 0x129
 8001e54:	610a      	str	r2, [r1, #16]
 8001e56:	784a      	ldrb	r2, [r1, #1]
 8001e58:	700d      	strb	r5, [r1, #0]
 8001e5a:	70cb      	strb	r3, [r1, #3]
 8001e5c:	b102      	cbz	r2, 8001e60 <HAL_PCD_EP_Open+0x3e>
 8001e5e:	81cd      	strh	r5, [r1, #14]
 8001e60:	2b02      	cmp	r3, #2
 8001e62:	bf04      	itt	eq
 8001e64:	2300      	moveq	r3, #0
 8001e66:	710b      	strbeq	r3, [r1, #4]
 8001e68:	f894 3228 	ldrb.w	r3, [r4, #552]	; 0x228
 8001e6c:	2b01      	cmp	r3, #1
 8001e6e:	d009      	beq.n	8001e84 <HAL_PCD_EP_Open+0x62>
 8001e70:	2301      	movs	r3, #1
 8001e72:	6820      	ldr	r0, [r4, #0]
 8001e74:	f884 3228 	strb.w	r3, [r4, #552]	; 0x228
 8001e78:	f001 fc32 	bl	80036e0 <USB_ActivateEndpoint>
 8001e7c:	2000      	movs	r0, #0
 8001e7e:	f884 0228 	strb.w	r0, [r4, #552]	; 0x228
 8001e82:	bd70      	pop	{r4, r5, r6, pc}
 8001e84:	2002      	movs	r0, #2
 8001e86:	e7fc      	b.n	8001e82 <HAL_PCD_EP_Open+0x60>

08001e88 <HAL_PCD_EP_Receive>:
 8001e88:	b570      	push	{r4, r5, r6, lr}
 8001e8a:	2600      	movs	r6, #0
 8001e8c:	f001 0107 	and.w	r1, r1, #7
 8001e90:	014d      	lsls	r5, r1, #5
 8001e92:	1944      	adds	r4, r0, r5
 8001e94:	f884 1128 	strb.w	r1, [r4, #296]	; 0x128
 8001e98:	f505 7194 	add.w	r1, r5, #296	; 0x128
 8001e9c:	4401      	add	r1, r0
 8001e9e:	f8c4 213c 	str.w	r2, [r4, #316]	; 0x13c
 8001ea2:	f8c4 3140 	str.w	r3, [r4, #320]	; 0x140
 8001ea6:	f8c4 6144 	str.w	r6, [r4, #324]	; 0x144
 8001eaa:	f884 6129 	strb.w	r6, [r4, #297]	; 0x129
 8001eae:	6800      	ldr	r0, [r0, #0]
 8001eb0:	f001 fdea 	bl	8003a88 <USB_EPStartXfer>
 8001eb4:	4630      	mov	r0, r6
 8001eb6:	bd70      	pop	{r4, r5, r6, pc}

08001eb8 <HAL_PCD_EP_Transmit>:
 8001eb8:	f001 0107 	and.w	r1, r1, #7
 8001ebc:	b570      	push	{r4, r5, r6, lr}
 8001ebe:	014d      	lsls	r5, r1, #5
 8001ec0:	1944      	adds	r4, r0, r5
 8001ec2:	e9c4 230f 	strd	r2, r3, [r4, #60]	; 0x3c
 8001ec6:	2600      	movs	r6, #0
 8001ec8:	2301      	movs	r3, #1
 8001eca:	f884 1028 	strb.w	r1, [r4, #40]	; 0x28
 8001ece:	f105 0128 	add.w	r1, r5, #40	; 0x28
 8001ed2:	4401      	add	r1, r0
 8001ed4:	6466      	str	r6, [r4, #68]	; 0x44
 8001ed6:	f884 3029 	strb.w	r3, [r4, #41]	; 0x29
 8001eda:	6800      	ldr	r0, [r0, #0]
 8001edc:	f001 fdd4 	bl	8003a88 <USB_EPStartXfer>
 8001ee0:	4630      	mov	r0, r6
 8001ee2:	bd70      	pop	{r4, r5, r6, pc}

08001ee4 <HAL_PCD_IRQHandler>:
 8001ee4:	e92d 4ff8 	stmdb	sp!, {r3, r4, r5, r6, r7, r8, r9, sl, fp, lr}
 8001ee8:	4604      	mov	r4, r0
 8001eea:	6800      	ldr	r0, [r0, #0]
 8001eec:	f001 fdb7 	bl	8003a5e <USB_ReadInterrupts>
 8001ef0:	0402      	lsls	r2, r0, #16
 8001ef2:	d50b      	bpl.n	8001f0c <HAL_PCD_IRQHandler+0x28>
 8001ef4:	f8df 940c 	ldr.w	r9, [pc, #1036]	; 8002304 <HAL_PCD_IRQHandler+0x420>
 8001ef8:	f8df a40c 	ldr.w	sl, [pc, #1036]	; 8002308 <HAL_PCD_IRQHandler+0x424>
 8001efc:	f8df b40c 	ldr.w	fp, [pc, #1036]	; 800230c <HAL_PCD_IRQHandler+0x428>
 8001f00:	6820      	ldr	r0, [r4, #0]
 8001f02:	f8b0 3044 	ldrh.w	r3, [r0, #68]	; 0x44
 8001f06:	041b      	lsls	r3, r3, #16
 8001f08:	f100 809e 	bmi.w	8002048 <HAL_PCD_IRQHandler+0x164>
 8001f0c:	6820      	ldr	r0, [r4, #0]
 8001f0e:	f001 fda6 	bl	8003a5e <USB_ReadInterrupts>
 8001f12:	0543      	lsls	r3, r0, #21
 8001f14:	d50f      	bpl.n	8001f36 <HAL_PCD_IRQHandler+0x52>
 8001f16:	6822      	ldr	r2, [r4, #0]
 8001f18:	4620      	mov	r0, r4
 8001f1a:	f8b2 3044 	ldrh.w	r3, [r2, #68]	; 0x44
 8001f1e:	f423 6380 	bic.w	r3, r3, #1024	; 0x400
 8001f22:	041b      	lsls	r3, r3, #16
 8001f24:	0c1b      	lsrs	r3, r3, #16
 8001f26:	f8a2 3044 	strh.w	r3, [r2, #68]	; 0x44
 8001f2a:	f004 fdbc 	bl	8006aa6 <HAL_PCD_ResetCallback>
 8001f2e:	2100      	movs	r1, #0
 8001f30:	4620      	mov	r0, r4
 8001f32:	f7ff ff62 	bl	8001dfa <HAL_PCD_SetAddress>
 8001f36:	6820      	ldr	r0, [r4, #0]
 8001f38:	f001 fd91 	bl	8003a5e <USB_ReadInterrupts>
 8001f3c:	0447      	lsls	r7, r0, #17
 8001f3e:	d508      	bpl.n	8001f52 <HAL_PCD_IRQHandler+0x6e>
 8001f40:	6822      	ldr	r2, [r4, #0]
 8001f42:	f8b2 3044 	ldrh.w	r3, [r2, #68]	; 0x44
 8001f46:	f423 4380 	bic.w	r3, r3, #16384	; 0x4000
 8001f4a:	041b      	lsls	r3, r3, #16
 8001f4c:	0c1b      	lsrs	r3, r3, #16
 8001f4e:	f8a2 3044 	strh.w	r3, [r2, #68]	; 0x44
 8001f52:	6820      	ldr	r0, [r4, #0]
 8001f54:	f001 fd83 	bl	8003a5e <USB_ReadInterrupts>
 8001f58:	0486      	lsls	r6, r0, #18
 8001f5a:	d508      	bpl.n	8001f6e <HAL_PCD_IRQHandler+0x8a>
 8001f5c:	6822      	ldr	r2, [r4, #0]
 8001f5e:	f8b2 3044 	ldrh.w	r3, [r2, #68]	; 0x44
 8001f62:	f423 5300 	bic.w	r3, r3, #8192	; 0x2000
 8001f66:	041b      	lsls	r3, r3, #16
 8001f68:	0c1b      	lsrs	r3, r3, #16
 8001f6a:	f8a2 3044 	strh.w	r3, [r2, #68]	; 0x44
 8001f6e:	6820      	ldr	r0, [r4, #0]
 8001f70:	f001 fd75 	bl	8003a5e <USB_ReadInterrupts>
 8001f74:	04c5      	lsls	r5, r0, #19
 8001f76:	d51c      	bpl.n	8001fb2 <HAL_PCD_IRQHandler+0xce>
 8001f78:	6822      	ldr	r2, [r4, #0]
 8001f7a:	4620      	mov	r0, r4
 8001f7c:	f8b2 3040 	ldrh.w	r3, [r2, #64]	; 0x40
 8001f80:	f023 0304 	bic.w	r3, r3, #4
 8001f84:	041b      	lsls	r3, r3, #16
 8001f86:	0c1b      	lsrs	r3, r3, #16
 8001f88:	f8a2 3040 	strh.w	r3, [r2, #64]	; 0x40
 8001f8c:	f8b2 3040 	ldrh.w	r3, [r2, #64]	; 0x40
 8001f90:	f023 0308 	bic.w	r3, r3, #8
 8001f94:	041b      	lsls	r3, r3, #16
 8001f96:	0c1b      	lsrs	r3, r3, #16
 8001f98:	f8a2 3040 	strh.w	r3, [r2, #64]	; 0x40
 8001f9c:	f004 fda6 	bl	8006aec <HAL_PCD_ResumeCallback>
 8001fa0:	6822      	ldr	r2, [r4, #0]
 8001fa2:	f8b2 3044 	ldrh.w	r3, [r2, #68]	; 0x44
 8001fa6:	f423 5380 	bic.w	r3, r3, #4096	; 0x1000
 8001faa:	041b      	lsls	r3, r3, #16
 8001fac:	0c1b      	lsrs	r3, r3, #16
 8001fae:	f8a2 3044 	strh.w	r3, [r2, #68]	; 0x44
 8001fb2:	6820      	ldr	r0, [r4, #0]
 8001fb4:	f001 fd53 	bl	8003a5e <USB_ReadInterrupts>
 8001fb8:	0500      	lsls	r0, r0, #20
 8001fba:	d524      	bpl.n	8002006 <HAL_PCD_IRQHandler+0x122>
 8001fbc:	6820      	ldr	r0, [r4, #0]
 8001fbe:	f8b0 3040 	ldrh.w	r3, [r0, #64]	; 0x40
 8001fc2:	f043 0308 	orr.w	r3, r3, #8
 8001fc6:	f8a0 3040 	strh.w	r3, [r0, #64]	; 0x40
 8001fca:	f8b0 3044 	ldrh.w	r3, [r0, #68]	; 0x44
 8001fce:	f423 6300 	bic.w	r3, r3, #2048	; 0x800
 8001fd2:	041b      	lsls	r3, r3, #16
 8001fd4:	0c1b      	lsrs	r3, r3, #16
 8001fd6:	f8a0 3044 	strh.w	r3, [r0, #68]	; 0x44
 8001fda:	f8b0 3040 	ldrh.w	r3, [r0, #64]	; 0x40
 8001fde:	f043 0304 	orr.w	r3, r3, #4
 8001fe2:	f8a0 3040 	strh.w	r3, [r0, #64]	; 0x40
 8001fe6:	f001 fd3a 	bl	8003a5e <USB_ReadInterrupts>
 8001fea:	04c1      	lsls	r1, r0, #19
 8001fec:	d508      	bpl.n	8002000 <HAL_PCD_IRQHandler+0x11c>
 8001fee:	6822      	ldr	r2, [r4, #0]
 8001ff0:	f8b2 3044 	ldrh.w	r3, [r2, #68]	; 0x44
 8001ff4:	f423 5380 	bic.w	r3, r3, #4096	; 0x1000
 8001ff8:	041b      	lsls	r3, r3, #16
 8001ffa:	0c1b      	lsrs	r3, r3, #16
 8001ffc:	f8a2 3044 	strh.w	r3, [r2, #68]	; 0x44
 8002000:	4620      	mov	r0, r4
 8002002:	f004 fd63 	bl	8006acc <HAL_PCD_SuspendCallback>
 8002006:	6820      	ldr	r0, [r4, #0]
 8002008:	f001 fd29 	bl	8003a5e <USB_ReadInterrupts>
 800200c:	0582      	lsls	r2, r0, #22
 800200e:	d50b      	bpl.n	8002028 <HAL_PCD_IRQHandler+0x144>
 8002010:	6822      	ldr	r2, [r4, #0]
 8002012:	4620      	mov	r0, r4
 8002014:	f8b2 3044 	ldrh.w	r3, [r2, #68]	; 0x44
 8002018:	f423 7300 	bic.w	r3, r3, #512	; 0x200
 800201c:	041b      	lsls	r3, r3, #16
 800201e:	0c1b      	lsrs	r3, r3, #16
 8002020:	f8a2 3044 	strh.w	r3, [r2, #68]	; 0x44
 8002024:	f004 fd3b 	bl	8006a9e <HAL_PCD_SOFCallback>
 8002028:	6820      	ldr	r0, [r4, #0]
 800202a:	f001 fd18 	bl	8003a5e <USB_ReadInterrupts>
 800202e:	05c3      	lsls	r3, r0, #23
 8002030:	d508      	bpl.n	8002044 <HAL_PCD_IRQHandler+0x160>
 8002032:	6822      	ldr	r2, [r4, #0]
 8002034:	f8b2 3044 	ldrh.w	r3, [r2, #68]	; 0x44
 8002038:	f423 7380 	bic.w	r3, r3, #256	; 0x100
 800203c:	041b      	lsls	r3, r3, #16
 800203e:	0c1b      	lsrs	r3, r3, #16
 8002040:	f8a2 3044 	strh.w	r3, [r2, #68]	; 0x44
 8002044:	e8bd 8ff8 	ldmia.w	sp!, {r3, r4, r5, r6, r7, r8, r9, sl, fp, pc}
 8002048:	f8b0 1044 	ldrh.w	r1, [r0, #68]	; 0x44
 800204c:	b289      	uxth	r1, r1
 800204e:	f011 060f 	ands.w	r6, r1, #15
 8002052:	f040 80b1 	bne.w	80021b8 <HAL_PCD_IRQHandler+0x2d4>
 8002056:	f011 0110 	ands.w	r1, r1, #16
 800205a:	8803      	ldrh	r3, [r0, #0]
 800205c:	d12a      	bne.n	80020b4 <HAL_PCD_IRQHandler+0x1d0>
 800205e:	ea09 0303 	and.w	r3, r9, r3
 8002062:	f443 4300 	orr.w	r3, r3, #32768	; 0x8000
 8002066:	8003      	strh	r3, [r0, #0]
 8002068:	f8b0 3050 	ldrh.w	r3, [r0, #80]	; 0x50
 800206c:	f894 2028 	ldrb.w	r2, [r4, #40]	; 0x28
 8002070:	eb03 03c2 	add.w	r3, r3, r2, lsl #3
 8002074:	eb00 0043 	add.w	r0, r0, r3, lsl #1
 8002078:	f8b0 3404 	ldrh.w	r3, [r0, #1028]	; 0x404
 800207c:	6be2      	ldr	r2, [r4, #60]	; 0x3c
 800207e:	f3c3 0309 	ubfx	r3, r3, #0, #10
 8002082:	6463      	str	r3, [r4, #68]	; 0x44
 8002084:	4413      	add	r3, r2
 8002086:	63e3      	str	r3, [r4, #60]	; 0x3c
 8002088:	4620      	mov	r0, r4
 800208a:	f004 fd01 	bl	8006a90 <HAL_PCD_DataInStageCallback>
 800208e:	f894 3024 	ldrb.w	r3, [r4, #36]	; 0x24
 8002092:	2b00      	cmp	r3, #0
 8002094:	f43f af34 	beq.w	8001f00 <HAL_PCD_IRQHandler+0x1c>
 8002098:	6c22      	ldr	r2, [r4, #64]	; 0x40
 800209a:	2a00      	cmp	r2, #0
 800209c:	f47f af30 	bne.w	8001f00 <HAL_PCD_IRQHandler+0x1c>
 80020a0:	f894 3024 	ldrb.w	r3, [r4, #36]	; 0x24
 80020a4:	6821      	ldr	r1, [r4, #0]
 80020a6:	f043 0380 	orr.w	r3, r3, #128	; 0x80
 80020aa:	f8a1 304c 	strh.w	r3, [r1, #76]	; 0x4c
 80020ae:	f884 2024 	strb.w	r2, [r4, #36]	; 0x24
 80020b2:	e725      	b.n	8001f00 <HAL_PCD_IRQHandler+0x1c>
 80020b4:	b29b      	uxth	r3, r3
 80020b6:	f413 6500 	ands.w	r5, r3, #2048	; 0x800
 80020ba:	d020      	beq.n	80020fe <HAL_PCD_IRQHandler+0x21a>
 80020bc:	f8b0 3050 	ldrh.w	r3, [r0, #80]	; 0x50
 80020c0:	f894 2128 	ldrb.w	r2, [r4, #296]	; 0x128
 80020c4:	f504 710c 	add.w	r1, r4, #560	; 0x230
 80020c8:	eb03 03c2 	add.w	r3, r3, r2, lsl #3
 80020cc:	eb00 0343 	add.w	r3, r0, r3, lsl #1
 80020d0:	f8b3 340c 	ldrh.w	r3, [r3, #1036]	; 0x40c
 80020d4:	f8b4 212e 	ldrh.w	r2, [r4, #302]	; 0x12e
 80020d8:	f3c3 0309 	ubfx	r3, r3, #0, #10
 80020dc:	f8c4 3144 	str.w	r3, [r4, #324]	; 0x144
 80020e0:	f001 fda6 	bl	8003c30 <USB_ReadPMA>
 80020e4:	6822      	ldr	r2, [r4, #0]
 80020e6:	4620      	mov	r0, r4
 80020e8:	8813      	ldrh	r3, [r2, #0]
 80020ea:	f023 0370 	bic.w	r3, r3, #112	; 0x70
 80020ee:	051b      	lsls	r3, r3, #20
 80020f0:	0d1b      	lsrs	r3, r3, #20
 80020f2:	f043 0380 	orr.w	r3, r3, #128	; 0x80
 80020f6:	8013      	strh	r3, [r2, #0]
 80020f8:	f004 fcbc 	bl	8006a74 <HAL_PCD_SetupStageCallback>
 80020fc:	e700      	b.n	8001f00 <HAL_PCD_IRQHandler+0x1c>
 80020fe:	041f      	lsls	r7, r3, #16
 8002100:	f57f aefe 	bpl.w	8001f00 <HAL_PCD_IRQHandler+0x1c>
 8002104:	8803      	ldrh	r3, [r0, #0]
 8002106:	f023 0370 	bic.w	r3, r3, #112	; 0x70
 800210a:	051b      	lsls	r3, r3, #20
 800210c:	0d1b      	lsrs	r3, r3, #20
 800210e:	f043 0380 	orr.w	r3, r3, #128	; 0x80
 8002112:	8003      	strh	r3, [r0, #0]
 8002114:	f8b0 3050 	ldrh.w	r3, [r0, #80]	; 0x50
 8002118:	f894 2128 	ldrb.w	r2, [r4, #296]	; 0x128
 800211c:	eb03 03c2 	add.w	r3, r3, r2, lsl #3
 8002120:	eb00 0343 	add.w	r3, r0, r3, lsl #1
 8002124:	f8b3 340c 	ldrh.w	r3, [r3, #1036]	; 0x40c
 8002128:	f3c3 0309 	ubfx	r3, r3, #0, #10
 800212c:	f8c4 3144 	str.w	r3, [r4, #324]	; 0x144
 8002130:	b18b      	cbz	r3, 8002156 <HAL_PCD_IRQHandler+0x272>
 8002132:	f8d4 113c 	ldr.w	r1, [r4, #316]	; 0x13c
 8002136:	b171      	cbz	r1, 8002156 <HAL_PCD_IRQHandler+0x272>
 8002138:	f8b4 212e 	ldrh.w	r2, [r4, #302]	; 0x12e
 800213c:	f001 fd78 	bl	8003c30 <USB_ReadPMA>
 8002140:	f8d4 313c 	ldr.w	r3, [r4, #316]	; 0x13c
 8002144:	f8d4 2144 	ldr.w	r2, [r4, #324]	; 0x144
 8002148:	4629      	mov	r1, r5
 800214a:	4413      	add	r3, r2
 800214c:	f8c4 313c 	str.w	r3, [r4, #316]	; 0x13c
 8002150:	4620      	mov	r0, r4
 8002152:	f004 fc95 	bl	8006a80 <HAL_PCD_DataOutStageCallback>
 8002156:	6821      	ldr	r1, [r4, #0]
 8002158:	f8d4 5138 	ldr.w	r5, [r4, #312]	; 0x138
 800215c:	f8b1 3050 	ldrh.w	r3, [r1, #80]	; 0x50
 8002160:	f201 400c 	addw	r0, r1, #1036	; 0x40c
 8002164:	b29b      	uxth	r3, r3
 8002166:	b9bd      	cbnz	r5, 8002198 <HAL_PCD_IRQHandler+0x2b4>
 8002168:	5ac2      	ldrh	r2, [r0, r3]
 800216a:	f422 42f8 	bic.w	r2, r2, #31744	; 0x7c00
 800216e:	0412      	lsls	r2, r2, #16
 8002170:	0c12      	lsrs	r2, r2, #16
 8002172:	52c2      	strh	r2, [r0, r3]
 8002174:	5ac2      	ldrh	r2, [r0, r3]
 8002176:	ea4a 0202 	orr.w	r2, sl, r2
 800217a:	b292      	uxth	r2, r2
 800217c:	52c2      	strh	r2, [r0, r3]
 800217e:	880b      	ldrh	r3, [r1, #0]
 8002180:	f423 4380 	bic.w	r3, r3, #16384	; 0x4000
 8002184:	f023 0370 	bic.w	r3, r3, #112	; 0x70
 8002188:	f483 5340 	eor.w	r3, r3, #12288	; 0x3000
 800218c:	f443 4300 	orr.w	r3, r3, #32768	; 0x8000
 8002190:	f043 0380 	orr.w	r3, r3, #128	; 0x80
 8002194:	800b      	strh	r3, [r1, #0]
 8002196:	e6b3      	b.n	8001f00 <HAL_PCD_IRQHandler+0x1c>
 8002198:	2d3e      	cmp	r5, #62	; 0x3e
 800219a:	d805      	bhi.n	80021a8 <HAL_PCD_IRQHandler+0x2c4>
 800219c:	086a      	lsrs	r2, r5, #1
 800219e:	07ee      	lsls	r6, r5, #31
 80021a0:	bf48      	it	mi
 80021a2:	3201      	addmi	r2, #1
 80021a4:	0292      	lsls	r2, r2, #10
 80021a6:	e7e8      	b.n	800217a <HAL_PCD_IRQHandler+0x296>
 80021a8:	096a      	lsrs	r2, r5, #5
 80021aa:	06ed      	lsls	r5, r5, #27
 80021ac:	bf08      	it	eq
 80021ae:	f102 32ff 	addeq.w	r2, r2, #4294967295
 80021b2:	ea4a 2282 	orr.w	r2, sl, r2, lsl #10
 80021b6:	e7e0      	b.n	800217a <HAL_PCD_IRQHandler+0x296>
 80021b8:	f830 8026 	ldrh.w	r8, [r0, r6, lsl #2]
 80021bc:	fa1f f888 	uxth.w	r8, r8
 80021c0:	f418 4f00 	tst.w	r8, #32768	; 0x8000
 80021c4:	d03c      	beq.n	8002240 <HAL_PCD_IRQHandler+0x35c>
 80021c6:	f830 3026 	ldrh.w	r3, [r0, r6, lsl #2]
 80021ca:	0177      	lsls	r7, r6, #5
 80021cc:	f023 0370 	bic.w	r3, r3, #112	; 0x70
 80021d0:	051b      	lsls	r3, r3, #20
 80021d2:	0d1b      	lsrs	r3, r3, #20
 80021d4:	f043 0380 	orr.w	r3, r3, #128	; 0x80
 80021d8:	f820 3026 	strh.w	r3, [r0, r6, lsl #2]
 80021dc:	19e1      	adds	r1, r4, r7
 80021de:	f891 3134 	ldrb.w	r3, [r1, #308]	; 0x134
 80021e2:	f500 6280 	add.w	r2, r0, #1024	; 0x400
 80021e6:	2b00      	cmp	r3, #0
 80021e8:	d150      	bne.n	800228c <HAL_PCD_IRQHandler+0x3a8>
 80021ea:	f8b0 3050 	ldrh.w	r3, [r0, #80]	; 0x50
 80021ee:	f891 5128 	ldrb.w	r5, [r1, #296]	; 0x128
 80021f2:	3306      	adds	r3, #6
 80021f4:	eb03 03c5 	add.w	r3, r3, r5, lsl #3
 80021f8:	f832 5013 	ldrh.w	r5, [r2, r3, lsl #1]
 80021fc:	f3c5 0509 	ubfx	r5, r5, #0, #10
 8002200:	b135      	cbz	r5, 8002210 <HAL_PCD_IRQHandler+0x32c>
 8002202:	f8b1 212e 	ldrh.w	r2, [r1, #302]	; 0x12e
 8002206:	462b      	mov	r3, r5
 8002208:	f8d1 113c 	ldr.w	r1, [r1, #316]	; 0x13c
 800220c:	f001 fd10 	bl	8003c30 <USB_ReadPMA>
 8002210:	19e1      	adds	r1, r4, r7
 8002212:	f8d1 3144 	ldr.w	r3, [r1, #324]	; 0x144
 8002216:	f8d1 213c 	ldr.w	r2, [r1, #316]	; 0x13c
 800221a:	442b      	add	r3, r5
 800221c:	f8c1 3144 	str.w	r3, [r1, #324]	; 0x144
 8002220:	f8d1 3140 	ldr.w	r3, [r1, #320]	; 0x140
 8002224:	442a      	add	r2, r5
 8002226:	f8c1 213c 	str.w	r2, [r1, #316]	; 0x13c
 800222a:	b11b      	cbz	r3, 8002234 <HAL_PCD_IRQHandler+0x350>
 800222c:	f8d1 0138 	ldr.w	r0, [r1, #312]	; 0x138
 8002230:	4285      	cmp	r5, r0
 8002232:	d25d      	bcs.n	80022f0 <HAL_PCD_IRQHandler+0x40c>
 8002234:	4427      	add	r7, r4
 8002236:	f897 1128 	ldrb.w	r1, [r7, #296]	; 0x128
 800223a:	4620      	mov	r0, r4
 800223c:	f004 fc20 	bl	8006a80 <HAL_PCD_DataOutStageCallback>
 8002240:	f018 0f80 	tst.w	r8, #128	; 0x80
 8002244:	f43f ae5c 	beq.w	8001f00 <HAL_PCD_IRQHandler+0x1c>
 8002248:	6823      	ldr	r3, [r4, #0]
 800224a:	4620      	mov	r0, r4
 800224c:	f833 2026 	ldrh.w	r2, [r3, r6, lsl #2]
 8002250:	ea09 0202 	and.w	r2, r9, r2
 8002254:	f442 4200 	orr.w	r2, r2, #32768	; 0x8000
 8002258:	f823 2026 	strh.w	r2, [r3, r6, lsl #2]
 800225c:	f8b3 2050 	ldrh.w	r2, [r3, #80]	; 0x50
 8002260:	eb04 1646 	add.w	r6, r4, r6, lsl #5
 8002264:	f896 1028 	ldrb.w	r1, [r6, #40]	; 0x28
 8002268:	3202      	adds	r2, #2
 800226a:	eb02 02c1 	add.w	r2, r2, r1, lsl #3
 800226e:	eb03 0342 	add.w	r3, r3, r2, lsl #1
 8002272:	f8b3 2400 	ldrh.w	r2, [r3, #1024]	; 0x400
 8002276:	6bf3      	ldr	r3, [r6, #60]	; 0x3c
 8002278:	f3c2 0209 	ubfx	r2, r2, #0, #10
 800227c:	6472      	str	r2, [r6, #68]	; 0x44
 800227e:	441a      	add	r2, r3
 8002280:	6c33      	ldr	r3, [r6, #64]	; 0x40
 8002282:	63f2      	str	r2, [r6, #60]	; 0x3c
 8002284:	bbd3      	cbnz	r3, 80022fc <HAL_PCD_IRQHandler+0x418>
 8002286:	f004 fc03 	bl	8006a90 <HAL_PCD_DataInStageCallback>
 800228a:	e639      	b.n	8001f00 <HAL_PCD_IRQHandler+0x1c>
 800228c:	f891 3128 	ldrb.w	r3, [r1, #296]	; 0x128
 8002290:	f830 5023 	ldrh.w	r5, [r0, r3, lsl #2]
 8002294:	00db      	lsls	r3, r3, #3
 8002296:	f415 4f80 	tst.w	r5, #16384	; 0x4000
 800229a:	f8b0 5050 	ldrh.w	r5, [r0, #80]	; 0x50
 800229e:	442b      	add	r3, r5
 80022a0:	d01b      	beq.n	80022da <HAL_PCD_IRQHandler+0x3f6>
 80022a2:	3302      	adds	r3, #2
 80022a4:	f832 5013 	ldrh.w	r5, [r2, r3, lsl #1]
 80022a8:	f3c5 0509 	ubfx	r5, r5, #0, #10
 80022ac:	b135      	cbz	r5, 80022bc <HAL_PCD_IRQHandler+0x3d8>
 80022ae:	462b      	mov	r3, r5
 80022b0:	f8b1 2130 	ldrh.w	r2, [r1, #304]	; 0x130
 80022b4:	f8d1 113c 	ldr.w	r1, [r1, #316]	; 0x13c
 80022b8:	f001 fcba 	bl	8003c30 <USB_ReadPMA>
 80022bc:	19e3      	adds	r3, r4, r7
 80022be:	f893 1128 	ldrb.w	r1, [r3, #296]	; 0x128
 80022c2:	6822      	ldr	r2, [r4, #0]
 80022c4:	f832 3021 	ldrh.w	r3, [r2, r1, lsl #2]
 80022c8:	ea0b 0303 	and.w	r3, fp, r3
 80022cc:	f443 4300 	orr.w	r3, r3, #32768	; 0x8000
 80022d0:	f043 03c0 	orr.w	r3, r3, #192	; 0xc0
 80022d4:	f822 3021 	strh.w	r3, [r2, r1, lsl #2]
 80022d8:	e79a      	b.n	8002210 <HAL_PCD_IRQHandler+0x32c>
 80022da:	3306      	adds	r3, #6
 80022dc:	f832 5013 	ldrh.w	r5, [r2, r3, lsl #1]
 80022e0:	f3c5 0509 	ubfx	r5, r5, #0, #10
 80022e4:	2d00      	cmp	r5, #0
 80022e6:	d0e9      	beq.n	80022bc <HAL_PCD_IRQHandler+0x3d8>
 80022e8:	462b      	mov	r3, r5
 80022ea:	f8b1 2132 	ldrh.w	r2, [r1, #306]	; 0x132
 80022ee:	e7e1      	b.n	80022b4 <HAL_PCD_IRQHandler+0x3d0>
 80022f0:	f891 1128 	ldrb.w	r1, [r1, #296]	; 0x128
 80022f4:	4620      	mov	r0, r4
 80022f6:	f7ff fdc7 	bl	8001e88 <HAL_PCD_EP_Receive>
 80022fa:	e7a1      	b.n	8002240 <HAL_PCD_IRQHandler+0x35c>
 80022fc:	f7ff fddc 	bl	8001eb8 <HAL_PCD_EP_Transmit>
 8002300:	e5fe      	b.n	8001f00 <HAL_PCD_IRQHandler+0x1c>
 8002302:	bf00      	nop
 8002304:	ffff8f0f 	.word	0xffff8f0f
 8002308:	ffff8000 	.word	0xffff8000
 800230c:	ffff8f8f 	.word	0xffff8f8f

08002310 <HAL_PCD_EP_SetStall>:
 8002310:	b538      	push	{r3, r4, r5, lr}
 8002312:	6843      	ldr	r3, [r0, #4]
 8002314:	f001 0507 	and.w	r5, r1, #7
 8002318:	429d      	cmp	r5, r3
 800231a:	4604      	mov	r4, r0
 800231c:	d828      	bhi.n	8002370 <HAL_PCD_EP_SetStall+0x60>
 800231e:	060b      	lsls	r3, r1, #24
 8002320:	d51d      	bpl.n	800235e <HAL_PCD_EP_SetStall+0x4e>
 8002322:	2201      	movs	r2, #1
 8002324:	016b      	lsls	r3, r5, #5
 8002326:	f103 0128 	add.w	r1, r3, #40	; 0x28
 800232a:	4403      	add	r3, r0
 800232c:	4401      	add	r1, r0
 800232e:	f883 2029 	strb.w	r2, [r3, #41]	; 0x29
 8002332:	2301      	movs	r3, #1
 8002334:	700d      	strb	r5, [r1, #0]
 8002336:	708b      	strb	r3, [r1, #2]
 8002338:	f894 2228 	ldrb.w	r2, [r4, #552]	; 0x228
 800233c:	429a      	cmp	r2, r3
 800233e:	d019      	beq.n	8002374 <HAL_PCD_EP_SetStall+0x64>
 8002340:	f884 3228 	strb.w	r3, [r4, #552]	; 0x228
 8002344:	6820      	ldr	r0, [r4, #0]
 8002346:	f001 fb25 	bl	8003994 <USB_EPSetStall>
 800234a:	b925      	cbnz	r5, 8002356 <HAL_PCD_EP_SetStall+0x46>
 800234c:	f504 710c 	add.w	r1, r4, #560	; 0x230
 8002350:	6820      	ldr	r0, [r4, #0]
 8002352:	f001 fb87 	bl	8003a64 <USB_EP0_OutStart>
 8002356:	2000      	movs	r0, #0
 8002358:	f884 0228 	strb.w	r0, [r4, #552]	; 0x228
 800235c:	bd38      	pop	{r3, r4, r5, pc}
 800235e:	2200      	movs	r2, #0
 8002360:	014b      	lsls	r3, r1, #5
 8002362:	f503 7194 	add.w	r1, r3, #296	; 0x128
 8002366:	4403      	add	r3, r0
 8002368:	4401      	add	r1, r0
 800236a:	f883 2129 	strb.w	r2, [r3, #297]	; 0x129
 800236e:	e7e0      	b.n	8002332 <HAL_PCD_EP_SetStall+0x22>
 8002370:	2001      	movs	r0, #1
 8002372:	e7f3      	b.n	800235c <HAL_PCD_EP_SetStall+0x4c>
 8002374:	2002      	movs	r0, #2
 8002376:	e7f1      	b.n	800235c <HAL_PCD_EP_SetStall+0x4c>

08002378 <HAL_PCD_EP_ClrStall>:
 8002378:	b538      	push	{r3, r4, r5, lr}
 800237a:	6843      	ldr	r3, [r0, #4]
 800237c:	f001 020f 	and.w	r2, r1, #15
 8002380:	429a      	cmp	r2, r3
 8002382:	4604      	mov	r4, r0
 8002384:	d827      	bhi.n	80023d6 <HAL_PCD_EP_ClrStall+0x5e>
 8002386:	f001 0207 	and.w	r2, r1, #7
 800238a:	f011 0f80 	tst.w	r1, #128	; 0x80
 800238e:	ea4f 1342 	mov.w	r3, r2, lsl #5
 8002392:	bf14      	ite	ne
 8002394:	f103 0128 	addne.w	r1, r3, #40	; 0x28
 8002398:	f503 7194 	addeq.w	r1, r3, #296	; 0x128
 800239c:	4418      	add	r0, r3
 800239e:	f04f 0500 	mov.w	r5, #0
 80023a2:	bf15      	itete	ne
 80023a4:	2301      	movne	r3, #1
 80023a6:	2300      	moveq	r3, #0
 80023a8:	1909      	addne	r1, r1, r4
 80023aa:	1909      	addeq	r1, r1, r4
 80023ac:	bf14      	ite	ne
 80023ae:	f880 3029 	strbne.w	r3, [r0, #41]	; 0x29
 80023b2:	f880 3129 	strbeq.w	r3, [r0, #297]	; 0x129
 80023b6:	708d      	strb	r5, [r1, #2]
 80023b8:	700a      	strb	r2, [r1, #0]
 80023ba:	f894 3228 	ldrb.w	r3, [r4, #552]	; 0x228
 80023be:	2b01      	cmp	r3, #1
 80023c0:	d00b      	beq.n	80023da <HAL_PCD_EP_ClrStall+0x62>
 80023c2:	2301      	movs	r3, #1
 80023c4:	6820      	ldr	r0, [r4, #0]
 80023c6:	f884 3228 	strb.w	r3, [r4, #552]	; 0x228
 80023ca:	f001 faff 	bl	80039cc <USB_EPClearStall>
 80023ce:	4628      	mov	r0, r5
 80023d0:	f884 5228 	strb.w	r5, [r4, #552]	; 0x228
 80023d4:	bd38      	pop	{r3, r4, r5, pc}
 80023d6:	2001      	movs	r0, #1
 80023d8:	e7fc      	b.n	80023d4 <HAL_PCD_EP_ClrStall+0x5c>
 80023da:	2002      	movs	r0, #2
 80023dc:	e7fa      	b.n	80023d4 <HAL_PCD_EP_ClrStall+0x5c>
	...

080023e0 <HAL_RCC_OscConfig>:
 80023e0:	e92d 41f3 	stmdb	sp!, {r0, r1, r4, r5, r6, r7, r8, lr}
 80023e4:	4605      	mov	r5, r0
 80023e6:	b908      	cbnz	r0, 80023ec <HAL_RCC_OscConfig+0xc>
 80023e8:	2001      	movs	r0, #1
 80023ea:	e03c      	b.n	8002466 <HAL_RCC_OscConfig+0x86>
 80023ec:	6803      	ldr	r3, [r0, #0]
 80023ee:	07db      	lsls	r3, r3, #31
 80023f0:	d410      	bmi.n	8002414 <HAL_RCC_OscConfig+0x34>
 80023f2:	682b      	ldr	r3, [r5, #0]
 80023f4:	079f      	lsls	r7, r3, #30
 80023f6:	d45d      	bmi.n	80024b4 <HAL_RCC_OscConfig+0xd4>
 80023f8:	682b      	ldr	r3, [r5, #0]
 80023fa:	0719      	lsls	r1, r3, #28
 80023fc:	f100 8094 	bmi.w	8002528 <HAL_RCC_OscConfig+0x148>
 8002400:	682b      	ldr	r3, [r5, #0]
 8002402:	075a      	lsls	r2, r3, #29
 8002404:	f100 80be 	bmi.w	8002584 <HAL_RCC_OscConfig+0x1a4>
 8002408:	69e8      	ldr	r0, [r5, #28]
 800240a:	2800      	cmp	r0, #0
 800240c:	f040 812c 	bne.w	8002668 <HAL_RCC_OscConfig+0x288>
 8002410:	2000      	movs	r0, #0
 8002412:	e028      	b.n	8002466 <HAL_RCC_OscConfig+0x86>
 8002414:	4c8f      	ldr	r4, [pc, #572]	; (8002654 <HAL_RCC_OscConfig+0x274>)
 8002416:	6863      	ldr	r3, [r4, #4]
 8002418:	f003 030c 	and.w	r3, r3, #12
 800241c:	2b04      	cmp	r3, #4
 800241e:	d007      	beq.n	8002430 <HAL_RCC_OscConfig+0x50>
 8002420:	6863      	ldr	r3, [r4, #4]
 8002422:	f003 030c 	and.w	r3, r3, #12
 8002426:	2b08      	cmp	r3, #8
 8002428:	d109      	bne.n	800243e <HAL_RCC_OscConfig+0x5e>
 800242a:	6863      	ldr	r3, [r4, #4]
 800242c:	03de      	lsls	r6, r3, #15
 800242e:	d506      	bpl.n	800243e <HAL_RCC_OscConfig+0x5e>
 8002430:	6823      	ldr	r3, [r4, #0]
 8002432:	039c      	lsls	r4, r3, #14
 8002434:	d5dd      	bpl.n	80023f2 <HAL_RCC_OscConfig+0x12>
 8002436:	686b      	ldr	r3, [r5, #4]
 8002438:	2b00      	cmp	r3, #0
 800243a:	d1da      	bne.n	80023f2 <HAL_RCC_OscConfig+0x12>
 800243c:	e7d4      	b.n	80023e8 <HAL_RCC_OscConfig+0x8>
 800243e:	686b      	ldr	r3, [r5, #4]
 8002440:	f5b3 3f80 	cmp.w	r3, #65536	; 0x10000
 8002444:	d112      	bne.n	800246c <HAL_RCC_OscConfig+0x8c>
 8002446:	6823      	ldr	r3, [r4, #0]
 8002448:	f443 3380 	orr.w	r3, r3, #65536	; 0x10000
 800244c:	6023      	str	r3, [r4, #0]
 800244e:	f7fe fec7 	bl	80011e0 <HAL_GetTick>
 8002452:	4606      	mov	r6, r0
 8002454:	6823      	ldr	r3, [r4, #0]
 8002456:	0398      	lsls	r0, r3, #14
 8002458:	d4cb      	bmi.n	80023f2 <HAL_RCC_OscConfig+0x12>
 800245a:	f7fe fec1 	bl	80011e0 <HAL_GetTick>
 800245e:	1b80      	subs	r0, r0, r6
 8002460:	2864      	cmp	r0, #100	; 0x64
 8002462:	d9f7      	bls.n	8002454 <HAL_RCC_OscConfig+0x74>
 8002464:	2003      	movs	r0, #3
 8002466:	b002      	add	sp, #8
 8002468:	e8bd 81f0 	ldmia.w	sp!, {r4, r5, r6, r7, r8, pc}
 800246c:	b99b      	cbnz	r3, 8002496 <HAL_RCC_OscConfig+0xb6>
 800246e:	6823      	ldr	r3, [r4, #0]
 8002470:	f423 3380 	bic.w	r3, r3, #65536	; 0x10000
 8002474:	6023      	str	r3, [r4, #0]
 8002476:	6823      	ldr	r3, [r4, #0]
 8002478:	f423 2380 	bic.w	r3, r3, #262144	; 0x40000
 800247c:	6023      	str	r3, [r4, #0]
 800247e:	f7fe feaf 	bl	80011e0 <HAL_GetTick>
 8002482:	4606      	mov	r6, r0
 8002484:	6823      	ldr	r3, [r4, #0]
 8002486:	0399      	lsls	r1, r3, #14
 8002488:	d5b3      	bpl.n	80023f2 <HAL_RCC_OscConfig+0x12>
 800248a:	f7fe fea9 	bl	80011e0 <HAL_GetTick>
 800248e:	1b80      	subs	r0, r0, r6
 8002490:	2864      	cmp	r0, #100	; 0x64
 8002492:	d9f7      	bls.n	8002484 <HAL_RCC_OscConfig+0xa4>
 8002494:	e7e6      	b.n	8002464 <HAL_RCC_OscConfig+0x84>
 8002496:	f5b3 2fa0 	cmp.w	r3, #327680	; 0x50000
 800249a:	6823      	ldr	r3, [r4, #0]
 800249c:	d103      	bne.n	80024a6 <HAL_RCC_OscConfig+0xc6>
 800249e:	f443 2380 	orr.w	r3, r3, #262144	; 0x40000
 80024a2:	6023      	str	r3, [r4, #0]
 80024a4:	e7cf      	b.n	8002446 <HAL_RCC_OscConfig+0x66>
 80024a6:	f423 3380 	bic.w	r3, r3, #65536	; 0x10000
 80024aa:	6023      	str	r3, [r4, #0]
 80024ac:	6823      	ldr	r3, [r4, #0]
 80024ae:	f423 2380 	bic.w	r3, r3, #262144	; 0x40000
 80024b2:	e7cb      	b.n	800244c <HAL_RCC_OscConfig+0x6c>
 80024b4:	4c67      	ldr	r4, [pc, #412]	; (8002654 <HAL_RCC_OscConfig+0x274>)
 80024b6:	6863      	ldr	r3, [r4, #4]
 80024b8:	f013 0f0c 	tst.w	r3, #12
 80024bc:	d007      	beq.n	80024ce <HAL_RCC_OscConfig+0xee>
 80024be:	6863      	ldr	r3, [r4, #4]
 80024c0:	f003 030c 	and.w	r3, r3, #12
 80024c4:	2b08      	cmp	r3, #8
 80024c6:	d110      	bne.n	80024ea <HAL_RCC_OscConfig+0x10a>
 80024c8:	6863      	ldr	r3, [r4, #4]
 80024ca:	03da      	lsls	r2, r3, #15
 80024cc:	d40d      	bmi.n	80024ea <HAL_RCC_OscConfig+0x10a>
 80024ce:	6823      	ldr	r3, [r4, #0]
 80024d0:	079b      	lsls	r3, r3, #30
 80024d2:	d502      	bpl.n	80024da <HAL_RCC_OscConfig+0xfa>
 80024d4:	692b      	ldr	r3, [r5, #16]
 80024d6:	2b01      	cmp	r3, #1
 80024d8:	d186      	bne.n	80023e8 <HAL_RCC_OscConfig+0x8>
 80024da:	6823      	ldr	r3, [r4, #0]
 80024dc:	696a      	ldr	r2, [r5, #20]
 80024de:	f023 03f8 	bic.w	r3, r3, #248	; 0xf8
 80024e2:	ea43 03c2 	orr.w	r3, r3, r2, lsl #3
 80024e6:	6023      	str	r3, [r4, #0]
 80024e8:	e786      	b.n	80023f8 <HAL_RCC_OscConfig+0x18>
 80024ea:	692a      	ldr	r2, [r5, #16]
 80024ec:	4b5a      	ldr	r3, [pc, #360]	; (8002658 <HAL_RCC_OscConfig+0x278>)
 80024ee:	b16a      	cbz	r2, 800250c <HAL_RCC_OscConfig+0x12c>
 80024f0:	2201      	movs	r2, #1
 80024f2:	601a      	str	r2, [r3, #0]
 80024f4:	f7fe fe74 	bl	80011e0 <HAL_GetTick>
 80024f8:	4606      	mov	r6, r0
 80024fa:	6823      	ldr	r3, [r4, #0]
 80024fc:	079f      	lsls	r7, r3, #30
 80024fe:	d4ec      	bmi.n	80024da <HAL_RCC_OscConfig+0xfa>
 8002500:	f7fe fe6e 	bl	80011e0 <HAL_GetTick>
 8002504:	1b80      	subs	r0, r0, r6
 8002506:	2802      	cmp	r0, #2
 8002508:	d9f7      	bls.n	80024fa <HAL_RCC_OscConfig+0x11a>
 800250a:	e7ab      	b.n	8002464 <HAL_RCC_OscConfig+0x84>
 800250c:	601a      	str	r2, [r3, #0]
 800250e:	f7fe fe67 	bl	80011e0 <HAL_GetTick>
 8002512:	4606      	mov	r6, r0
 8002514:	6823      	ldr	r3, [r4, #0]
 8002516:	0798      	lsls	r0, r3, #30
 8002518:	f57f af6e 	bpl.w	80023f8 <HAL_RCC_OscConfig+0x18>
 800251c:	f7fe fe60 	bl	80011e0 <HAL_GetTick>
 8002520:	1b80      	subs	r0, r0, r6
 8002522:	2802      	cmp	r0, #2
 8002524:	d9f6      	bls.n	8002514 <HAL_RCC_OscConfig+0x134>
 8002526:	e79d      	b.n	8002464 <HAL_RCC_OscConfig+0x84>
 8002528:	69aa      	ldr	r2, [r5, #24]
 800252a:	4c4a      	ldr	r4, [pc, #296]	; (8002654 <HAL_RCC_OscConfig+0x274>)
 800252c:	4b4b      	ldr	r3, [pc, #300]	; (800265c <HAL_RCC_OscConfig+0x27c>)
 800252e:	b1da      	cbz	r2, 8002568 <HAL_RCC_OscConfig+0x188>
 8002530:	2201      	movs	r2, #1
 8002532:	601a      	str	r2, [r3, #0]
 8002534:	f7fe fe54 	bl	80011e0 <HAL_GetTick>
 8002538:	4606      	mov	r6, r0
 800253a:	6a63      	ldr	r3, [r4, #36]	; 0x24
 800253c:	079b      	lsls	r3, r3, #30
 800253e:	d50d      	bpl.n	800255c <HAL_RCC_OscConfig+0x17c>
 8002540:	f44f 52fa 	mov.w	r2, #8000	; 0x1f40
 8002544:	4b46      	ldr	r3, [pc, #280]	; (8002660 <HAL_RCC_OscConfig+0x280>)
 8002546:	681b      	ldr	r3, [r3, #0]
 8002548:	fbb3 f3f2 	udiv	r3, r3, r2
 800254c:	9301      	str	r3, [sp, #4]
 800254e:	bf00      	nop
 8002550:	9b01      	ldr	r3, [sp, #4]
 8002552:	1e5a      	subs	r2, r3, #1
 8002554:	9201      	str	r2, [sp, #4]
 8002556:	2b00      	cmp	r3, #0
 8002558:	d1f9      	bne.n	800254e <HAL_RCC_OscConfig+0x16e>
 800255a:	e751      	b.n	8002400 <HAL_RCC_OscConfig+0x20>
 800255c:	f7fe fe40 	bl	80011e0 <HAL_GetTick>
 8002560:	1b80      	subs	r0, r0, r6
 8002562:	2802      	cmp	r0, #2
 8002564:	d9e9      	bls.n	800253a <HAL_RCC_OscConfig+0x15a>
 8002566:	e77d      	b.n	8002464 <HAL_RCC_OscConfig+0x84>
 8002568:	601a      	str	r2, [r3, #0]
 800256a:	f7fe fe39 	bl	80011e0 <HAL_GetTick>
 800256e:	4606      	mov	r6, r0
 8002570:	6a63      	ldr	r3, [r4, #36]	; 0x24
 8002572:	079f      	lsls	r7, r3, #30
 8002574:	f57f af44 	bpl.w	8002400 <HAL_RCC_OscConfig+0x20>
 8002578:	f7fe fe32 	bl	80011e0 <HAL_GetTick>
 800257c:	1b80      	subs	r0, r0, r6
 800257e:	2802      	cmp	r0, #2
 8002580:	d9f6      	bls.n	8002570 <HAL_RCC_OscConfig+0x190>
 8002582:	e76f      	b.n	8002464 <HAL_RCC_OscConfig+0x84>
 8002584:	4c33      	ldr	r4, [pc, #204]	; (8002654 <HAL_RCC_OscConfig+0x274>)
 8002586:	69e3      	ldr	r3, [r4, #28]
 8002588:	00d8      	lsls	r0, r3, #3
 800258a:	d424      	bmi.n	80025d6 <HAL_RCC_OscConfig+0x1f6>
 800258c:	2701      	movs	r7, #1
 800258e:	69e3      	ldr	r3, [r4, #28]
 8002590:	f043 5380 	orr.w	r3, r3, #268435456	; 0x10000000
 8002594:	61e3      	str	r3, [r4, #28]
 8002596:	69e3      	ldr	r3, [r4, #28]
 8002598:	f003 5380 	and.w	r3, r3, #268435456	; 0x10000000
 800259c:	9300      	str	r3, [sp, #0]
 800259e:	9b00      	ldr	r3, [sp, #0]
 80025a0:	4e30      	ldr	r6, [pc, #192]	; (8002664 <HAL_RCC_OscConfig+0x284>)
 80025a2:	6833      	ldr	r3, [r6, #0]
 80025a4:	05d9      	lsls	r1, r3, #23
 80025a6:	d518      	bpl.n	80025da <HAL_RCC_OscConfig+0x1fa>
 80025a8:	68eb      	ldr	r3, [r5, #12]
 80025aa:	2b01      	cmp	r3, #1
 80025ac:	d126      	bne.n	80025fc <HAL_RCC_OscConfig+0x21c>
 80025ae:	6a23      	ldr	r3, [r4, #32]
 80025b0:	f043 0301 	orr.w	r3, r3, #1
 80025b4:	6223      	str	r3, [r4, #32]
 80025b6:	f7fe fe13 	bl	80011e0 <HAL_GetTick>
 80025ba:	f241 3688 	movw	r6, #5000	; 0x1388
 80025be:	4680      	mov	r8, r0
 80025c0:	6a23      	ldr	r3, [r4, #32]
 80025c2:	079b      	lsls	r3, r3, #30
 80025c4:	d53f      	bpl.n	8002646 <HAL_RCC_OscConfig+0x266>
 80025c6:	2f00      	cmp	r7, #0
 80025c8:	f43f af1e 	beq.w	8002408 <HAL_RCC_OscConfig+0x28>
 80025cc:	69e3      	ldr	r3, [r4, #28]
 80025ce:	f023 5380 	bic.w	r3, r3, #268435456	; 0x10000000
 80025d2:	61e3      	str	r3, [r4, #28]
 80025d4:	e718      	b.n	8002408 <HAL_RCC_OscConfig+0x28>
 80025d6:	2700      	movs	r7, #0
 80025d8:	e7e2      	b.n	80025a0 <HAL_RCC_OscConfig+0x1c0>
 80025da:	6833      	ldr	r3, [r6, #0]
 80025dc:	f443 7380 	orr.w	r3, r3, #256	; 0x100
 80025e0:	6033      	str	r3, [r6, #0]
 80025e2:	f7fe fdfd 	bl	80011e0 <HAL_GetTick>
 80025e6:	4680      	mov	r8, r0
 80025e8:	6833      	ldr	r3, [r6, #0]
 80025ea:	05da      	lsls	r2, r3, #23
 80025ec:	d4dc      	bmi.n	80025a8 <HAL_RCC_OscConfig+0x1c8>
 80025ee:	f7fe fdf7 	bl	80011e0 <HAL_GetTick>
 80025f2:	eba0 0008 	sub.w	r0, r0, r8
 80025f6:	2864      	cmp	r0, #100	; 0x64
 80025f8:	d9f6      	bls.n	80025e8 <HAL_RCC_OscConfig+0x208>
 80025fa:	e733      	b.n	8002464 <HAL_RCC_OscConfig+0x84>
 80025fc:	b9ab      	cbnz	r3, 800262a <HAL_RCC_OscConfig+0x24a>
 80025fe:	6a23      	ldr	r3, [r4, #32]
 8002600:	f241 3888 	movw	r8, #5000	; 0x1388
 8002604:	f023 0301 	bic.w	r3, r3, #1
 8002608:	6223      	str	r3, [r4, #32]
 800260a:	6a23      	ldr	r3, [r4, #32]
 800260c:	f023 0304 	bic.w	r3, r3, #4
 8002610:	6223      	str	r3, [r4, #32]
 8002612:	f7fe fde5 	bl	80011e0 <HAL_GetTick>
 8002616:	4606      	mov	r6, r0
 8002618:	6a23      	ldr	r3, [r4, #32]
 800261a:	0798      	lsls	r0, r3, #30
 800261c:	d5d3      	bpl.n	80025c6 <HAL_RCC_OscConfig+0x1e6>
 800261e:	f7fe fddf 	bl	80011e0 <HAL_GetTick>
 8002622:	1b80      	subs	r0, r0, r6
 8002624:	4540      	cmp	r0, r8
 8002626:	d9f7      	bls.n	8002618 <HAL_RCC_OscConfig+0x238>
 8002628:	e71c      	b.n	8002464 <HAL_RCC_OscConfig+0x84>
 800262a:	2b05      	cmp	r3, #5
 800262c:	6a23      	ldr	r3, [r4, #32]
 800262e:	d103      	bne.n	8002638 <HAL_RCC_OscConfig+0x258>
 8002630:	f043 0304 	orr.w	r3, r3, #4
 8002634:	6223      	str	r3, [r4, #32]
 8002636:	e7ba      	b.n	80025ae <HAL_RCC_OscConfig+0x1ce>
 8002638:	f023 0301 	bic.w	r3, r3, #1
 800263c:	6223      	str	r3, [r4, #32]
 800263e:	6a23      	ldr	r3, [r4, #32]
 8002640:	f023 0304 	bic.w	r3, r3, #4
 8002644:	e7b6      	b.n	80025b4 <HAL_RCC_OscConfig+0x1d4>
 8002646:	f7fe fdcb 	bl	80011e0 <HAL_GetTick>
 800264a:	eba0 0008 	sub.w	r0, r0, r8
 800264e:	42b0      	cmp	r0, r6
 8002650:	d9b6      	bls.n	80025c0 <HAL_RCC_OscConfig+0x1e0>
 8002652:	e707      	b.n	8002464 <HAL_RCC_OscConfig+0x84>
 8002654:	40021000 	.word	0x40021000
 8002658:	42420000 	.word	0x42420000
 800265c:	42420480 	.word	0x42420480
 8002660:	20000074 	.word	0x20000074
 8002664:	40007000 	.word	0x40007000
 8002668:	4b2a      	ldr	r3, [pc, #168]	; (8002714 <HAL_RCC_OscConfig+0x334>)
 800266a:	685a      	ldr	r2, [r3, #4]
 800266c:	461c      	mov	r4, r3
 800266e:	f002 020c 	and.w	r2, r2, #12
 8002672:	2a08      	cmp	r2, #8
 8002674:	d03d      	beq.n	80026f2 <HAL_RCC_OscConfig+0x312>
 8002676:	2300      	movs	r3, #0
 8002678:	4e27      	ldr	r6, [pc, #156]	; (8002718 <HAL_RCC_OscConfig+0x338>)
 800267a:	2802      	cmp	r0, #2
 800267c:	6033      	str	r3, [r6, #0]
 800267e:	d12b      	bne.n	80026d8 <HAL_RCC_OscConfig+0x2f8>
 8002680:	f7fe fdae 	bl	80011e0 <HAL_GetTick>
 8002684:	4607      	mov	r7, r0
 8002686:	6823      	ldr	r3, [r4, #0]
 8002688:	0199      	lsls	r1, r3, #6
 800268a:	d41f      	bmi.n	80026cc <HAL_RCC_OscConfig+0x2ec>
 800268c:	6a2b      	ldr	r3, [r5, #32]
 800268e:	f5b3 3f80 	cmp.w	r3, #65536	; 0x10000
 8002692:	d105      	bne.n	80026a0 <HAL_RCC_OscConfig+0x2c0>
 8002694:	6862      	ldr	r2, [r4, #4]
 8002696:	68a9      	ldr	r1, [r5, #8]
 8002698:	f422 3200 	bic.w	r2, r2, #131072	; 0x20000
 800269c:	430a      	orrs	r2, r1
 800269e:	6062      	str	r2, [r4, #4]
 80026a0:	6a69      	ldr	r1, [r5, #36]	; 0x24
 80026a2:	6862      	ldr	r2, [r4, #4]
 80026a4:	430b      	orrs	r3, r1
 80026a6:	f422 1274 	bic.w	r2, r2, #3997696	; 0x3d0000
 80026aa:	4313      	orrs	r3, r2
 80026ac:	6063      	str	r3, [r4, #4]
 80026ae:	2301      	movs	r3, #1
 80026b0:	6033      	str	r3, [r6, #0]
 80026b2:	f7fe fd95 	bl	80011e0 <HAL_GetTick>
 80026b6:	4605      	mov	r5, r0
 80026b8:	6823      	ldr	r3, [r4, #0]
 80026ba:	019a      	lsls	r2, r3, #6
 80026bc:	f53f aea8 	bmi.w	8002410 <HAL_RCC_OscConfig+0x30>
 80026c0:	f7fe fd8e 	bl	80011e0 <HAL_GetTick>
 80026c4:	1b40      	subs	r0, r0, r5
 80026c6:	2802      	cmp	r0, #2
 80026c8:	d9f6      	bls.n	80026b8 <HAL_RCC_OscConfig+0x2d8>
 80026ca:	e6cb      	b.n	8002464 <HAL_RCC_OscConfig+0x84>
 80026cc:	f7fe fd88 	bl	80011e0 <HAL_GetTick>
 80026d0:	1bc0      	subs	r0, r0, r7
 80026d2:	2802      	cmp	r0, #2
 80026d4:	d9d7      	bls.n	8002686 <HAL_RCC_OscConfig+0x2a6>
 80026d6:	e6c5      	b.n	8002464 <HAL_RCC_OscConfig+0x84>
 80026d8:	f7fe fd82 	bl	80011e0 <HAL_GetTick>
 80026dc:	4605      	mov	r5, r0
 80026de:	6823      	ldr	r3, [r4, #0]
 80026e0:	019b      	lsls	r3, r3, #6
 80026e2:	f57f ae95 	bpl.w	8002410 <HAL_RCC_OscConfig+0x30>
 80026e6:	f7fe fd7b 	bl	80011e0 <HAL_GetTick>
 80026ea:	1b40      	subs	r0, r0, r5
 80026ec:	2802      	cmp	r0, #2
 80026ee:	d9f6      	bls.n	80026de <HAL_RCC_OscConfig+0x2fe>
 80026f0:	e6b8      	b.n	8002464 <HAL_RCC_OscConfig+0x84>
 80026f2:	2801      	cmp	r0, #1
 80026f4:	f43f aeb7 	beq.w	8002466 <HAL_RCC_OscConfig+0x86>
 80026f8:	6858      	ldr	r0, [r3, #4]
 80026fa:	6a2b      	ldr	r3, [r5, #32]
 80026fc:	f400 3280 	and.w	r2, r0, #65536	; 0x10000
 8002700:	429a      	cmp	r2, r3
 8002702:	f47f ae71 	bne.w	80023e8 <HAL_RCC_OscConfig+0x8>
 8002706:	6a6b      	ldr	r3, [r5, #36]	; 0x24
 8002708:	f400 1070 	and.w	r0, r0, #3932160	; 0x3c0000
 800270c:	1ac0      	subs	r0, r0, r3
 800270e:	bf18      	it	ne
 8002710:	2001      	movne	r0, #1
 8002712:	e6a8      	b.n	8002466 <HAL_RCC_OscConfig+0x86>
 8002714:	40021000 	.word	0x40021000
 8002718:	42420060 	.word	0x42420060

0800271c <HAL_RCC_GetSysClockFreq>:
 800271c:	b530      	push	{r4, r5, lr}
 800271e:	4b18      	ldr	r3, [pc, #96]	; (8002780 <HAL_RCC_GetSysClockFreq+0x64>)
 8002720:	b087      	sub	sp, #28
 8002722:	ac02      	add	r4, sp, #8
 8002724:	f103 0510 	add.w	r5, r3, #16
 8002728:	4622      	mov	r2, r4
 800272a:	6818      	ldr	r0, [r3, #0]
 800272c:	6859      	ldr	r1, [r3, #4]
 800272e:	3308      	adds	r3, #8
 8002730:	c203      	stmia	r2!, {r0, r1}
 8002732:	42ab      	cmp	r3, r5
 8002734:	4614      	mov	r4, r2
 8002736:	d1f7      	bne.n	8002728 <HAL_RCC_GetSysClockFreq+0xc>
 8002738:	f240 2301 	movw	r3, #513	; 0x201
 800273c:	4911      	ldr	r1, [pc, #68]	; (8002784 <HAL_RCC_GetSysClockFreq+0x68>)
 800273e:	f8ad 3004 	strh.w	r3, [sp, #4]
 8002742:	684b      	ldr	r3, [r1, #4]
 8002744:	f003 020c 	and.w	r2, r3, #12
 8002748:	2a08      	cmp	r2, #8
 800274a:	d117      	bne.n	800277c <HAL_RCC_GetSysClockFreq+0x60>
 800274c:	f3c3 4283 	ubfx	r2, r3, #18, #4
 8002750:	a806      	add	r0, sp, #24
 8002752:	4402      	add	r2, r0
 8002754:	03db      	lsls	r3, r3, #15
 8002756:	f812 2c10 	ldrb.w	r2, [r2, #-16]
 800275a:	d50c      	bpl.n	8002776 <HAL_RCC_GetSysClockFreq+0x5a>
 800275c:	684b      	ldr	r3, [r1, #4]
 800275e:	480a      	ldr	r0, [pc, #40]	; (8002788 <HAL_RCC_GetSysClockFreq+0x6c>)
 8002760:	f3c3 4340 	ubfx	r3, r3, #17, #1
 8002764:	4350      	muls	r0, r2
 8002766:	aa06      	add	r2, sp, #24
 8002768:	4413      	add	r3, r2
 800276a:	f813 3c14 	ldrb.w	r3, [r3, #-20]
 800276e:	fbb0 f0f3 	udiv	r0, r0, r3
 8002772:	b007      	add	sp, #28
 8002774:	bd30      	pop	{r4, r5, pc}
 8002776:	4805      	ldr	r0, [pc, #20]	; (800278c <HAL_RCC_GetSysClockFreq+0x70>)
 8002778:	4350      	muls	r0, r2
 800277a:	e7fa      	b.n	8002772 <HAL_RCC_GetSysClockFreq+0x56>
 800277c:	4802      	ldr	r0, [pc, #8]	; (8002788 <HAL_RCC_GetSysClockFreq+0x6c>)
 800277e:	e7f8      	b.n	8002772 <HAL_RCC_GetSysClockFreq+0x56>
 8002780:	0800a0c0 	.word	0x0800a0c0
 8002784:	40021000 	.word	0x40021000
 8002788:	007a1200 	.word	0x007a1200
 800278c:	003d0900 	.word	0x003d0900

08002790 <HAL_RCC_ClockConfig>:
 8002790:	e92d 41f0 	stmdb	sp!, {r4, r5, r6, r7, r8, lr}
 8002794:	460d      	mov	r5, r1
 8002796:	4604      	mov	r4, r0
 8002798:	b910      	cbnz	r0, 80027a0 <HAL_RCC_ClockConfig+0x10>
 800279a:	2001      	movs	r0, #1
 800279c:	e8bd 81f0 	ldmia.w	sp!, {r4, r5, r6, r7, r8, pc}
 80027a0:	4a44      	ldr	r2, [pc, #272]	; (80028b4 <HAL_RCC_ClockConfig+0x124>)
 80027a2:	6813      	ldr	r3, [r2, #0]
 80027a4:	f003 0307 	and.w	r3, r3, #7
 80027a8:	428b      	cmp	r3, r1
 80027aa:	d328      	bcc.n	80027fe <HAL_RCC_ClockConfig+0x6e>
 80027ac:	6821      	ldr	r1, [r4, #0]
 80027ae:	078e      	lsls	r6, r1, #30
 80027b0:	d430      	bmi.n	8002814 <HAL_RCC_ClockConfig+0x84>
 80027b2:	07ca      	lsls	r2, r1, #31
 80027b4:	d443      	bmi.n	800283e <HAL_RCC_ClockConfig+0xae>
 80027b6:	4a3f      	ldr	r2, [pc, #252]	; (80028b4 <HAL_RCC_ClockConfig+0x124>)
 80027b8:	6813      	ldr	r3, [r2, #0]
 80027ba:	f003 0307 	and.w	r3, r3, #7
 80027be:	42ab      	cmp	r3, r5
 80027c0:	d865      	bhi.n	800288e <HAL_RCC_ClockConfig+0xfe>
 80027c2:	6822      	ldr	r2, [r4, #0]
 80027c4:	4d3c      	ldr	r5, [pc, #240]	; (80028b8 <HAL_RCC_ClockConfig+0x128>)
 80027c6:	f012 0f04 	tst.w	r2, #4
 80027ca:	d16c      	bne.n	80028a6 <HAL_RCC_ClockConfig+0x116>
 80027cc:	0713      	lsls	r3, r2, #28
 80027ce:	d506      	bpl.n	80027de <HAL_RCC_ClockConfig+0x4e>
 80027d0:	686b      	ldr	r3, [r5, #4]
 80027d2:	6922      	ldr	r2, [r4, #16]
 80027d4:	f423 5360 	bic.w	r3, r3, #14336	; 0x3800
 80027d8:	ea43 03c2 	orr.w	r3, r3, r2, lsl #3
 80027dc:	606b      	str	r3, [r5, #4]
 80027de:	f7ff ff9d 	bl	800271c <HAL_RCC_GetSysClockFreq>
 80027e2:	686b      	ldr	r3, [r5, #4]
 80027e4:	4a35      	ldr	r2, [pc, #212]	; (80028bc <HAL_RCC_ClockConfig+0x12c>)
 80027e6:	f3c3 1303 	ubfx	r3, r3, #4, #4
 80027ea:	5cd3      	ldrb	r3, [r2, r3]
 80027ec:	40d8      	lsrs	r0, r3
 80027ee:	4b34      	ldr	r3, [pc, #208]	; (80028c0 <HAL_RCC_ClockConfig+0x130>)
 80027f0:	6018      	str	r0, [r3, #0]
 80027f2:	4b34      	ldr	r3, [pc, #208]	; (80028c4 <HAL_RCC_ClockConfig+0x134>)
 80027f4:	6818      	ldr	r0, [r3, #0]
 80027f6:	f7fe fcb1 	bl	800115c <HAL_InitTick>
 80027fa:	2000      	movs	r0, #0
 80027fc:	e7ce      	b.n	800279c <HAL_RCC_ClockConfig+0xc>
 80027fe:	6813      	ldr	r3, [r2, #0]
 8002800:	f023 0307 	bic.w	r3, r3, #7
 8002804:	430b      	orrs	r3, r1
 8002806:	6013      	str	r3, [r2, #0]
 8002808:	6813      	ldr	r3, [r2, #0]
 800280a:	f003 0307 	and.w	r3, r3, #7
 800280e:	428b      	cmp	r3, r1
 8002810:	d1c3      	bne.n	800279a <HAL_RCC_ClockConfig+0xa>
 8002812:	e7cb      	b.n	80027ac <HAL_RCC_ClockConfig+0x1c>
 8002814:	4b28      	ldr	r3, [pc, #160]	; (80028b8 <HAL_RCC_ClockConfig+0x128>)
 8002816:	f011 0f04 	tst.w	r1, #4
 800281a:	bf1e      	ittt	ne
 800281c:	685a      	ldrne	r2, [r3, #4]
 800281e:	f442 62e0 	orrne.w	r2, r2, #1792	; 0x700
 8002822:	605a      	strne	r2, [r3, #4]
 8002824:	0708      	lsls	r0, r1, #28
 8002826:	bf42      	ittt	mi
 8002828:	685a      	ldrmi	r2, [r3, #4]
 800282a:	f442 5260 	orrmi.w	r2, r2, #14336	; 0x3800
 800282e:	605a      	strmi	r2, [r3, #4]
 8002830:	685a      	ldr	r2, [r3, #4]
 8002832:	68a0      	ldr	r0, [r4, #8]
 8002834:	f022 02f0 	bic.w	r2, r2, #240	; 0xf0
 8002838:	4302      	orrs	r2, r0
 800283a:	605a      	str	r2, [r3, #4]
 800283c:	e7b9      	b.n	80027b2 <HAL_RCC_ClockConfig+0x22>
 800283e:	6862      	ldr	r2, [r4, #4]
 8002840:	4e1d      	ldr	r6, [pc, #116]	; (80028b8 <HAL_RCC_ClockConfig+0x128>)
 8002842:	2a01      	cmp	r2, #1
 8002844:	6833      	ldr	r3, [r6, #0]
 8002846:	d11a      	bne.n	800287e <HAL_RCC_ClockConfig+0xee>
 8002848:	f413 3f00 	tst.w	r3, #131072	; 0x20000
 800284c:	d0a5      	beq.n	800279a <HAL_RCC_ClockConfig+0xa>
 800284e:	6873      	ldr	r3, [r6, #4]
 8002850:	f241 3888 	movw	r8, #5000	; 0x1388
 8002854:	f023 0303 	bic.w	r3, r3, #3
 8002858:	4313      	orrs	r3, r2
 800285a:	6073      	str	r3, [r6, #4]
 800285c:	f7fe fcc0 	bl	80011e0 <HAL_GetTick>
 8002860:	4607      	mov	r7, r0
 8002862:	6873      	ldr	r3, [r6, #4]
 8002864:	6862      	ldr	r2, [r4, #4]
 8002866:	f003 030c 	and.w	r3, r3, #12
 800286a:	ebb3 0f82 	cmp.w	r3, r2, lsl #2
 800286e:	d0a2      	beq.n	80027b6 <HAL_RCC_ClockConfig+0x26>
 8002870:	f7fe fcb6 	bl	80011e0 <HAL_GetTick>
 8002874:	1bc0      	subs	r0, r0, r7
 8002876:	4540      	cmp	r0, r8
 8002878:	d9f3      	bls.n	8002862 <HAL_RCC_ClockConfig+0xd2>
 800287a:	2003      	movs	r0, #3
 800287c:	e78e      	b.n	800279c <HAL_RCC_ClockConfig+0xc>
 800287e:	2a02      	cmp	r2, #2
 8002880:	d102      	bne.n	8002888 <HAL_RCC_ClockConfig+0xf8>
 8002882:	f013 7f00 	tst.w	r3, #33554432	; 0x2000000
 8002886:	e7e1      	b.n	800284c <HAL_RCC_ClockConfig+0xbc>
 8002888:	f013 0f02 	tst.w	r3, #2
 800288c:	e7de      	b.n	800284c <HAL_RCC_ClockConfig+0xbc>
 800288e:	6813      	ldr	r3, [r2, #0]
 8002890:	f023 0307 	bic.w	r3, r3, #7
 8002894:	432b      	orrs	r3, r5
 8002896:	6013      	str	r3, [r2, #0]
 8002898:	6813      	ldr	r3, [r2, #0]
 800289a:	f003 0307 	and.w	r3, r3, #7
 800289e:	42ab      	cmp	r3, r5
 80028a0:	f47f af7b 	bne.w	800279a <HAL_RCC_ClockConfig+0xa>
 80028a4:	e78d      	b.n	80027c2 <HAL_RCC_ClockConfig+0x32>
 80028a6:	686b      	ldr	r3, [r5, #4]
 80028a8:	68e1      	ldr	r1, [r4, #12]
 80028aa:	f423 63e0 	bic.w	r3, r3, #1792	; 0x700
 80028ae:	430b      	orrs	r3, r1
 80028b0:	606b      	str	r3, [r5, #4]
 80028b2:	e78b      	b.n	80027cc <HAL_RCC_ClockConfig+0x3c>
 80028b4:	40022000 	.word	0x40022000
 80028b8:	40021000 	.word	0x40021000
 80028bc:	0800aee2 	.word	0x0800aee2
 80028c0:	20000074 	.word	0x20000074
 80028c4:	20000004 	.word	0x20000004

080028c8 <HAL_RCC_GetPCLK1Freq>:
 80028c8:	4b04      	ldr	r3, [pc, #16]	; (80028dc <HAL_RCC_GetPCLK1Freq+0x14>)
 80028ca:	4a05      	ldr	r2, [pc, #20]	; (80028e0 <HAL_RCC_GetPCLK1Freq+0x18>)
 80028cc:	685b      	ldr	r3, [r3, #4]
 80028ce:	f3c3 2302 	ubfx	r3, r3, #8, #3
 80028d2:	5cd3      	ldrb	r3, [r2, r3]
 80028d4:	4a03      	ldr	r2, [pc, #12]	; (80028e4 <HAL_RCC_GetPCLK1Freq+0x1c>)
 80028d6:	6810      	ldr	r0, [r2, #0]
 80028d8:	40d8      	lsrs	r0, r3
 80028da:	4770      	bx	lr
 80028dc:	40021000 	.word	0x40021000
 80028e0:	0800aef2 	.word	0x0800aef2
 80028e4:	20000074 	.word	0x20000074

080028e8 <HAL_RCC_GetPCLK2Freq>:
 80028e8:	4b04      	ldr	r3, [pc, #16]	; (80028fc <HAL_RCC_GetPCLK2Freq+0x14>)
 80028ea:	4a05      	ldr	r2, [pc, #20]	; (8002900 <HAL_RCC_GetPCLK2Freq+0x18>)
 80028ec:	685b      	ldr	r3, [r3, #4]
 80028ee:	f3c3 23c2 	ubfx	r3, r3, #11, #3
 80028f2:	5cd3      	ldrb	r3, [r2, r3]
 80028f4:	4a03      	ldr	r2, [pc, #12]	; (8002904 <HAL_RCC_GetPCLK2Freq+0x1c>)
 80028f6:	6810      	ldr	r0, [r2, #0]
 80028f8:	40d8      	lsrs	r0, r3
 80028fa:	4770      	bx	lr
 80028fc:	40021000 	.word	0x40021000
 8002900:	0800aef2 	.word	0x0800aef2
 8002904:	20000074 	.word	0x20000074

08002908 <HAL_RCCEx_PeriphCLKConfig>:
 8002908:	6803      	ldr	r3, [r0, #0]
 800290a:	e92d 41f3 	stmdb	sp!, {r0, r1, r4, r5, r6, r7, r8, lr}
 800290e:	07d9      	lsls	r1, r3, #31
 8002910:	4605      	mov	r5, r0
 8002912:	d520      	bpl.n	8002956 <HAL_RCCEx_PeriphCLKConfig+0x4e>
 8002914:	4c35      	ldr	r4, [pc, #212]	; (80029ec <HAL_RCCEx_PeriphCLKConfig+0xe4>)
 8002916:	69e3      	ldr	r3, [r4, #28]
 8002918:	00da      	lsls	r2, r3, #3
 800291a:	d432      	bmi.n	8002982 <HAL_RCCEx_PeriphCLKConfig+0x7a>
 800291c:	2701      	movs	r7, #1
 800291e:	69e3      	ldr	r3, [r4, #28]
 8002920:	f043 5380 	orr.w	r3, r3, #268435456	; 0x10000000
 8002924:	61e3      	str	r3, [r4, #28]
 8002926:	69e3      	ldr	r3, [r4, #28]
 8002928:	f003 5380 	and.w	r3, r3, #268435456	; 0x10000000
 800292c:	9301      	str	r3, [sp, #4]
 800292e:	9b01      	ldr	r3, [sp, #4]
 8002930:	4e2f      	ldr	r6, [pc, #188]	; (80029f0 <HAL_RCCEx_PeriphCLKConfig+0xe8>)
 8002932:	6833      	ldr	r3, [r6, #0]
 8002934:	05db      	lsls	r3, r3, #23
 8002936:	d526      	bpl.n	8002986 <HAL_RCCEx_PeriphCLKConfig+0x7e>
 8002938:	6a23      	ldr	r3, [r4, #32]
 800293a:	f413 7340 	ands.w	r3, r3, #768	; 0x300
 800293e:	d136      	bne.n	80029ae <HAL_RCCEx_PeriphCLKConfig+0xa6>
 8002940:	6a23      	ldr	r3, [r4, #32]
 8002942:	686a      	ldr	r2, [r5, #4]
 8002944:	f423 7340 	bic.w	r3, r3, #768	; 0x300
 8002948:	4313      	orrs	r3, r2
 800294a:	6223      	str	r3, [r4, #32]
 800294c:	b11f      	cbz	r7, 8002956 <HAL_RCCEx_PeriphCLKConfig+0x4e>
 800294e:	69e3      	ldr	r3, [r4, #28]
 8002950:	f023 5380 	bic.w	r3, r3, #268435456	; 0x10000000
 8002954:	61e3      	str	r3, [r4, #28]
 8002956:	6828      	ldr	r0, [r5, #0]
 8002958:	0783      	lsls	r3, r0, #30
 800295a:	d506      	bpl.n	800296a <HAL_RCCEx_PeriphCLKConfig+0x62>
 800295c:	4a23      	ldr	r2, [pc, #140]	; (80029ec <HAL_RCCEx_PeriphCLKConfig+0xe4>)
 800295e:	68a9      	ldr	r1, [r5, #8]
 8002960:	6853      	ldr	r3, [r2, #4]
 8002962:	f423 4340 	bic.w	r3, r3, #49152	; 0xc000
 8002966:	430b      	orrs	r3, r1
 8002968:	6053      	str	r3, [r2, #4]
 800296a:	f010 0010 	ands.w	r0, r0, #16
 800296e:	d01b      	beq.n	80029a8 <HAL_RCCEx_PeriphCLKConfig+0xa0>
 8002970:	4a1e      	ldr	r2, [pc, #120]	; (80029ec <HAL_RCCEx_PeriphCLKConfig+0xe4>)
 8002972:	68e9      	ldr	r1, [r5, #12]
 8002974:	6853      	ldr	r3, [r2, #4]
 8002976:	2000      	movs	r0, #0
 8002978:	f423 0380 	bic.w	r3, r3, #4194304	; 0x400000
 800297c:	430b      	orrs	r3, r1
 800297e:	6053      	str	r3, [r2, #4]
 8002980:	e012      	b.n	80029a8 <HAL_RCCEx_PeriphCLKConfig+0xa0>
 8002982:	2700      	movs	r7, #0
 8002984:	e7d4      	b.n	8002930 <HAL_RCCEx_PeriphCLKConfig+0x28>
 8002986:	6833      	ldr	r3, [r6, #0]
 8002988:	f443 7380 	orr.w	r3, r3, #256	; 0x100
 800298c:	6033      	str	r3, [r6, #0]
 800298e:	f7fe fc27 	bl	80011e0 <HAL_GetTick>
 8002992:	4680      	mov	r8, r0
 8002994:	6833      	ldr	r3, [r6, #0]
 8002996:	05d8      	lsls	r0, r3, #23
 8002998:	d4ce      	bmi.n	8002938 <HAL_RCCEx_PeriphCLKConfig+0x30>
 800299a:	f7fe fc21 	bl	80011e0 <HAL_GetTick>
 800299e:	eba0 0008 	sub.w	r0, r0, r8
 80029a2:	2864      	cmp	r0, #100	; 0x64
 80029a4:	d9f6      	bls.n	8002994 <HAL_RCCEx_PeriphCLKConfig+0x8c>
 80029a6:	2003      	movs	r0, #3
 80029a8:	b002      	add	sp, #8
 80029aa:	e8bd 81f0 	ldmia.w	sp!, {r4, r5, r6, r7, r8, pc}
 80029ae:	686a      	ldr	r2, [r5, #4]
 80029b0:	f402 7240 	and.w	r2, r2, #768	; 0x300
 80029b4:	429a      	cmp	r2, r3
 80029b6:	d0c3      	beq.n	8002940 <HAL_RCCEx_PeriphCLKConfig+0x38>
 80029b8:	2001      	movs	r0, #1
 80029ba:	4a0e      	ldr	r2, [pc, #56]	; (80029f4 <HAL_RCCEx_PeriphCLKConfig+0xec>)
 80029bc:	6a23      	ldr	r3, [r4, #32]
 80029be:	6010      	str	r0, [r2, #0]
 80029c0:	2000      	movs	r0, #0
 80029c2:	f423 7140 	bic.w	r1, r3, #768	; 0x300
 80029c6:	6010      	str	r0, [r2, #0]
 80029c8:	6221      	str	r1, [r4, #32]
 80029ca:	07d9      	lsls	r1, r3, #31
 80029cc:	d5b8      	bpl.n	8002940 <HAL_RCCEx_PeriphCLKConfig+0x38>
 80029ce:	f7fe fc07 	bl	80011e0 <HAL_GetTick>
 80029d2:	f241 3888 	movw	r8, #5000	; 0x1388
 80029d6:	4606      	mov	r6, r0
 80029d8:	6a23      	ldr	r3, [r4, #32]
 80029da:	079a      	lsls	r2, r3, #30
 80029dc:	d4b0      	bmi.n	8002940 <HAL_RCCEx_PeriphCLKConfig+0x38>
 80029de:	f7fe fbff 	bl	80011e0 <HAL_GetTick>
 80029e2:	1b80      	subs	r0, r0, r6
 80029e4:	4540      	cmp	r0, r8
 80029e6:	d9f7      	bls.n	80029d8 <HAL_RCCEx_PeriphCLKConfig+0xd0>
 80029e8:	e7dd      	b.n	80029a6 <HAL_RCCEx_PeriphCLKConfig+0x9e>
 80029ea:	bf00      	nop
 80029ec:	40021000 	.word	0x40021000
 80029f0:	40007000 	.word	0x40007000
 80029f4:	42420440 	.word	0x42420440

080029f8 <SPI_WaitFlagStateUntilTimeout.constprop.6>:
 80029f8:	b5f8      	push	{r3, r4, r5, r6, r7, lr}
 80029fa:	4604      	mov	r4, r0
 80029fc:	460e      	mov	r6, r1
 80029fe:	4615      	mov	r5, r2
 8002a00:	461f      	mov	r7, r3
 8002a02:	6821      	ldr	r1, [r4, #0]
 8002a04:	688a      	ldr	r2, [r1, #8]
 8002a06:	ea36 0302 	bics.w	r3, r6, r2
 8002a0a:	d001      	beq.n	8002a10 <SPI_WaitFlagStateUntilTimeout.constprop.6+0x18>
 8002a0c:	2000      	movs	r0, #0
 8002a0e:	e02d      	b.n	8002a6c <SPI_WaitFlagStateUntilTimeout.constprop.6+0x74>
 8002a10:	1c6b      	adds	r3, r5, #1
 8002a12:	d0f7      	beq.n	8002a04 <SPI_WaitFlagStateUntilTimeout.constprop.6+0xc>
 8002a14:	f7fe fbe4 	bl	80011e0 <HAL_GetTick>
 8002a18:	1bc0      	subs	r0, r0, r7
 8002a1a:	4285      	cmp	r5, r0
 8002a1c:	d8f1      	bhi.n	8002a02 <SPI_WaitFlagStateUntilTimeout.constprop.6+0xa>
 8002a1e:	6823      	ldr	r3, [r4, #0]
 8002a20:	685a      	ldr	r2, [r3, #4]
 8002a22:	f022 02e0 	bic.w	r2, r2, #224	; 0xe0
 8002a26:	605a      	str	r2, [r3, #4]
 8002a28:	6862      	ldr	r2, [r4, #4]
 8002a2a:	f5b2 7f82 	cmp.w	r2, #260	; 0x104
 8002a2e:	d10a      	bne.n	8002a46 <SPI_WaitFlagStateUntilTimeout.constprop.6+0x4e>
 8002a30:	68a2      	ldr	r2, [r4, #8]
 8002a32:	f5b2 4f00 	cmp.w	r2, #32768	; 0x8000
 8002a36:	d002      	beq.n	8002a3e <SPI_WaitFlagStateUntilTimeout.constprop.6+0x46>
 8002a38:	f5b2 6f80 	cmp.w	r2, #1024	; 0x400
 8002a3c:	d103      	bne.n	8002a46 <SPI_WaitFlagStateUntilTimeout.constprop.6+0x4e>
 8002a3e:	681a      	ldr	r2, [r3, #0]
 8002a40:	f022 0240 	bic.w	r2, r2, #64	; 0x40
 8002a44:	601a      	str	r2, [r3, #0]
 8002a46:	6aa2      	ldr	r2, [r4, #40]	; 0x28
 8002a48:	f5b2 5f00 	cmp.w	r2, #8192	; 0x2000
 8002a4c:	d107      	bne.n	8002a5e <SPI_WaitFlagStateUntilTimeout.constprop.6+0x66>
 8002a4e:	681a      	ldr	r2, [r3, #0]
 8002a50:	f422 5200 	bic.w	r2, r2, #8192	; 0x2000
 8002a54:	601a      	str	r2, [r3, #0]
 8002a56:	681a      	ldr	r2, [r3, #0]
 8002a58:	f442 5200 	orr.w	r2, r2, #8192	; 0x2000
 8002a5c:	601a      	str	r2, [r3, #0]
 8002a5e:	2301      	movs	r3, #1
 8002a60:	f884 3051 	strb.w	r3, [r4, #81]	; 0x51
 8002a64:	2300      	movs	r3, #0
 8002a66:	2003      	movs	r0, #3
 8002a68:	f884 3050 	strb.w	r3, [r4, #80]	; 0x50
 8002a6c:	bdf8      	pop	{r3, r4, r5, r6, r7, pc}

08002a6e <SPI_EndRxTxTransaction>:
 8002a6e:	b510      	push	{r4, lr}
 8002a70:	4613      	mov	r3, r2
 8002a72:	460a      	mov	r2, r1
 8002a74:	2180      	movs	r1, #128	; 0x80
 8002a76:	4604      	mov	r4, r0
 8002a78:	f7ff ffbe 	bl	80029f8 <SPI_WaitFlagStateUntilTimeout.constprop.6>
 8002a7c:	b120      	cbz	r0, 8002a88 <SPI_EndRxTxTransaction+0x1a>
 8002a7e:	2003      	movs	r0, #3
 8002a80:	6d63      	ldr	r3, [r4, #84]	; 0x54
 8002a82:	f043 0320 	orr.w	r3, r3, #32
 8002a86:	6563      	str	r3, [r4, #84]	; 0x54
 8002a88:	bd10      	pop	{r4, pc}

08002a8a <HAL_SPI_MspInit>:
 8002a8a:	4770      	bx	lr

08002a8c <HAL_SPI_Init>:
 8002a8c:	b510      	push	{r4, lr}
 8002a8e:	4604      	mov	r4, r0
 8002a90:	2800      	cmp	r0, #0
 8002a92:	d034      	beq.n	8002afe <HAL_SPI_Init+0x72>
 8002a94:	2300      	movs	r3, #0
 8002a96:	6283      	str	r3, [r0, #40]	; 0x28
 8002a98:	f890 3051 	ldrb.w	r3, [r0, #81]	; 0x51
 8002a9c:	f003 02ff 	and.w	r2, r3, #255	; 0xff
 8002aa0:	b91b      	cbnz	r3, 8002aaa <HAL_SPI_Init+0x1e>
 8002aa2:	f880 2050 	strb.w	r2, [r0, #80]	; 0x50
 8002aa6:	f7ff fff0 	bl	8002a8a <HAL_SPI_MspInit>
 8002aaa:	2302      	movs	r3, #2
 8002aac:	6822      	ldr	r2, [r4, #0]
 8002aae:	f884 3051 	strb.w	r3, [r4, #81]	; 0x51
 8002ab2:	6813      	ldr	r3, [r2, #0]
 8002ab4:	69a1      	ldr	r1, [r4, #24]
 8002ab6:	f023 0340 	bic.w	r3, r3, #64	; 0x40
 8002aba:	6013      	str	r3, [r2, #0]
 8002abc:	e9d4 3001 	ldrd	r3, r0, [r4, #4]
 8002ac0:	4303      	orrs	r3, r0
 8002ac2:	68e0      	ldr	r0, [r4, #12]
 8002ac4:	4303      	orrs	r3, r0
 8002ac6:	6920      	ldr	r0, [r4, #16]
 8002ac8:	4303      	orrs	r3, r0
 8002aca:	6960      	ldr	r0, [r4, #20]
 8002acc:	4303      	orrs	r3, r0
 8002ace:	69e0      	ldr	r0, [r4, #28]
 8002ad0:	4303      	orrs	r3, r0
 8002ad2:	6a20      	ldr	r0, [r4, #32]
 8002ad4:	4303      	orrs	r3, r0
 8002ad6:	6aa0      	ldr	r0, [r4, #40]	; 0x28
 8002ad8:	4303      	orrs	r3, r0
 8002ada:	f401 7000 	and.w	r0, r1, #512	; 0x200
 8002ade:	0c09      	lsrs	r1, r1, #16
 8002ae0:	4303      	orrs	r3, r0
 8002ae2:	f001 0104 	and.w	r1, r1, #4
 8002ae6:	6013      	str	r3, [r2, #0]
 8002ae8:	6051      	str	r1, [r2, #4]
 8002aea:	69d3      	ldr	r3, [r2, #28]
 8002aec:	2000      	movs	r0, #0
 8002aee:	f423 6300 	bic.w	r3, r3, #2048	; 0x800
 8002af2:	61d3      	str	r3, [r2, #28]
 8002af4:	2301      	movs	r3, #1
 8002af6:	6560      	str	r0, [r4, #84]	; 0x54
 8002af8:	f884 3051 	strb.w	r3, [r4, #81]	; 0x51
 8002afc:	bd10      	pop	{r4, pc}
 8002afe:	2001      	movs	r0, #1
 8002b00:	e7fc      	b.n	8002afc <HAL_SPI_Init+0x70>

08002b02 <HAL_SPI_Transmit>:
 8002b02:	e92d 41f3 	stmdb	sp!, {r0, r1, r4, r5, r6, r7, r8, lr}
 8002b06:	461e      	mov	r6, r3
 8002b08:	f890 3050 	ldrb.w	r3, [r0, #80]	; 0x50
 8002b0c:	4604      	mov	r4, r0
 8002b0e:	2b01      	cmp	r3, #1
 8002b10:	460d      	mov	r5, r1
 8002b12:	4690      	mov	r8, r2
 8002b14:	f000 809c 	beq.w	8002c50 <HAL_SPI_Transmit+0x14e>
 8002b18:	2301      	movs	r3, #1
 8002b1a:	f880 3050 	strb.w	r3, [r0, #80]	; 0x50
 8002b1e:	f7fe fb5f 	bl	80011e0 <HAL_GetTick>
 8002b22:	4607      	mov	r7, r0
 8002b24:	f894 0051 	ldrb.w	r0, [r4, #81]	; 0x51
 8002b28:	b2c0      	uxtb	r0, r0
 8002b2a:	2801      	cmp	r0, #1
 8002b2c:	f040 808e 	bne.w	8002c4c <HAL_SPI_Transmit+0x14a>
 8002b30:	2d00      	cmp	r5, #0
 8002b32:	d05e      	beq.n	8002bf2 <HAL_SPI_Transmit+0xf0>
 8002b34:	f1b8 0f00 	cmp.w	r8, #0
 8002b38:	d05b      	beq.n	8002bf2 <HAL_SPI_Transmit+0xf0>
 8002b3a:	2303      	movs	r3, #3
 8002b3c:	2000      	movs	r0, #0
 8002b3e:	f884 3051 	strb.w	r3, [r4, #81]	; 0x51
 8002b42:	68a3      	ldr	r3, [r4, #8]
 8002b44:	6560      	str	r0, [r4, #84]	; 0x54
 8002b46:	63a0      	str	r0, [r4, #56]	; 0x38
 8002b48:	f8a4 8036 	strh.w	r8, [r4, #54]	; 0x36
 8002b4c:	87a0      	strh	r0, [r4, #60]	; 0x3c
 8002b4e:	87e0      	strh	r0, [r4, #62]	; 0x3e
 8002b50:	e9c4 0010 	strd	r0, r0, [r4, #64]	; 0x40
 8002b54:	6820      	ldr	r0, [r4, #0]
 8002b56:	f5b3 4f00 	cmp.w	r3, #32768	; 0x8000
 8002b5a:	bf08      	it	eq
 8002b5c:	6803      	ldreq	r3, [r0, #0]
 8002b5e:	6325      	str	r5, [r4, #48]	; 0x30
 8002b60:	bf08      	it	eq
 8002b62:	f443 4380 	orreq.w	r3, r3, #16384	; 0x4000
 8002b66:	f8a4 8034 	strh.w	r8, [r4, #52]	; 0x34
 8002b6a:	bf08      	it	eq
 8002b6c:	6003      	streq	r3, [r0, #0]
 8002b6e:	6803      	ldr	r3, [r0, #0]
 8002b70:	68e2      	ldr	r2, [r4, #12]
 8002b72:	065b      	lsls	r3, r3, #25
 8002b74:	bf5e      	ittt	pl
 8002b76:	6803      	ldrpl	r3, [r0, #0]
 8002b78:	f043 0340 	orrpl.w	r3, r3, #64	; 0x40
 8002b7c:	6003      	strpl	r3, [r0, #0]
 8002b7e:	f5b2 6f00 	cmp.w	r2, #2048	; 0x800
 8002b82:	6863      	ldr	r3, [r4, #4]
 8002b84:	d13e      	bne.n	8002c04 <HAL_SPI_Transmit+0x102>
 8002b86:	b113      	cbz	r3, 8002b8e <HAL_SPI_Transmit+0x8c>
 8002b88:	f1b8 0f01 	cmp.w	r8, #1
 8002b8c:	d107      	bne.n	8002b9e <HAL_SPI_Transmit+0x9c>
 8002b8e:	f835 3b02 	ldrh.w	r3, [r5], #2
 8002b92:	60c3      	str	r3, [r0, #12]
 8002b94:	6325      	str	r5, [r4, #48]	; 0x30
 8002b96:	8ee3      	ldrh	r3, [r4, #54]	; 0x36
 8002b98:	3b01      	subs	r3, #1
 8002b9a:	b29b      	uxth	r3, r3
 8002b9c:	86e3      	strh	r3, [r4, #54]	; 0x36
 8002b9e:	8ee3      	ldrh	r3, [r4, #54]	; 0x36
 8002ba0:	b29b      	uxth	r3, r3
 8002ba2:	b9a3      	cbnz	r3, 8002bce <HAL_SPI_Transmit+0xcc>
 8002ba4:	463a      	mov	r2, r7
 8002ba6:	4631      	mov	r1, r6
 8002ba8:	4620      	mov	r0, r4
 8002baa:	f7ff ff60 	bl	8002a6e <SPI_EndRxTxTransaction>
 8002bae:	2800      	cmp	r0, #0
 8002bb0:	d149      	bne.n	8002c46 <HAL_SPI_Transmit+0x144>
 8002bb2:	68a3      	ldr	r3, [r4, #8]
 8002bb4:	b933      	cbnz	r3, 8002bc4 <HAL_SPI_Transmit+0xc2>
 8002bb6:	9301      	str	r3, [sp, #4]
 8002bb8:	6823      	ldr	r3, [r4, #0]
 8002bba:	68da      	ldr	r2, [r3, #12]
 8002bbc:	9201      	str	r2, [sp, #4]
 8002bbe:	689b      	ldr	r3, [r3, #8]
 8002bc0:	9301      	str	r3, [sp, #4]
 8002bc2:	9b01      	ldr	r3, [sp, #4]
 8002bc4:	6d60      	ldr	r0, [r4, #84]	; 0x54
 8002bc6:	3000      	adds	r0, #0
 8002bc8:	bf18      	it	ne
 8002bca:	2001      	movne	r0, #1
 8002bcc:	e011      	b.n	8002bf2 <HAL_SPI_Transmit+0xf0>
 8002bce:	6822      	ldr	r2, [r4, #0]
 8002bd0:	6893      	ldr	r3, [r2, #8]
 8002bd2:	0798      	lsls	r0, r3, #30
 8002bd4:	d505      	bpl.n	8002be2 <HAL_SPI_Transmit+0xe0>
 8002bd6:	6b23      	ldr	r3, [r4, #48]	; 0x30
 8002bd8:	f833 1b02 	ldrh.w	r1, [r3], #2
 8002bdc:	60d1      	str	r1, [r2, #12]
 8002bde:	6323      	str	r3, [r4, #48]	; 0x30
 8002be0:	e7d9      	b.n	8002b96 <HAL_SPI_Transmit+0x94>
 8002be2:	f7fe fafd 	bl	80011e0 <HAL_GetTick>
 8002be6:	1bc0      	subs	r0, r0, r7
 8002be8:	42b0      	cmp	r0, r6
 8002bea:	d3d8      	bcc.n	8002b9e <HAL_SPI_Transmit+0x9c>
 8002bec:	1c71      	adds	r1, r6, #1
 8002bee:	d0d6      	beq.n	8002b9e <HAL_SPI_Transmit+0x9c>
 8002bf0:	2003      	movs	r0, #3
 8002bf2:	2301      	movs	r3, #1
 8002bf4:	f884 3051 	strb.w	r3, [r4, #81]	; 0x51
 8002bf8:	2300      	movs	r3, #0
 8002bfa:	f884 3050 	strb.w	r3, [r4, #80]	; 0x50
 8002bfe:	b002      	add	sp, #8
 8002c00:	e8bd 81f0 	ldmia.w	sp!, {r4, r5, r6, r7, r8, pc}
 8002c04:	b113      	cbz	r3, 8002c0c <HAL_SPI_Transmit+0x10a>
 8002c06:	f1b8 0f01 	cmp.w	r8, #1
 8002c0a:	d108      	bne.n	8002c1e <HAL_SPI_Transmit+0x11c>
 8002c0c:	782b      	ldrb	r3, [r5, #0]
 8002c0e:	7303      	strb	r3, [r0, #12]
 8002c10:	6b23      	ldr	r3, [r4, #48]	; 0x30
 8002c12:	3301      	adds	r3, #1
 8002c14:	6323      	str	r3, [r4, #48]	; 0x30
 8002c16:	8ee3      	ldrh	r3, [r4, #54]	; 0x36
 8002c18:	3b01      	subs	r3, #1
 8002c1a:	b29b      	uxth	r3, r3
 8002c1c:	86e3      	strh	r3, [r4, #54]	; 0x36
 8002c1e:	8ee3      	ldrh	r3, [r4, #54]	; 0x36
 8002c20:	b29b      	uxth	r3, r3
 8002c22:	2b00      	cmp	r3, #0
 8002c24:	d0be      	beq.n	8002ba4 <HAL_SPI_Transmit+0xa2>
 8002c26:	6823      	ldr	r3, [r4, #0]
 8002c28:	689a      	ldr	r2, [r3, #8]
 8002c2a:	0792      	lsls	r2, r2, #30
 8002c2c:	d503      	bpl.n	8002c36 <HAL_SPI_Transmit+0x134>
 8002c2e:	6b22      	ldr	r2, [r4, #48]	; 0x30
 8002c30:	7812      	ldrb	r2, [r2, #0]
 8002c32:	731a      	strb	r2, [r3, #12]
 8002c34:	e7ec      	b.n	8002c10 <HAL_SPI_Transmit+0x10e>
 8002c36:	f7fe fad3 	bl	80011e0 <HAL_GetTick>
 8002c3a:	1bc0      	subs	r0, r0, r7
 8002c3c:	42b0      	cmp	r0, r6
 8002c3e:	d3ee      	bcc.n	8002c1e <HAL_SPI_Transmit+0x11c>
 8002c40:	1c73      	adds	r3, r6, #1
 8002c42:	d0ec      	beq.n	8002c1e <HAL_SPI_Transmit+0x11c>
 8002c44:	e7d4      	b.n	8002bf0 <HAL_SPI_Transmit+0xee>
 8002c46:	2320      	movs	r3, #32
 8002c48:	6563      	str	r3, [r4, #84]	; 0x54
 8002c4a:	e7b2      	b.n	8002bb2 <HAL_SPI_Transmit+0xb0>
 8002c4c:	2002      	movs	r0, #2
 8002c4e:	e7d0      	b.n	8002bf2 <HAL_SPI_Transmit+0xf0>
 8002c50:	2002      	movs	r0, #2
 8002c52:	e7d4      	b.n	8002bfe <HAL_SPI_Transmit+0xfc>

08002c54 <HAL_SPI_Transmit_DMA>:
 8002c54:	f890 3050 	ldrb.w	r3, [r0, #80]	; 0x50
 8002c58:	b510      	push	{r4, lr}
 8002c5a:	2b01      	cmp	r3, #1
 8002c5c:	4604      	mov	r4, r0
 8002c5e:	d04e      	beq.n	8002cfe <HAL_SPI_Transmit_DMA+0xaa>
 8002c60:	2301      	movs	r3, #1
 8002c62:	f880 3050 	strb.w	r3, [r0, #80]	; 0x50
 8002c66:	f890 0051 	ldrb.w	r0, [r0, #81]	; 0x51
 8002c6a:	b2c0      	uxtb	r0, r0
 8002c6c:	4298      	cmp	r0, r3
 8002c6e:	d144      	bne.n	8002cfa <HAL_SPI_Transmit_DMA+0xa6>
 8002c70:	2900      	cmp	r1, #0
 8002c72:	d02d      	beq.n	8002cd0 <HAL_SPI_Transmit_DMA+0x7c>
 8002c74:	2a00      	cmp	r2, #0
 8002c76:	d02b      	beq.n	8002cd0 <HAL_SPI_Transmit_DMA+0x7c>
 8002c78:	2303      	movs	r3, #3
 8002c7a:	f884 3051 	strb.w	r3, [r4, #81]	; 0x51
 8002c7e:	2300      	movs	r3, #0
 8002c80:	6563      	str	r3, [r4, #84]	; 0x54
 8002c82:	63a3      	str	r3, [r4, #56]	; 0x38
 8002c84:	86e2      	strh	r2, [r4, #54]	; 0x36
 8002c86:	e9c4 3310 	strd	r3, r3, [r4, #64]	; 0x40
 8002c8a:	87e3      	strh	r3, [r4, #62]	; 0x3e
 8002c8c:	87a3      	strh	r3, [r4, #60]	; 0x3c
 8002c8e:	68a3      	ldr	r3, [r4, #8]
 8002c90:	86a2      	strh	r2, [r4, #52]	; 0x34
 8002c92:	6822      	ldr	r2, [r4, #0]
 8002c94:	f5b3 4f00 	cmp.w	r3, #32768	; 0x8000
 8002c98:	bf08      	it	eq
 8002c9a:	6813      	ldreq	r3, [r2, #0]
 8002c9c:	6321      	str	r1, [r4, #48]	; 0x30
 8002c9e:	bf04      	itt	eq
 8002ca0:	f443 4380 	orreq.w	r3, r3, #16384	; 0x4000
 8002ca4:	6013      	streq	r3, [r2, #0]
 8002ca6:	6ca0      	ldr	r0, [r4, #72]	; 0x48
 8002ca8:	4b16      	ldr	r3, [pc, #88]	; (8002d04 <HAL_SPI_Transmit_DMA+0xb0>)
 8002caa:	320c      	adds	r2, #12
 8002cac:	62c3      	str	r3, [r0, #44]	; 0x2c
 8002cae:	4b16      	ldr	r3, [pc, #88]	; (8002d08 <HAL_SPI_Transmit_DMA+0xb4>)
 8002cb0:	6283      	str	r3, [r0, #40]	; 0x28
 8002cb2:	4b16      	ldr	r3, [pc, #88]	; (8002d0c <HAL_SPI_Transmit_DMA+0xb8>)
 8002cb4:	6303      	str	r3, [r0, #48]	; 0x30
 8002cb6:	2300      	movs	r3, #0
 8002cb8:	6343      	str	r3, [r0, #52]	; 0x34
 8002cba:	8ee3      	ldrh	r3, [r4, #54]	; 0x36
 8002cbc:	f7fe fd6a 	bl	8001794 <HAL_DMA_Start_IT>
 8002cc0:	b150      	cbz	r0, 8002cd8 <HAL_SPI_Transmit_DMA+0x84>
 8002cc2:	2001      	movs	r0, #1
 8002cc4:	6d63      	ldr	r3, [r4, #84]	; 0x54
 8002cc6:	f043 0310 	orr.w	r3, r3, #16
 8002cca:	6563      	str	r3, [r4, #84]	; 0x54
 8002ccc:	f884 0051 	strb.w	r0, [r4, #81]	; 0x51
 8002cd0:	2300      	movs	r3, #0
 8002cd2:	f884 3050 	strb.w	r3, [r4, #80]	; 0x50
 8002cd6:	bd10      	pop	{r4, pc}
 8002cd8:	6823      	ldr	r3, [r4, #0]
 8002cda:	681a      	ldr	r2, [r3, #0]
 8002cdc:	0652      	lsls	r2, r2, #25
 8002cde:	bf5e      	ittt	pl
 8002ce0:	681a      	ldrpl	r2, [r3, #0]
 8002ce2:	f042 0240 	orrpl.w	r2, r2, #64	; 0x40
 8002ce6:	601a      	strpl	r2, [r3, #0]
 8002ce8:	685a      	ldr	r2, [r3, #4]
 8002cea:	f042 0220 	orr.w	r2, r2, #32
 8002cee:	605a      	str	r2, [r3, #4]
 8002cf0:	685a      	ldr	r2, [r3, #4]
 8002cf2:	f042 0202 	orr.w	r2, r2, #2
 8002cf6:	605a      	str	r2, [r3, #4]
 8002cf8:	e7ea      	b.n	8002cd0 <HAL_SPI_Transmit_DMA+0x7c>
 8002cfa:	2002      	movs	r0, #2
 8002cfc:	e7e8      	b.n	8002cd0 <HAL_SPI_Transmit_DMA+0x7c>
 8002cfe:	2002      	movs	r0, #2
 8002d00:	e7e9      	b.n	8002cd6 <HAL_SPI_Transmit_DMA+0x82>
 8002d02:	bf00      	nop
 8002d04:	08002d15 	.word	0x08002d15
 8002d08:	08002d43 	.word	0x08002d43
 8002d0c:	08002d21 	.word	0x08002d21

08002d10 <HAL_SPI_TxCpltCallback>:
 8002d10:	4770      	bx	lr

08002d12 <HAL_SPI_TxHalfCpltCallback>:
 8002d12:	4770      	bx	lr

08002d14 <SPI_DMAHalfTransmitCplt>:
 8002d14:	b508      	push	{r3, lr}
 8002d16:	6a40      	ldr	r0, [r0, #36]	; 0x24
 8002d18:	f7ff fffb 	bl	8002d12 <HAL_SPI_TxHalfCpltCallback>
 8002d1c:	bd08      	pop	{r3, pc}

08002d1e <HAL_SPI_ErrorCallback>:
 8002d1e:	4770      	bx	lr

08002d20 <SPI_DMAError>:
 8002d20:	6a40      	ldr	r0, [r0, #36]	; 0x24
 8002d22:	b508      	push	{r3, lr}
 8002d24:	6802      	ldr	r2, [r0, #0]
 8002d26:	6853      	ldr	r3, [r2, #4]
 8002d28:	f023 0303 	bic.w	r3, r3, #3
 8002d2c:	6053      	str	r3, [r2, #4]
 8002d2e:	6d43      	ldr	r3, [r0, #84]	; 0x54
 8002d30:	f043 0310 	orr.w	r3, r3, #16
 8002d34:	6543      	str	r3, [r0, #84]	; 0x54
 8002d36:	2301      	movs	r3, #1
 8002d38:	f880 3051 	strb.w	r3, [r0, #81]	; 0x51
 8002d3c:	f7ff ffef 	bl	8002d1e <HAL_SPI_ErrorCallback>
 8002d40:	bd08      	pop	{r3, pc}

08002d42 <SPI_DMATransmitCplt>:
 8002d42:	b537      	push	{r0, r1, r2, r4, r5, lr}
 8002d44:	4605      	mov	r5, r0
 8002d46:	6a44      	ldr	r4, [r0, #36]	; 0x24
 8002d48:	f7fe fa4a 	bl	80011e0 <HAL_GetTick>
 8002d4c:	682b      	ldr	r3, [r5, #0]
 8002d4e:	4602      	mov	r2, r0
 8002d50:	681b      	ldr	r3, [r3, #0]
 8002d52:	069b      	lsls	r3, r3, #26
 8002d54:	d426      	bmi.n	8002da4 <SPI_DMATransmitCplt+0x62>
 8002d56:	6823      	ldr	r3, [r4, #0]
 8002d58:	4620      	mov	r0, r4
 8002d5a:	6859      	ldr	r1, [r3, #4]
 8002d5c:	f021 0120 	bic.w	r1, r1, #32
 8002d60:	6059      	str	r1, [r3, #4]
 8002d62:	6859      	ldr	r1, [r3, #4]
 8002d64:	f021 0102 	bic.w	r1, r1, #2
 8002d68:	6059      	str	r1, [r3, #4]
 8002d6a:	2164      	movs	r1, #100	; 0x64
 8002d6c:	f7ff fe7f 	bl	8002a6e <SPI_EndRxTxTransaction>
 8002d70:	b118      	cbz	r0, 8002d7a <SPI_DMATransmitCplt+0x38>
 8002d72:	6d63      	ldr	r3, [r4, #84]	; 0x54
 8002d74:	f043 0320 	orr.w	r3, r3, #32
 8002d78:	6563      	str	r3, [r4, #84]	; 0x54
 8002d7a:	68a3      	ldr	r3, [r4, #8]
 8002d7c:	b933      	cbnz	r3, 8002d8c <SPI_DMATransmitCplt+0x4a>
 8002d7e:	9301      	str	r3, [sp, #4]
 8002d80:	6823      	ldr	r3, [r4, #0]
 8002d82:	68da      	ldr	r2, [r3, #12]
 8002d84:	9201      	str	r2, [sp, #4]
 8002d86:	689b      	ldr	r3, [r3, #8]
 8002d88:	9301      	str	r3, [sp, #4]
 8002d8a:	9b01      	ldr	r3, [sp, #4]
 8002d8c:	2300      	movs	r3, #0
 8002d8e:	86e3      	strh	r3, [r4, #54]	; 0x36
 8002d90:	2301      	movs	r3, #1
 8002d92:	f884 3051 	strb.w	r3, [r4, #81]	; 0x51
 8002d96:	6d63      	ldr	r3, [r4, #84]	; 0x54
 8002d98:	b123      	cbz	r3, 8002da4 <SPI_DMATransmitCplt+0x62>
 8002d9a:	4620      	mov	r0, r4
 8002d9c:	f7ff ffbf 	bl	8002d1e <HAL_SPI_ErrorCallback>
 8002da0:	b003      	add	sp, #12
 8002da2:	bd30      	pop	{r4, r5, pc}
 8002da4:	4620      	mov	r0, r4
 8002da6:	f7ff ffb3 	bl	8002d10 <HAL_SPI_TxCpltCallback>
 8002daa:	e7f9      	b.n	8002da0 <SPI_DMATransmitCplt+0x5e>

08002dac <TIM_OC1_SetConfig>:
 8002dac:	6a03      	ldr	r3, [r0, #32]
 8002dae:	b570      	push	{r4, r5, r6, lr}
 8002db0:	f023 0301 	bic.w	r3, r3, #1
 8002db4:	6203      	str	r3, [r0, #32]
 8002db6:	6a03      	ldr	r3, [r0, #32]
 8002db8:	6844      	ldr	r4, [r0, #4]
 8002dba:	6982      	ldr	r2, [r0, #24]
 8002dbc:	680d      	ldr	r5, [r1, #0]
 8002dbe:	f022 0273 	bic.w	r2, r2, #115	; 0x73
 8002dc2:	432a      	orrs	r2, r5
 8002dc4:	688d      	ldr	r5, [r1, #8]
 8002dc6:	f023 0302 	bic.w	r3, r3, #2
 8002dca:	432b      	orrs	r3, r5
 8002dcc:	4d0a      	ldr	r5, [pc, #40]	; (8002df8 <TIM_OC1_SetConfig+0x4c>)
 8002dce:	42a8      	cmp	r0, r5
 8002dd0:	d10b      	bne.n	8002dea <TIM_OC1_SetConfig+0x3e>
 8002dd2:	68cd      	ldr	r5, [r1, #12]
 8002dd4:	f023 0308 	bic.w	r3, r3, #8
 8002dd8:	432b      	orrs	r3, r5
 8002dda:	f424 7440 	bic.w	r4, r4, #768	; 0x300
 8002dde:	e9d1 5605 	ldrd	r5, r6, [r1, #20]
 8002de2:	4335      	orrs	r5, r6
 8002de4:	f023 0304 	bic.w	r3, r3, #4
 8002de8:	432c      	orrs	r4, r5
 8002dea:	6044      	str	r4, [r0, #4]
 8002dec:	6182      	str	r2, [r0, #24]
 8002dee:	684a      	ldr	r2, [r1, #4]
 8002df0:	6342      	str	r2, [r0, #52]	; 0x34
 8002df2:	6203      	str	r3, [r0, #32]
 8002df4:	bd70      	pop	{r4, r5, r6, pc}
 8002df6:	bf00      	nop
 8002df8:	40012c00 	.word	0x40012c00

08002dfc <TIM_OC3_SetConfig>:
 8002dfc:	6a03      	ldr	r3, [r0, #32]
 8002dfe:	b570      	push	{r4, r5, r6, lr}
 8002e00:	f423 7380 	bic.w	r3, r3, #256	; 0x100
 8002e04:	6203      	str	r3, [r0, #32]
 8002e06:	6a03      	ldr	r3, [r0, #32]
 8002e08:	6844      	ldr	r4, [r0, #4]
 8002e0a:	69c2      	ldr	r2, [r0, #28]
 8002e0c:	680d      	ldr	r5, [r1, #0]
 8002e0e:	f022 0273 	bic.w	r2, r2, #115	; 0x73
 8002e12:	432a      	orrs	r2, r5
 8002e14:	688d      	ldr	r5, [r1, #8]
 8002e16:	f423 7300 	bic.w	r3, r3, #512	; 0x200
 8002e1a:	ea43 2305 	orr.w	r3, r3, r5, lsl #8
 8002e1e:	4d0b      	ldr	r5, [pc, #44]	; (8002e4c <TIM_OC3_SetConfig+0x50>)
 8002e20:	42a8      	cmp	r0, r5
 8002e22:	d10d      	bne.n	8002e40 <TIM_OC3_SetConfig+0x44>
 8002e24:	68cd      	ldr	r5, [r1, #12]
 8002e26:	f423 6300 	bic.w	r3, r3, #2048	; 0x800
 8002e2a:	ea43 2305 	orr.w	r3, r3, r5, lsl #8
 8002e2e:	f424 5440 	bic.w	r4, r4, #12288	; 0x3000
 8002e32:	e9d1 5605 	ldrd	r5, r6, [r1, #20]
 8002e36:	4335      	orrs	r5, r6
 8002e38:	f423 6380 	bic.w	r3, r3, #1024	; 0x400
 8002e3c:	ea44 1405 	orr.w	r4, r4, r5, lsl #4
 8002e40:	6044      	str	r4, [r0, #4]
 8002e42:	61c2      	str	r2, [r0, #28]
 8002e44:	684a      	ldr	r2, [r1, #4]
 8002e46:	63c2      	str	r2, [r0, #60]	; 0x3c
 8002e48:	6203      	str	r3, [r0, #32]
 8002e4a:	bd70      	pop	{r4, r5, r6, pc}
 8002e4c:	40012c00 	.word	0x40012c00

08002e50 <TIM_OC4_SetConfig>:
 8002e50:	6a03      	ldr	r3, [r0, #32]
 8002e52:	b530      	push	{r4, r5, lr}
 8002e54:	f423 5380 	bic.w	r3, r3, #4096	; 0x1000
 8002e58:	6203      	str	r3, [r0, #32]
 8002e5a:	6a03      	ldr	r3, [r0, #32]
 8002e5c:	6844      	ldr	r4, [r0, #4]
 8002e5e:	69c2      	ldr	r2, [r0, #28]
 8002e60:	680d      	ldr	r5, [r1, #0]
 8002e62:	f422 42e6 	bic.w	r2, r2, #29440	; 0x7300
 8002e66:	ea42 2205 	orr.w	r2, r2, r5, lsl #8
 8002e6a:	688d      	ldr	r5, [r1, #8]
 8002e6c:	f423 5300 	bic.w	r3, r3, #8192	; 0x2000
 8002e70:	ea43 3305 	orr.w	r3, r3, r5, lsl #12
 8002e74:	4d06      	ldr	r5, [pc, #24]	; (8002e90 <TIM_OC4_SetConfig+0x40>)
 8002e76:	42a8      	cmp	r0, r5
 8002e78:	bf02      	ittt	eq
 8002e7a:	694d      	ldreq	r5, [r1, #20]
 8002e7c:	f424 4480 	biceq.w	r4, r4, #16384	; 0x4000
 8002e80:	ea44 1485 	orreq.w	r4, r4, r5, lsl #6
 8002e84:	6044      	str	r4, [r0, #4]
 8002e86:	61c2      	str	r2, [r0, #28]
 8002e88:	684a      	ldr	r2, [r1, #4]
 8002e8a:	6402      	str	r2, [r0, #64]	; 0x40
 8002e8c:	6203      	str	r3, [r0, #32]
 8002e8e:	bd30      	pop	{r4, r5, pc}
 8002e90:	40012c00 	.word	0x40012c00

08002e94 <HAL_TIM_Base_MspInit>:
 8002e94:	4770      	bx	lr

08002e96 <HAL_TIM_Base_Start>:
 8002e96:	2302      	movs	r3, #2
 8002e98:	f880 303d 	strb.w	r3, [r0, #61]	; 0x3d
 8002e9c:	6803      	ldr	r3, [r0, #0]
 8002e9e:	689a      	ldr	r2, [r3, #8]
 8002ea0:	f002 0207 	and.w	r2, r2, #7
 8002ea4:	2a06      	cmp	r2, #6
 8002ea6:	bf1e      	ittt	ne
 8002ea8:	681a      	ldrne	r2, [r3, #0]
 8002eaa:	f042 0201 	orrne.w	r2, r2, #1
 8002eae:	601a      	strne	r2, [r3, #0]
 8002eb0:	2301      	movs	r3, #1
 8002eb2:	f880 303d 	strb.w	r3, [r0, #61]	; 0x3d
 8002eb6:	2000      	movs	r0, #0
 8002eb8:	4770      	bx	lr

08002eba <HAL_TIM_PWM_MspInit>:
 8002eba:	4770      	bx	lr

08002ebc <TIM_Base_SetConfig>:
 8002ebc:	4a1a      	ldr	r2, [pc, #104]	; (8002f28 <TIM_Base_SetConfig+0x6c>)
 8002ebe:	6803      	ldr	r3, [r0, #0]
 8002ec0:	4290      	cmp	r0, r2
 8002ec2:	d00a      	beq.n	8002eda <TIM_Base_SetConfig+0x1e>
 8002ec4:	f1b0 4f80 	cmp.w	r0, #1073741824	; 0x40000000
 8002ec8:	d007      	beq.n	8002eda <TIM_Base_SetConfig+0x1e>
 8002eca:	f5a2 3294 	sub.w	r2, r2, #75776	; 0x12800
 8002ece:	4290      	cmp	r0, r2
 8002ed0:	d003      	beq.n	8002eda <TIM_Base_SetConfig+0x1e>
 8002ed2:	f502 6280 	add.w	r2, r2, #1024	; 0x400
 8002ed6:	4290      	cmp	r0, r2
 8002ed8:	d115      	bne.n	8002f06 <TIM_Base_SetConfig+0x4a>
 8002eda:	684a      	ldr	r2, [r1, #4]
 8002edc:	f023 0370 	bic.w	r3, r3, #112	; 0x70
 8002ee0:	4313      	orrs	r3, r2
 8002ee2:	4a11      	ldr	r2, [pc, #68]	; (8002f28 <TIM_Base_SetConfig+0x6c>)
 8002ee4:	4290      	cmp	r0, r2
 8002ee6:	d00a      	beq.n	8002efe <TIM_Base_SetConfig+0x42>
 8002ee8:	f1b0 4f80 	cmp.w	r0, #1073741824	; 0x40000000
 8002eec:	d007      	beq.n	8002efe <TIM_Base_SetConfig+0x42>
 8002eee:	f5a2 3294 	sub.w	r2, r2, #75776	; 0x12800
 8002ef2:	4290      	cmp	r0, r2
 8002ef4:	d003      	beq.n	8002efe <TIM_Base_SetConfig+0x42>
 8002ef6:	f502 6280 	add.w	r2, r2, #1024	; 0x400
 8002efa:	4290      	cmp	r0, r2
 8002efc:	d103      	bne.n	8002f06 <TIM_Base_SetConfig+0x4a>
 8002efe:	68ca      	ldr	r2, [r1, #12]
 8002f00:	f423 7340 	bic.w	r3, r3, #768	; 0x300
 8002f04:	4313      	orrs	r3, r2
 8002f06:	694a      	ldr	r2, [r1, #20]
 8002f08:	f023 0380 	bic.w	r3, r3, #128	; 0x80
 8002f0c:	4313      	orrs	r3, r2
 8002f0e:	6003      	str	r3, [r0, #0]
 8002f10:	688b      	ldr	r3, [r1, #8]
 8002f12:	62c3      	str	r3, [r0, #44]	; 0x2c
 8002f14:	680b      	ldr	r3, [r1, #0]
 8002f16:	6283      	str	r3, [r0, #40]	; 0x28
 8002f18:	4b03      	ldr	r3, [pc, #12]	; (8002f28 <TIM_Base_SetConfig+0x6c>)
 8002f1a:	4298      	cmp	r0, r3
 8002f1c:	bf04      	itt	eq
 8002f1e:	690b      	ldreq	r3, [r1, #16]
 8002f20:	6303      	streq	r3, [r0, #48]	; 0x30
 8002f22:	2301      	movs	r3, #1
 8002f24:	6143      	str	r3, [r0, #20]
 8002f26:	4770      	bx	lr
 8002f28:	40012c00 	.word	0x40012c00

08002f2c <HAL_TIM_Base_Init>:
 8002f2c:	b510      	push	{r4, lr}
 8002f2e:	4604      	mov	r4, r0
 8002f30:	b1a0      	cbz	r0, 8002f5c <HAL_TIM_Base_Init+0x30>
 8002f32:	f890 303d 	ldrb.w	r3, [r0, #61]	; 0x3d
 8002f36:	f003 02ff 	and.w	r2, r3, #255	; 0xff
 8002f3a:	b91b      	cbnz	r3, 8002f44 <HAL_TIM_Base_Init+0x18>
 8002f3c:	f880 203c 	strb.w	r2, [r0, #60]	; 0x3c
 8002f40:	f7ff ffa8 	bl	8002e94 <HAL_TIM_Base_MspInit>
 8002f44:	2302      	movs	r3, #2
 8002f46:	6820      	ldr	r0, [r4, #0]
 8002f48:	f884 303d 	strb.w	r3, [r4, #61]	; 0x3d
 8002f4c:	1d21      	adds	r1, r4, #4
 8002f4e:	f7ff ffb5 	bl	8002ebc <TIM_Base_SetConfig>
 8002f52:	2301      	movs	r3, #1
 8002f54:	2000      	movs	r0, #0
 8002f56:	f884 303d 	strb.w	r3, [r4, #61]	; 0x3d
 8002f5a:	bd10      	pop	{r4, pc}
 8002f5c:	2001      	movs	r0, #1
 8002f5e:	e7fc      	b.n	8002f5a <HAL_TIM_Base_Init+0x2e>

08002f60 <HAL_TIM_PWM_Init>:
 8002f60:	b510      	push	{r4, lr}
 8002f62:	4604      	mov	r4, r0
 8002f64:	b1a0      	cbz	r0, 8002f90 <HAL_TIM_PWM_Init+0x30>
 8002f66:	f890 303d 	ldrb.w	r3, [r0, #61]	; 0x3d
 8002f6a:	f003 02ff 	and.w	r2, r3, #255	; 0xff
 8002f6e:	b91b      	cbnz	r3, 8002f78 <HAL_TIM_PWM_Init+0x18>
 8002f70:	f880 203c 	strb.w	r2, [r0, #60]	; 0x3c
 8002f74:	f7ff ffa1 	bl	8002eba <HAL_TIM_PWM_MspInit>
 8002f78:	2302      	movs	r3, #2
 8002f7a:	6820      	ldr	r0, [r4, #0]
 8002f7c:	f884 303d 	strb.w	r3, [r4, #61]	; 0x3d
 8002f80:	1d21      	adds	r1, r4, #4
 8002f82:	f7ff ff9b 	bl	8002ebc <TIM_Base_SetConfig>
 8002f86:	2301      	movs	r3, #1
 8002f88:	2000      	movs	r0, #0
 8002f8a:	f884 303d 	strb.w	r3, [r4, #61]	; 0x3d
 8002f8e:	bd10      	pop	{r4, pc}
 8002f90:	2001      	movs	r0, #1
 8002f92:	e7fc      	b.n	8002f8e <HAL_TIM_PWM_Init+0x2e>

08002f94 <TIM_OC2_SetConfig>:
 8002f94:	6a03      	ldr	r3, [r0, #32]
 8002f96:	b570      	push	{r4, r5, r6, lr}
 8002f98:	f023 0310 	bic.w	r3, r3, #16
 8002f9c:	6203      	str	r3, [r0, #32]
 8002f9e:	6a03      	ldr	r3, [r0, #32]
 8002fa0:	6844      	ldr	r4, [r0, #4]
 8002fa2:	6982      	ldr	r2, [r0, #24]
 8002fa4:	680d      	ldr	r5, [r1, #0]
 8002fa6:	f422 42e6 	bic.w	r2, r2, #29440	; 0x7300
 8002faa:	ea42 2205 	orr.w	r2, r2, r5, lsl #8
 8002fae:	688d      	ldr	r5, [r1, #8]
 8002fb0:	f023 0320 	bic.w	r3, r3, #32
 8002fb4:	ea43 1305 	orr.w	r3, r3, r5, lsl #4
 8002fb8:	4d0b      	ldr	r5, [pc, #44]	; (8002fe8 <TIM_OC2_SetConfig+0x54>)
 8002fba:	42a8      	cmp	r0, r5
 8002fbc:	d10d      	bne.n	8002fda <TIM_OC2_SetConfig+0x46>
 8002fbe:	68cd      	ldr	r5, [r1, #12]
 8002fc0:	f023 0380 	bic.w	r3, r3, #128	; 0x80
 8002fc4:	ea43 1305 	orr.w	r3, r3, r5, lsl #4
 8002fc8:	f424 6440 	bic.w	r4, r4, #3072	; 0xc00
 8002fcc:	e9d1 5605 	ldrd	r5, r6, [r1, #20]
 8002fd0:	4335      	orrs	r5, r6
 8002fd2:	f023 0340 	bic.w	r3, r3, #64	; 0x40
 8002fd6:	ea44 0485 	orr.w	r4, r4, r5, lsl #2
 8002fda:	6044      	str	r4, [r0, #4]
 8002fdc:	6182      	str	r2, [r0, #24]
 8002fde:	684a      	ldr	r2, [r1, #4]
 8002fe0:	6382      	str	r2, [r0, #56]	; 0x38
 8002fe2:	6203      	str	r3, [r0, #32]
 8002fe4:	bd70      	pop	{r4, r5, r6, pc}
 8002fe6:	bf00      	nop
 8002fe8:	40012c00 	.word	0x40012c00

08002fec <HAL_TIM_PWM_ConfigChannel>:
 8002fec:	b538      	push	{r3, r4, r5, lr}
 8002fee:	f890 303c 	ldrb.w	r3, [r0, #60]	; 0x3c
 8002ff2:	4604      	mov	r4, r0
 8002ff4:	2b01      	cmp	r3, #1
 8002ff6:	f04f 0002 	mov.w	r0, #2
 8002ffa:	d025      	beq.n	8003048 <HAL_TIM_PWM_ConfigChannel+0x5c>
 8002ffc:	2301      	movs	r3, #1
 8002ffe:	f884 003d 	strb.w	r0, [r4, #61]	; 0x3d
 8003002:	f884 303c 	strb.w	r3, [r4, #60]	; 0x3c
 8003006:	2a0c      	cmp	r2, #12
 8003008:	d818      	bhi.n	800303c <HAL_TIM_PWM_ConfigChannel+0x50>
 800300a:	e8df f002 	tbb	[pc, r2]
 800300e:	1707      	.short	0x1707
 8003010:	171e1717 	.word	0x171e1717
 8003014:	172f1717 	.word	0x172f1717
 8003018:	1717      	.short	0x1717
 800301a:	40          	.byte	0x40
 800301b:	00          	.byte	0x00
 800301c:	6820      	ldr	r0, [r4, #0]
 800301e:	f7ff fec5 	bl	8002dac <TIM_OC1_SetConfig>
 8003022:	6823      	ldr	r3, [r4, #0]
 8003024:	6909      	ldr	r1, [r1, #16]
 8003026:	699a      	ldr	r2, [r3, #24]
 8003028:	f042 0208 	orr.w	r2, r2, #8
 800302c:	619a      	str	r2, [r3, #24]
 800302e:	699a      	ldr	r2, [r3, #24]
 8003030:	f022 0204 	bic.w	r2, r2, #4
 8003034:	619a      	str	r2, [r3, #24]
 8003036:	699a      	ldr	r2, [r3, #24]
 8003038:	430a      	orrs	r2, r1
 800303a:	619a      	str	r2, [r3, #24]
 800303c:	2301      	movs	r3, #1
 800303e:	2000      	movs	r0, #0
 8003040:	f884 303d 	strb.w	r3, [r4, #61]	; 0x3d
 8003044:	f884 003c 	strb.w	r0, [r4, #60]	; 0x3c
 8003048:	bd38      	pop	{r3, r4, r5, pc}
 800304a:	6820      	ldr	r0, [r4, #0]
 800304c:	f7ff ffa2 	bl	8002f94 <TIM_OC2_SetConfig>
 8003050:	6823      	ldr	r3, [r4, #0]
 8003052:	6909      	ldr	r1, [r1, #16]
 8003054:	699a      	ldr	r2, [r3, #24]
 8003056:	f442 6200 	orr.w	r2, r2, #2048	; 0x800
 800305a:	619a      	str	r2, [r3, #24]
 800305c:	699a      	ldr	r2, [r3, #24]
 800305e:	f422 6280 	bic.w	r2, r2, #1024	; 0x400
 8003062:	619a      	str	r2, [r3, #24]
 8003064:	699a      	ldr	r2, [r3, #24]
 8003066:	ea42 2201 	orr.w	r2, r2, r1, lsl #8
 800306a:	e7e6      	b.n	800303a <HAL_TIM_PWM_ConfigChannel+0x4e>
 800306c:	6820      	ldr	r0, [r4, #0]
 800306e:	f7ff fec5 	bl	8002dfc <TIM_OC3_SetConfig>
 8003072:	6823      	ldr	r3, [r4, #0]
 8003074:	6909      	ldr	r1, [r1, #16]
 8003076:	69da      	ldr	r2, [r3, #28]
 8003078:	f042 0208 	orr.w	r2, r2, #8
 800307c:	61da      	str	r2, [r3, #28]
 800307e:	69da      	ldr	r2, [r3, #28]
 8003080:	f022 0204 	bic.w	r2, r2, #4
 8003084:	61da      	str	r2, [r3, #28]
 8003086:	69da      	ldr	r2, [r3, #28]
 8003088:	430a      	orrs	r2, r1
 800308a:	61da      	str	r2, [r3, #28]
 800308c:	e7d6      	b.n	800303c <HAL_TIM_PWM_ConfigChannel+0x50>
 800308e:	6820      	ldr	r0, [r4, #0]
 8003090:	f7ff fede 	bl	8002e50 <TIM_OC4_SetConfig>
 8003094:	6823      	ldr	r3, [r4, #0]
 8003096:	6909      	ldr	r1, [r1, #16]
 8003098:	69da      	ldr	r2, [r3, #28]
 800309a:	f442 6200 	orr.w	r2, r2, #2048	; 0x800
 800309e:	61da      	str	r2, [r3, #28]
 80030a0:	69da      	ldr	r2, [r3, #28]
 80030a2:	f422 6280 	bic.w	r2, r2, #1024	; 0x400
 80030a6:	61da      	str	r2, [r3, #28]
 80030a8:	69da      	ldr	r2, [r3, #28]
 80030aa:	ea42 2201 	orr.w	r2, r2, r1, lsl #8
 80030ae:	e7ec      	b.n	800308a <HAL_TIM_PWM_ConfigChannel+0x9e>

080030b0 <TIM_ETR_SetConfig>:
 80030b0:	b510      	push	{r4, lr}
 80030b2:	6884      	ldr	r4, [r0, #8]
 80030b4:	430a      	orrs	r2, r1
 80030b6:	f424 447f 	bic.w	r4, r4, #65280	; 0xff00
 80030ba:	ea42 2303 	orr.w	r3, r2, r3, lsl #8
 80030be:	4323      	orrs	r3, r4
 80030c0:	6083      	str	r3, [r0, #8]
 80030c2:	bd10      	pop	{r4, pc}

080030c4 <HAL_TIM_ConfigClockSource>:
 80030c4:	f890 303c 	ldrb.w	r3, [r0, #60]	; 0x3c
 80030c8:	b570      	push	{r4, r5, r6, lr}
 80030ca:	2b01      	cmp	r3, #1
 80030cc:	4604      	mov	r4, r0
 80030ce:	f04f 0002 	mov.w	r0, #2
 80030d2:	d019      	beq.n	8003108 <HAL_TIM_ConfigClockSource+0x44>
 80030d4:	2301      	movs	r3, #1
 80030d6:	f884 003d 	strb.w	r0, [r4, #61]	; 0x3d
 80030da:	6820      	ldr	r0, [r4, #0]
 80030dc:	f884 303c 	strb.w	r3, [r4, #60]	; 0x3c
 80030e0:	6883      	ldr	r3, [r0, #8]
 80030e2:	f423 437f 	bic.w	r3, r3, #65280	; 0xff00
 80030e6:	f023 0377 	bic.w	r3, r3, #119	; 0x77
 80030ea:	6083      	str	r3, [r0, #8]
 80030ec:	680b      	ldr	r3, [r1, #0]
 80030ee:	2b40      	cmp	r3, #64	; 0x40
 80030f0:	d065      	beq.n	80031be <HAL_TIM_ConfigClockSource+0xfa>
 80030f2:	d815      	bhi.n	8003120 <HAL_TIM_ConfigClockSource+0x5c>
 80030f4:	2b10      	cmp	r3, #16
 80030f6:	d00c      	beq.n	8003112 <HAL_TIM_ConfigClockSource+0x4e>
 80030f8:	d807      	bhi.n	800310a <HAL_TIM_ConfigClockSource+0x46>
 80030fa:	b153      	cbz	r3, 8003112 <HAL_TIM_ConfigClockSource+0x4e>
 80030fc:	2301      	movs	r3, #1
 80030fe:	2000      	movs	r0, #0
 8003100:	f884 303d 	strb.w	r3, [r4, #61]	; 0x3d
 8003104:	f884 003c 	strb.w	r0, [r4, #60]	; 0x3c
 8003108:	bd70      	pop	{r4, r5, r6, pc}
 800310a:	2b20      	cmp	r3, #32
 800310c:	d001      	beq.n	8003112 <HAL_TIM_ConfigClockSource+0x4e>
 800310e:	2b30      	cmp	r3, #48	; 0x30
 8003110:	d1f4      	bne.n	80030fc <HAL_TIM_ConfigClockSource+0x38>
 8003112:	6882      	ldr	r2, [r0, #8]
 8003114:	f043 0307 	orr.w	r3, r3, #7
 8003118:	f022 0270 	bic.w	r2, r2, #112	; 0x70
 800311c:	4313      	orrs	r3, r2
 800311e:	e01a      	b.n	8003156 <HAL_TIM_ConfigClockSource+0x92>
 8003120:	2b60      	cmp	r3, #96	; 0x60
 8003122:	d034      	beq.n	800318e <HAL_TIM_ConfigClockSource+0xca>
 8003124:	d819      	bhi.n	800315a <HAL_TIM_ConfigClockSource+0x96>
 8003126:	2b50      	cmp	r3, #80	; 0x50
 8003128:	d1e8      	bne.n	80030fc <HAL_TIM_ConfigClockSource+0x38>
 800312a:	684a      	ldr	r2, [r1, #4]
 800312c:	68ce      	ldr	r6, [r1, #12]
 800312e:	6a01      	ldr	r1, [r0, #32]
 8003130:	6a05      	ldr	r5, [r0, #32]
 8003132:	f021 010a 	bic.w	r1, r1, #10
 8003136:	f025 0501 	bic.w	r5, r5, #1
 800313a:	6205      	str	r5, [r0, #32]
 800313c:	6983      	ldr	r3, [r0, #24]
 800313e:	430a      	orrs	r2, r1
 8003140:	f023 03f0 	bic.w	r3, r3, #240	; 0xf0
 8003144:	ea43 1306 	orr.w	r3, r3, r6, lsl #4
 8003148:	6183      	str	r3, [r0, #24]
 800314a:	6202      	str	r2, [r0, #32]
 800314c:	6883      	ldr	r3, [r0, #8]
 800314e:	f023 0370 	bic.w	r3, r3, #112	; 0x70
 8003152:	f043 0357 	orr.w	r3, r3, #87	; 0x57
 8003156:	6083      	str	r3, [r0, #8]
 8003158:	e7d0      	b.n	80030fc <HAL_TIM_ConfigClockSource+0x38>
 800315a:	2b70      	cmp	r3, #112	; 0x70
 800315c:	d00c      	beq.n	8003178 <HAL_TIM_ConfigClockSource+0xb4>
 800315e:	f5b3 5f00 	cmp.w	r3, #8192	; 0x2000
 8003162:	d1cb      	bne.n	80030fc <HAL_TIM_ConfigClockSource+0x38>
 8003164:	68cb      	ldr	r3, [r1, #12]
 8003166:	e9d1 2101 	ldrd	r2, r1, [r1, #4]
 800316a:	f7ff ffa1 	bl	80030b0 <TIM_ETR_SetConfig>
 800316e:	6822      	ldr	r2, [r4, #0]
 8003170:	6893      	ldr	r3, [r2, #8]
 8003172:	f443 4380 	orr.w	r3, r3, #16384	; 0x4000
 8003176:	e008      	b.n	800318a <HAL_TIM_ConfigClockSource+0xc6>
 8003178:	68cb      	ldr	r3, [r1, #12]
 800317a:	e9d1 2101 	ldrd	r2, r1, [r1, #4]
 800317e:	f7ff ff97 	bl	80030b0 <TIM_ETR_SetConfig>
 8003182:	6822      	ldr	r2, [r4, #0]
 8003184:	6893      	ldr	r3, [r2, #8]
 8003186:	f043 0377 	orr.w	r3, r3, #119	; 0x77
 800318a:	6093      	str	r3, [r2, #8]
 800318c:	e7b6      	b.n	80030fc <HAL_TIM_ConfigClockSource+0x38>
 800318e:	684d      	ldr	r5, [r1, #4]
 8003190:	68ce      	ldr	r6, [r1, #12]
 8003192:	6a01      	ldr	r1, [r0, #32]
 8003194:	f021 0110 	bic.w	r1, r1, #16
 8003198:	6201      	str	r1, [r0, #32]
 800319a:	6982      	ldr	r2, [r0, #24]
 800319c:	6a03      	ldr	r3, [r0, #32]
 800319e:	f422 4270 	bic.w	r2, r2, #61440	; 0xf000
 80031a2:	f023 03a0 	bic.w	r3, r3, #160	; 0xa0
 80031a6:	ea43 1305 	orr.w	r3, r3, r5, lsl #4
 80031aa:	ea42 3206 	orr.w	r2, r2, r6, lsl #12
 80031ae:	6182      	str	r2, [r0, #24]
 80031b0:	6203      	str	r3, [r0, #32]
 80031b2:	6883      	ldr	r3, [r0, #8]
 80031b4:	f023 0370 	bic.w	r3, r3, #112	; 0x70
 80031b8:	f043 0367 	orr.w	r3, r3, #103	; 0x67
 80031bc:	e7cb      	b.n	8003156 <HAL_TIM_ConfigClockSource+0x92>
 80031be:	684a      	ldr	r2, [r1, #4]
 80031c0:	68ce      	ldr	r6, [r1, #12]
 80031c2:	6a01      	ldr	r1, [r0, #32]
 80031c4:	6a05      	ldr	r5, [r0, #32]
 80031c6:	f021 010a 	bic.w	r1, r1, #10
 80031ca:	f025 0501 	bic.w	r5, r5, #1
 80031ce:	6205      	str	r5, [r0, #32]
 80031d0:	6983      	ldr	r3, [r0, #24]
 80031d2:	430a      	orrs	r2, r1
 80031d4:	f023 03f0 	bic.w	r3, r3, #240	; 0xf0
 80031d8:	ea43 1306 	orr.w	r3, r3, r6, lsl #4
 80031dc:	6183      	str	r3, [r0, #24]
 80031de:	6202      	str	r2, [r0, #32]
 80031e0:	6883      	ldr	r3, [r0, #8]
 80031e2:	f023 0370 	bic.w	r3, r3, #112	; 0x70
 80031e6:	f043 0347 	orr.w	r3, r3, #71	; 0x47
 80031ea:	e7b4      	b.n	8003156 <HAL_TIM_ConfigClockSource+0x92>

080031ec <TIM_CCxChannelCmd>:
 80031ec:	b510      	push	{r4, lr}
 80031ee:	2401      	movs	r4, #1
 80031f0:	6a03      	ldr	r3, [r0, #32]
 80031f2:	f001 011f 	and.w	r1, r1, #31
 80031f6:	408c      	lsls	r4, r1
 80031f8:	ea23 0304 	bic.w	r3, r3, r4
 80031fc:	6203      	str	r3, [r0, #32]
 80031fe:	6a03      	ldr	r3, [r0, #32]
 8003200:	408a      	lsls	r2, r1
 8003202:	431a      	orrs	r2, r3
 8003204:	6202      	str	r2, [r0, #32]
 8003206:	bd10      	pop	{r4, pc}

08003208 <HAL_TIM_OC_Start>:
 8003208:	b510      	push	{r4, lr}
 800320a:	4604      	mov	r4, r0
 800320c:	2201      	movs	r2, #1
 800320e:	6800      	ldr	r0, [r0, #0]
 8003210:	f7ff ffec 	bl	80031ec <TIM_CCxChannelCmd>
 8003214:	6823      	ldr	r3, [r4, #0]
 8003216:	4a09      	ldr	r2, [pc, #36]	; (800323c <HAL_TIM_OC_Start+0x34>)
 8003218:	2000      	movs	r0, #0
 800321a:	4293      	cmp	r3, r2
 800321c:	bf02      	ittt	eq
 800321e:	6c5a      	ldreq	r2, [r3, #68]	; 0x44
 8003220:	f442 4200 	orreq.w	r2, r2, #32768	; 0x8000
 8003224:	645a      	streq	r2, [r3, #68]	; 0x44
 8003226:	689a      	ldr	r2, [r3, #8]
 8003228:	f002 0207 	and.w	r2, r2, #7
 800322c:	2a06      	cmp	r2, #6
 800322e:	bf1e      	ittt	ne
 8003230:	681a      	ldrne	r2, [r3, #0]
 8003232:	f042 0201 	orrne.w	r2, r2, #1
 8003236:	601a      	strne	r2, [r3, #0]
 8003238:	bd10      	pop	{r4, pc}
 800323a:	bf00      	nop
 800323c:	40012c00 	.word	0x40012c00

08003240 <HAL_TIM_PWM_Start>:
 8003240:	f7ff bfe2 	b.w	8003208 <HAL_TIM_OC_Start>

08003244 <UART_EndRxTransfer>:
 8003244:	6803      	ldr	r3, [r0, #0]
 8003246:	68da      	ldr	r2, [r3, #12]
 8003248:	f422 7290 	bic.w	r2, r2, #288	; 0x120
 800324c:	60da      	str	r2, [r3, #12]
 800324e:	695a      	ldr	r2, [r3, #20]
 8003250:	f022 0201 	bic.w	r2, r2, #1
 8003254:	615a      	str	r2, [r3, #20]
 8003256:	2320      	movs	r3, #32
 8003258:	f880 303a 	strb.w	r3, [r0, #58]	; 0x3a
 800325c:	4770      	bx	lr
	...

08003260 <UART_SetConfig>:
 8003260:	b538      	push	{r3, r4, r5, lr}
 8003262:	4605      	mov	r5, r0
 8003264:	6803      	ldr	r3, [r0, #0]
 8003266:	68c1      	ldr	r1, [r0, #12]
 8003268:	691a      	ldr	r2, [r3, #16]
 800326a:	2419      	movs	r4, #25
 800326c:	f422 5240 	bic.w	r2, r2, #12288	; 0x3000
 8003270:	430a      	orrs	r2, r1
 8003272:	611a      	str	r2, [r3, #16]
 8003274:	6882      	ldr	r2, [r0, #8]
 8003276:	6900      	ldr	r0, [r0, #16]
 8003278:	68d9      	ldr	r1, [r3, #12]
 800327a:	4302      	orrs	r2, r0
 800327c:	6968      	ldr	r0, [r5, #20]
 800327e:	f421 51b0 	bic.w	r1, r1, #5632	; 0x1600
 8003282:	f021 010c 	bic.w	r1, r1, #12
 8003286:	4302      	orrs	r2, r0
 8003288:	430a      	orrs	r2, r1
 800328a:	60da      	str	r2, [r3, #12]
 800328c:	695a      	ldr	r2, [r3, #20]
 800328e:	69a9      	ldr	r1, [r5, #24]
 8003290:	f422 7240 	bic.w	r2, r2, #768	; 0x300
 8003294:	430a      	orrs	r2, r1
 8003296:	615a      	str	r2, [r3, #20]
 8003298:	4a0d      	ldr	r2, [pc, #52]	; (80032d0 <UART_SetConfig+0x70>)
 800329a:	4293      	cmp	r3, r2
 800329c:	d114      	bne.n	80032c8 <UART_SetConfig+0x68>
 800329e:	f7ff fb23 	bl	80028e8 <HAL_RCC_GetPCLK2Freq>
 80032a2:	4360      	muls	r0, r4
 80032a4:	686c      	ldr	r4, [r5, #4]
 80032a6:	2264      	movs	r2, #100	; 0x64
 80032a8:	00a4      	lsls	r4, r4, #2
 80032aa:	fbb0 f0f4 	udiv	r0, r0, r4
 80032ae:	fbb0 f1f2 	udiv	r1, r0, r2
 80032b2:	fb02 0311 	mls	r3, r2, r1, r0
 80032b6:	011b      	lsls	r3, r3, #4
 80032b8:	3332      	adds	r3, #50	; 0x32
 80032ba:	fbb3 f3f2 	udiv	r3, r3, r2
 80032be:	682c      	ldr	r4, [r5, #0]
 80032c0:	eb03 1301 	add.w	r3, r3, r1, lsl #4
 80032c4:	60a3      	str	r3, [r4, #8]
 80032c6:	bd38      	pop	{r3, r4, r5, pc}
 80032c8:	f7ff fafe 	bl	80028c8 <HAL_RCC_GetPCLK1Freq>
 80032cc:	e7e9      	b.n	80032a2 <UART_SetConfig+0x42>
 80032ce:	bf00      	nop
 80032d0:	40013800 	.word	0x40013800

080032d4 <UART_WaitOnFlagUntilTimeout.constprop.3>:
 80032d4:	b5f8      	push	{r3, r4, r5, r6, r7, lr}
 80032d6:	4604      	mov	r4, r0
 80032d8:	460e      	mov	r6, r1
 80032da:	4617      	mov	r7, r2
 80032dc:	461d      	mov	r5, r3
 80032de:	6821      	ldr	r1, [r4, #0]
 80032e0:	680b      	ldr	r3, [r1, #0]
 80032e2:	ea36 0303 	bics.w	r3, r6, r3
 80032e6:	d101      	bne.n	80032ec <UART_WaitOnFlagUntilTimeout.constprop.3+0x18>
 80032e8:	2000      	movs	r0, #0
 80032ea:	e014      	b.n	8003316 <UART_WaitOnFlagUntilTimeout.constprop.3+0x42>
 80032ec:	1c6b      	adds	r3, r5, #1
 80032ee:	d0f7      	beq.n	80032e0 <UART_WaitOnFlagUntilTimeout.constprop.3+0xc>
 80032f0:	b995      	cbnz	r5, 8003318 <UART_WaitOnFlagUntilTimeout.constprop.3+0x44>
 80032f2:	6823      	ldr	r3, [r4, #0]
 80032f4:	2003      	movs	r0, #3
 80032f6:	68da      	ldr	r2, [r3, #12]
 80032f8:	f422 72d0 	bic.w	r2, r2, #416	; 0x1a0
 80032fc:	60da      	str	r2, [r3, #12]
 80032fe:	695a      	ldr	r2, [r3, #20]
 8003300:	f022 0201 	bic.w	r2, r2, #1
 8003304:	615a      	str	r2, [r3, #20]
 8003306:	2320      	movs	r3, #32
 8003308:	f884 3039 	strb.w	r3, [r4, #57]	; 0x39
 800330c:	f884 303a 	strb.w	r3, [r4, #58]	; 0x3a
 8003310:	2300      	movs	r3, #0
 8003312:	f884 3038 	strb.w	r3, [r4, #56]	; 0x38
 8003316:	bdf8      	pop	{r3, r4, r5, r6, r7, pc}
 8003318:	f7fd ff62 	bl	80011e0 <HAL_GetTick>
 800331c:	1bc0      	subs	r0, r0, r7
 800331e:	4285      	cmp	r5, r0
 8003320:	d2dd      	bcs.n	80032de <UART_WaitOnFlagUntilTimeout.constprop.3+0xa>
 8003322:	e7e6      	b.n	80032f2 <UART_WaitOnFlagUntilTimeout.constprop.3+0x1e>

08003324 <HAL_UART_Init>:
 8003324:	b510      	push	{r4, lr}
 8003326:	4604      	mov	r4, r0
 8003328:	b340      	cbz	r0, 800337c <HAL_UART_Init+0x58>
 800332a:	f890 3039 	ldrb.w	r3, [r0, #57]	; 0x39
 800332e:	f003 02ff 	and.w	r2, r3, #255	; 0xff
 8003332:	b91b      	cbnz	r3, 800333c <HAL_UART_Init+0x18>
 8003334:	f880 2038 	strb.w	r2, [r0, #56]	; 0x38
 8003338:	f003 f97e 	bl	8006638 <HAL_UART_MspInit>
 800333c:	2324      	movs	r3, #36	; 0x24
 800333e:	6822      	ldr	r2, [r4, #0]
 8003340:	f884 3039 	strb.w	r3, [r4, #57]	; 0x39
 8003344:	68d3      	ldr	r3, [r2, #12]
 8003346:	4620      	mov	r0, r4
 8003348:	f423 5300 	bic.w	r3, r3, #8192	; 0x2000
 800334c:	60d3      	str	r3, [r2, #12]
 800334e:	f7ff ff87 	bl	8003260 <UART_SetConfig>
 8003352:	6823      	ldr	r3, [r4, #0]
 8003354:	2000      	movs	r0, #0
 8003356:	691a      	ldr	r2, [r3, #16]
 8003358:	f422 4290 	bic.w	r2, r2, #18432	; 0x4800
 800335c:	611a      	str	r2, [r3, #16]
 800335e:	695a      	ldr	r2, [r3, #20]
 8003360:	f022 022a 	bic.w	r2, r2, #42	; 0x2a
 8003364:	615a      	str	r2, [r3, #20]
 8003366:	68da      	ldr	r2, [r3, #12]
 8003368:	f442 5200 	orr.w	r2, r2, #8192	; 0x2000
 800336c:	60da      	str	r2, [r3, #12]
 800336e:	2320      	movs	r3, #32
 8003370:	63e0      	str	r0, [r4, #60]	; 0x3c
 8003372:	f884 3039 	strb.w	r3, [r4, #57]	; 0x39
 8003376:	f884 303a 	strb.w	r3, [r4, #58]	; 0x3a
 800337a:	bd10      	pop	{r4, pc}
 800337c:	2001      	movs	r0, #1
 800337e:	e7fc      	b.n	800337a <HAL_UART_Init+0x56>

08003380 <HAL_HalfDuplex_Init>:
 8003380:	b510      	push	{r4, lr}
 8003382:	4604      	mov	r4, r0
 8003384:	b360      	cbz	r0, 80033e0 <HAL_HalfDuplex_Init+0x60>
 8003386:	f890 3039 	ldrb.w	r3, [r0, #57]	; 0x39
 800338a:	f003 02ff 	and.w	r2, r3, #255	; 0xff
 800338e:	b91b      	cbnz	r3, 8003398 <HAL_HalfDuplex_Init+0x18>
 8003390:	f880 2038 	strb.w	r2, [r0, #56]	; 0x38
 8003394:	f003 f950 	bl	8006638 <HAL_UART_MspInit>
 8003398:	2324      	movs	r3, #36	; 0x24
 800339a:	6822      	ldr	r2, [r4, #0]
 800339c:	f884 3039 	strb.w	r3, [r4, #57]	; 0x39
 80033a0:	68d3      	ldr	r3, [r2, #12]
 80033a2:	4620      	mov	r0, r4
 80033a4:	f423 5300 	bic.w	r3, r3, #8192	; 0x2000
 80033a8:	60d3      	str	r3, [r2, #12]
 80033aa:	f7ff ff59 	bl	8003260 <UART_SetConfig>
 80033ae:	6823      	ldr	r3, [r4, #0]
 80033b0:	2000      	movs	r0, #0
 80033b2:	691a      	ldr	r2, [r3, #16]
 80033b4:	f422 4290 	bic.w	r2, r2, #18432	; 0x4800
 80033b8:	611a      	str	r2, [r3, #16]
 80033ba:	695a      	ldr	r2, [r3, #20]
 80033bc:	f022 0222 	bic.w	r2, r2, #34	; 0x22
 80033c0:	615a      	str	r2, [r3, #20]
 80033c2:	695a      	ldr	r2, [r3, #20]
 80033c4:	f042 0208 	orr.w	r2, r2, #8
 80033c8:	615a      	str	r2, [r3, #20]
 80033ca:	68da      	ldr	r2, [r3, #12]
 80033cc:	f442 5200 	orr.w	r2, r2, #8192	; 0x2000
 80033d0:	60da      	str	r2, [r3, #12]
 80033d2:	2320      	movs	r3, #32
 80033d4:	63e0      	str	r0, [r4, #60]	; 0x3c
 80033d6:	f884 3039 	strb.w	r3, [r4, #57]	; 0x39
 80033da:	f884 303a 	strb.w	r3, [r4, #58]	; 0x3a
 80033de:	bd10      	pop	{r4, pc}
 80033e0:	2001      	movs	r0, #1
 80033e2:	e7fc      	b.n	80033de <HAL_HalfDuplex_Init+0x5e>

080033e4 <HAL_UART_Transmit>:
 80033e4:	e92d 41f0 	stmdb	sp!, {r4, r5, r6, r7, r8, lr}
 80033e8:	461f      	mov	r7, r3
 80033ea:	f890 3039 	ldrb.w	r3, [r0, #57]	; 0x39
 80033ee:	4604      	mov	r4, r0
 80033f0:	2b20      	cmp	r3, #32
 80033f2:	460d      	mov	r5, r1
 80033f4:	4690      	mov	r8, r2
 80033f6:	d14c      	bne.n	8003492 <HAL_UART_Transmit+0xae>
 80033f8:	2900      	cmp	r1, #0
 80033fa:	d048      	beq.n	800348e <HAL_UART_Transmit+0xaa>
 80033fc:	2a00      	cmp	r2, #0
 80033fe:	d046      	beq.n	800348e <HAL_UART_Transmit+0xaa>
 8003400:	f890 3038 	ldrb.w	r3, [r0, #56]	; 0x38
 8003404:	2b01      	cmp	r3, #1
 8003406:	d044      	beq.n	8003492 <HAL_UART_Transmit+0xae>
 8003408:	2301      	movs	r3, #1
 800340a:	f880 3038 	strb.w	r3, [r0, #56]	; 0x38
 800340e:	2300      	movs	r3, #0
 8003410:	63c3      	str	r3, [r0, #60]	; 0x3c
 8003412:	2321      	movs	r3, #33	; 0x21
 8003414:	f880 3039 	strb.w	r3, [r0, #57]	; 0x39
 8003418:	f7fd fee2 	bl	80011e0 <HAL_GetTick>
 800341c:	4606      	mov	r6, r0
 800341e:	f8a4 8024 	strh.w	r8, [r4, #36]	; 0x24
 8003422:	f8a4 8026 	strh.w	r8, [r4, #38]	; 0x26
 8003426:	8ce3      	ldrh	r3, [r4, #38]	; 0x26
 8003428:	b29b      	uxth	r3, r3
 800342a:	b963      	cbnz	r3, 8003446 <HAL_UART_Transmit+0x62>
 800342c:	463b      	mov	r3, r7
 800342e:	4632      	mov	r2, r6
 8003430:	2140      	movs	r1, #64	; 0x40
 8003432:	4620      	mov	r0, r4
 8003434:	f7ff ff4e 	bl	80032d4 <UART_WaitOnFlagUntilTimeout.constprop.3>
 8003438:	b9a0      	cbnz	r0, 8003464 <HAL_UART_Transmit+0x80>
 800343a:	2320      	movs	r3, #32
 800343c:	f884 0038 	strb.w	r0, [r4, #56]	; 0x38
 8003440:	f884 3039 	strb.w	r3, [r4, #57]	; 0x39
 8003444:	e00f      	b.n	8003466 <HAL_UART_Transmit+0x82>
 8003446:	8ce3      	ldrh	r3, [r4, #38]	; 0x26
 8003448:	4632      	mov	r2, r6
 800344a:	3b01      	subs	r3, #1
 800344c:	b29b      	uxth	r3, r3
 800344e:	84e3      	strh	r3, [r4, #38]	; 0x26
 8003450:	68a3      	ldr	r3, [r4, #8]
 8003452:	2180      	movs	r1, #128	; 0x80
 8003454:	f5b3 5f80 	cmp.w	r3, #4096	; 0x1000
 8003458:	4620      	mov	r0, r4
 800345a:	463b      	mov	r3, r7
 800345c:	d10e      	bne.n	800347c <HAL_UART_Transmit+0x98>
 800345e:	f7ff ff39 	bl	80032d4 <UART_WaitOnFlagUntilTimeout.constprop.3>
 8003462:	b110      	cbz	r0, 800346a <HAL_UART_Transmit+0x86>
 8003464:	2003      	movs	r0, #3
 8003466:	e8bd 81f0 	ldmia.w	sp!, {r4, r5, r6, r7, r8, pc}
 800346a:	882b      	ldrh	r3, [r5, #0]
 800346c:	6822      	ldr	r2, [r4, #0]
 800346e:	f3c3 0308 	ubfx	r3, r3, #0, #9
 8003472:	6053      	str	r3, [r2, #4]
 8003474:	6923      	ldr	r3, [r4, #16]
 8003476:	b943      	cbnz	r3, 800348a <HAL_UART_Transmit+0xa6>
 8003478:	3502      	adds	r5, #2
 800347a:	e7d4      	b.n	8003426 <HAL_UART_Transmit+0x42>
 800347c:	f7ff ff2a 	bl	80032d4 <UART_WaitOnFlagUntilTimeout.constprop.3>
 8003480:	2800      	cmp	r0, #0
 8003482:	d1ef      	bne.n	8003464 <HAL_UART_Transmit+0x80>
 8003484:	6823      	ldr	r3, [r4, #0]
 8003486:	782a      	ldrb	r2, [r5, #0]
 8003488:	605a      	str	r2, [r3, #4]
 800348a:	3501      	adds	r5, #1
 800348c:	e7cb      	b.n	8003426 <HAL_UART_Transmit+0x42>
 800348e:	2001      	movs	r0, #1
 8003490:	e7e9      	b.n	8003466 <HAL_UART_Transmit+0x82>
 8003492:	2002      	movs	r0, #2
 8003494:	e7e7      	b.n	8003466 <HAL_UART_Transmit+0x82>

08003496 <HAL_UART_Receive_IT>:
 8003496:	f890 303a 	ldrb.w	r3, [r0, #58]	; 0x3a
 800349a:	2b20      	cmp	r3, #32
 800349c:	d120      	bne.n	80034e0 <HAL_UART_Receive_IT+0x4a>
 800349e:	b1e9      	cbz	r1, 80034dc <HAL_UART_Receive_IT+0x46>
 80034a0:	b1e2      	cbz	r2, 80034dc <HAL_UART_Receive_IT+0x46>
 80034a2:	f890 3038 	ldrb.w	r3, [r0, #56]	; 0x38
 80034a6:	2b01      	cmp	r3, #1
 80034a8:	d01a      	beq.n	80034e0 <HAL_UART_Receive_IT+0x4a>
 80034aa:	85c2      	strh	r2, [r0, #46]	; 0x2e
 80034ac:	8582      	strh	r2, [r0, #44]	; 0x2c
 80034ae:	2300      	movs	r3, #0
 80034b0:	2222      	movs	r2, #34	; 0x22
 80034b2:	63c3      	str	r3, [r0, #60]	; 0x3c
 80034b4:	f880 203a 	strb.w	r2, [r0, #58]	; 0x3a
 80034b8:	6802      	ldr	r2, [r0, #0]
 80034ba:	6281      	str	r1, [r0, #40]	; 0x28
 80034bc:	68d1      	ldr	r1, [r2, #12]
 80034be:	f880 3038 	strb.w	r3, [r0, #56]	; 0x38
 80034c2:	f441 7180 	orr.w	r1, r1, #256	; 0x100
 80034c6:	60d1      	str	r1, [r2, #12]
 80034c8:	6951      	ldr	r1, [r2, #20]
 80034ca:	4618      	mov	r0, r3
 80034cc:	f041 0101 	orr.w	r1, r1, #1
 80034d0:	6151      	str	r1, [r2, #20]
 80034d2:	68d1      	ldr	r1, [r2, #12]
 80034d4:	f041 0120 	orr.w	r1, r1, #32
 80034d8:	60d1      	str	r1, [r2, #12]
 80034da:	4770      	bx	lr
 80034dc:	2001      	movs	r0, #1
 80034de:	4770      	bx	lr
 80034e0:	2002      	movs	r0, #2
 80034e2:	4770      	bx	lr

080034e4 <HAL_UART_TxCpltCallback>:
 80034e4:	4770      	bx	lr

080034e6 <UART_Receive_IT>:
 80034e6:	f890 303a 	ldrb.w	r3, [r0, #58]	; 0x3a
 80034ea:	b510      	push	{r4, lr}
 80034ec:	2b22      	cmp	r3, #34	; 0x22
 80034ee:	d133      	bne.n	8003558 <UART_Receive_IT+0x72>
 80034f0:	6881      	ldr	r1, [r0, #8]
 80034f2:	6904      	ldr	r4, [r0, #16]
 80034f4:	f5b1 5f80 	cmp.w	r1, #4096	; 0x1000
 80034f8:	6a83      	ldr	r3, [r0, #40]	; 0x28
 80034fa:	6802      	ldr	r2, [r0, #0]
 80034fc:	d123      	bne.n	8003546 <UART_Receive_IT+0x60>
 80034fe:	6852      	ldr	r2, [r2, #4]
 8003500:	b9ec      	cbnz	r4, 800353e <UART_Receive_IT+0x58>
 8003502:	f3c2 0208 	ubfx	r2, r2, #0, #9
 8003506:	f823 2b02 	strh.w	r2, [r3], #2
 800350a:	6283      	str	r3, [r0, #40]	; 0x28
 800350c:	8dc4      	ldrh	r4, [r0, #46]	; 0x2e
 800350e:	3c01      	subs	r4, #1
 8003510:	b2a4      	uxth	r4, r4
 8003512:	85c4      	strh	r4, [r0, #46]	; 0x2e
 8003514:	b98c      	cbnz	r4, 800353a <UART_Receive_IT+0x54>
 8003516:	6803      	ldr	r3, [r0, #0]
 8003518:	68da      	ldr	r2, [r3, #12]
 800351a:	f022 0220 	bic.w	r2, r2, #32
 800351e:	60da      	str	r2, [r3, #12]
 8003520:	68da      	ldr	r2, [r3, #12]
 8003522:	f422 7280 	bic.w	r2, r2, #256	; 0x100
 8003526:	60da      	str	r2, [r3, #12]
 8003528:	695a      	ldr	r2, [r3, #20]
 800352a:	f022 0201 	bic.w	r2, r2, #1
 800352e:	615a      	str	r2, [r3, #20]
 8003530:	2320      	movs	r3, #32
 8003532:	f880 303a 	strb.w	r3, [r0, #58]	; 0x3a
 8003536:	f000 ff5f 	bl	80043f8 <HAL_UART_RxCpltCallback>
 800353a:	2000      	movs	r0, #0
 800353c:	e00d      	b.n	800355a <UART_Receive_IT+0x74>
 800353e:	b2d2      	uxtb	r2, r2
 8003540:	f823 2b01 	strh.w	r2, [r3], #1
 8003544:	e7e1      	b.n	800350a <UART_Receive_IT+0x24>
 8003546:	1c59      	adds	r1, r3, #1
 8003548:	6852      	ldr	r2, [r2, #4]
 800354a:	6281      	str	r1, [r0, #40]	; 0x28
 800354c:	b90c      	cbnz	r4, 8003552 <UART_Receive_IT+0x6c>
 800354e:	701a      	strb	r2, [r3, #0]
 8003550:	e7dc      	b.n	800350c <UART_Receive_IT+0x26>
 8003552:	f002 027f 	and.w	r2, r2, #127	; 0x7f
 8003556:	e7fa      	b.n	800354e <UART_Receive_IT+0x68>
 8003558:	2002      	movs	r0, #2
 800355a:	bd10      	pop	{r4, pc}

0800355c <HAL_UART_ErrorCallback>:
 800355c:	4770      	bx	lr
	...

08003560 <HAL_UART_IRQHandler>:
 8003560:	6803      	ldr	r3, [r0, #0]
 8003562:	b570      	push	{r4, r5, r6, lr}
 8003564:	681a      	ldr	r2, [r3, #0]
 8003566:	4604      	mov	r4, r0
 8003568:	0716      	lsls	r6, r2, #28
 800356a:	68d9      	ldr	r1, [r3, #12]
 800356c:	695d      	ldr	r5, [r3, #20]
 800356e:	d107      	bne.n	8003580 <HAL_UART_IRQHandler+0x20>
 8003570:	0696      	lsls	r6, r2, #26
 8003572:	d558      	bpl.n	8003626 <HAL_UART_IRQHandler+0xc6>
 8003574:	068d      	lsls	r5, r1, #26
 8003576:	d556      	bpl.n	8003626 <HAL_UART_IRQHandler+0xc6>
 8003578:	e8bd 4070 	ldmia.w	sp!, {r4, r5, r6, lr}
 800357c:	f7ff bfb3 	b.w	80034e6 <UART_Receive_IT>
 8003580:	f015 0501 	ands.w	r5, r5, #1
 8003584:	d102      	bne.n	800358c <HAL_UART_IRQHandler+0x2c>
 8003586:	f411 7f90 	tst.w	r1, #288	; 0x120
 800358a:	d04c      	beq.n	8003626 <HAL_UART_IRQHandler+0xc6>
 800358c:	07d3      	lsls	r3, r2, #31
 800358e:	d505      	bpl.n	800359c <HAL_UART_IRQHandler+0x3c>
 8003590:	05ce      	lsls	r6, r1, #23
 8003592:	bf42      	ittt	mi
 8003594:	6be3      	ldrmi	r3, [r4, #60]	; 0x3c
 8003596:	f043 0301 	orrmi.w	r3, r3, #1
 800359a:	63e3      	strmi	r3, [r4, #60]	; 0x3c
 800359c:	0750      	lsls	r0, r2, #29
 800359e:	d504      	bpl.n	80035aa <HAL_UART_IRQHandler+0x4a>
 80035a0:	b11d      	cbz	r5, 80035aa <HAL_UART_IRQHandler+0x4a>
 80035a2:	6be3      	ldr	r3, [r4, #60]	; 0x3c
 80035a4:	f043 0302 	orr.w	r3, r3, #2
 80035a8:	63e3      	str	r3, [r4, #60]	; 0x3c
 80035aa:	0793      	lsls	r3, r2, #30
 80035ac:	d504      	bpl.n	80035b8 <HAL_UART_IRQHandler+0x58>
 80035ae:	b11d      	cbz	r5, 80035b8 <HAL_UART_IRQHandler+0x58>
 80035b0:	6be3      	ldr	r3, [r4, #60]	; 0x3c
 80035b2:	f043 0304 	orr.w	r3, r3, #4
 80035b6:	63e3      	str	r3, [r4, #60]	; 0x3c
 80035b8:	0716      	lsls	r6, r2, #28
 80035ba:	d504      	bpl.n	80035c6 <HAL_UART_IRQHandler+0x66>
 80035bc:	b11d      	cbz	r5, 80035c6 <HAL_UART_IRQHandler+0x66>
 80035be:	6be3      	ldr	r3, [r4, #60]	; 0x3c
 80035c0:	f043 0308 	orr.w	r3, r3, #8
 80035c4:	63e3      	str	r3, [r4, #60]	; 0x3c
 80035c6:	6be3      	ldr	r3, [r4, #60]	; 0x3c
 80035c8:	b343      	cbz	r3, 800361c <HAL_UART_IRQHandler+0xbc>
 80035ca:	0695      	lsls	r5, r2, #26
 80035cc:	d504      	bpl.n	80035d8 <HAL_UART_IRQHandler+0x78>
 80035ce:	0688      	lsls	r0, r1, #26
 80035d0:	d502      	bpl.n	80035d8 <HAL_UART_IRQHandler+0x78>
 80035d2:	4620      	mov	r0, r4
 80035d4:	f7ff ff87 	bl	80034e6 <UART_Receive_IT>
 80035d8:	6823      	ldr	r3, [r4, #0]
 80035da:	4620      	mov	r0, r4
 80035dc:	695d      	ldr	r5, [r3, #20]
 80035de:	6be2      	ldr	r2, [r4, #60]	; 0x3c
 80035e0:	0711      	lsls	r1, r2, #28
 80035e2:	d402      	bmi.n	80035ea <HAL_UART_IRQHandler+0x8a>
 80035e4:	f015 0540 	ands.w	r5, r5, #64	; 0x40
 80035e8:	d019      	beq.n	800361e <HAL_UART_IRQHandler+0xbe>
 80035ea:	f7ff fe2b 	bl	8003244 <UART_EndRxTransfer>
 80035ee:	6823      	ldr	r3, [r4, #0]
 80035f0:	695a      	ldr	r2, [r3, #20]
 80035f2:	0652      	lsls	r2, r2, #25
 80035f4:	d50f      	bpl.n	8003616 <HAL_UART_IRQHandler+0xb6>
 80035f6:	695a      	ldr	r2, [r3, #20]
 80035f8:	6b60      	ldr	r0, [r4, #52]	; 0x34
 80035fa:	f022 0240 	bic.w	r2, r2, #64	; 0x40
 80035fe:	615a      	str	r2, [r3, #20]
 8003600:	b148      	cbz	r0, 8003616 <HAL_UART_IRQHandler+0xb6>
 8003602:	4b26      	ldr	r3, [pc, #152]	; (800369c <HAL_UART_IRQHandler+0x13c>)
 8003604:	6343      	str	r3, [r0, #52]	; 0x34
 8003606:	f7fe f903 	bl	8001810 <HAL_DMA_Abort_IT>
 800360a:	b138      	cbz	r0, 800361c <HAL_UART_IRQHandler+0xbc>
 800360c:	6b60      	ldr	r0, [r4, #52]	; 0x34
 800360e:	e8bd 4070 	ldmia.w	sp!, {r4, r5, r6, lr}
 8003612:	6b43      	ldr	r3, [r0, #52]	; 0x34
 8003614:	4718      	bx	r3
 8003616:	4620      	mov	r0, r4
 8003618:	f7ff ffa0 	bl	800355c <HAL_UART_ErrorCallback>
 800361c:	bd70      	pop	{r4, r5, r6, pc}
 800361e:	f7ff ff9d 	bl	800355c <HAL_UART_ErrorCallback>
 8003622:	63e5      	str	r5, [r4, #60]	; 0x3c
 8003624:	e7fa      	b.n	800361c <HAL_UART_IRQHandler+0xbc>
 8003626:	0616      	lsls	r6, r2, #24
 8003628:	d528      	bpl.n	800367c <HAL_UART_IRQHandler+0x11c>
 800362a:	060d      	lsls	r5, r1, #24
 800362c:	d526      	bpl.n	800367c <HAL_UART_IRQHandler+0x11c>
 800362e:	f894 2039 	ldrb.w	r2, [r4, #57]	; 0x39
 8003632:	2a21      	cmp	r2, #33	; 0x21
 8003634:	d1f2      	bne.n	800361c <HAL_UART_IRQHandler+0xbc>
 8003636:	68a1      	ldr	r1, [r4, #8]
 8003638:	6a22      	ldr	r2, [r4, #32]
 800363a:	f5b1 5f80 	cmp.w	r1, #4096	; 0x1000
 800363e:	d118      	bne.n	8003672 <HAL_UART_IRQHandler+0x112>
 8003640:	8811      	ldrh	r1, [r2, #0]
 8003642:	f3c1 0108 	ubfx	r1, r1, #0, #9
 8003646:	6059      	str	r1, [r3, #4]
 8003648:	6921      	ldr	r1, [r4, #16]
 800364a:	b981      	cbnz	r1, 800366e <HAL_UART_IRQHandler+0x10e>
 800364c:	3202      	adds	r2, #2
 800364e:	6222      	str	r2, [r4, #32]
 8003650:	8ce2      	ldrh	r2, [r4, #38]	; 0x26
 8003652:	3a01      	subs	r2, #1
 8003654:	b292      	uxth	r2, r2
 8003656:	84e2      	strh	r2, [r4, #38]	; 0x26
 8003658:	2a00      	cmp	r2, #0
 800365a:	d1df      	bne.n	800361c <HAL_UART_IRQHandler+0xbc>
 800365c:	68da      	ldr	r2, [r3, #12]
 800365e:	f022 0280 	bic.w	r2, r2, #128	; 0x80
 8003662:	60da      	str	r2, [r3, #12]
 8003664:	68da      	ldr	r2, [r3, #12]
 8003666:	f042 0240 	orr.w	r2, r2, #64	; 0x40
 800366a:	60da      	str	r2, [r3, #12]
 800366c:	e7d6      	b.n	800361c <HAL_UART_IRQHandler+0xbc>
 800366e:	3201      	adds	r2, #1
 8003670:	e7ed      	b.n	800364e <HAL_UART_IRQHandler+0xee>
 8003672:	1c51      	adds	r1, r2, #1
 8003674:	6221      	str	r1, [r4, #32]
 8003676:	7812      	ldrb	r2, [r2, #0]
 8003678:	605a      	str	r2, [r3, #4]
 800367a:	e7e9      	b.n	8003650 <HAL_UART_IRQHandler+0xf0>
 800367c:	0650      	lsls	r0, r2, #25
 800367e:	d5cd      	bpl.n	800361c <HAL_UART_IRQHandler+0xbc>
 8003680:	064a      	lsls	r2, r1, #25
 8003682:	d5cb      	bpl.n	800361c <HAL_UART_IRQHandler+0xbc>
 8003684:	68da      	ldr	r2, [r3, #12]
 8003686:	4620      	mov	r0, r4
 8003688:	f022 0240 	bic.w	r2, r2, #64	; 0x40
 800368c:	60da      	str	r2, [r3, #12]
 800368e:	2320      	movs	r3, #32
 8003690:	f884 3039 	strb.w	r3, [r4, #57]	; 0x39
 8003694:	f7ff ff26 	bl	80034e4 <HAL_UART_TxCpltCallback>
 8003698:	e7c0      	b.n	800361c <HAL_UART_IRQHandler+0xbc>
 800369a:	bf00      	nop
 800369c:	080036a1 	.word	0x080036a1

080036a0 <UART_DMAAbortOnError>:
 80036a0:	b508      	push	{r3, lr}
 80036a2:	2300      	movs	r3, #0
 80036a4:	6a40      	ldr	r0, [r0, #36]	; 0x24
 80036a6:	85c3      	strh	r3, [r0, #46]	; 0x2e
 80036a8:	84c3      	strh	r3, [r0, #38]	; 0x26
 80036aa:	f7ff ff57 	bl	800355c <HAL_UART_ErrorCallback>
 80036ae:	bd08      	pop	{r3, pc}

080036b0 <HAL_HalfDuplex_EnableReceiver>:
 80036b0:	f890 3038 	ldrb.w	r3, [r0, #56]	; 0x38
 80036b4:	2b01      	cmp	r3, #1
 80036b6:	d011      	beq.n	80036dc <HAL_HalfDuplex_EnableReceiver+0x2c>
 80036b8:	2324      	movs	r3, #36	; 0x24
 80036ba:	6802      	ldr	r2, [r0, #0]
 80036bc:	f880 3039 	strb.w	r3, [r0, #57]	; 0x39
 80036c0:	68d3      	ldr	r3, [r2, #12]
 80036c2:	f023 030c 	bic.w	r3, r3, #12
 80036c6:	f043 0304 	orr.w	r3, r3, #4
 80036ca:	60d3      	str	r3, [r2, #12]
 80036cc:	2320      	movs	r3, #32
 80036ce:	f880 3039 	strb.w	r3, [r0, #57]	; 0x39
 80036d2:	2300      	movs	r3, #0
 80036d4:	f880 3038 	strb.w	r3, [r0, #56]	; 0x38
 80036d8:	4618      	mov	r0, r3
 80036da:	4770      	bx	lr
 80036dc:	2002      	movs	r0, #2
 80036de:	4770      	bx	lr

080036e0 <USB_ActivateEndpoint>:
 80036e0:	b5f0      	push	{r4, r5, r6, r7, lr}
 80036e2:	780c      	ldrb	r4, [r1, #0]
 80036e4:	4603      	mov	r3, r0
 80036e6:	f830 2024 	ldrh.w	r2, [r0, r4, lsl #2]
 80036ea:	78c8      	ldrb	r0, [r1, #3]
 80036ec:	f422 42ec 	bic.w	r2, r2, #30208	; 0x7600
 80036f0:	f022 0270 	bic.w	r2, r2, #112	; 0x70
 80036f4:	2803      	cmp	r0, #3
 80036f6:	d803      	bhi.n	8003700 <USB_ActivateEndpoint+0x20>
 80036f8:	e8df f000 	tbb	[pc, r0]
 80036fc:	46444942 	.word	0x46444942
 8003700:	2001      	movs	r0, #1
 8003702:	f248 0580 	movw	r5, #32896	; 0x8080
 8003706:	432a      	orrs	r2, r5
 8003708:	f823 2024 	strh.w	r2, [r3, r4, lsl #2]
 800370c:	780e      	ldrb	r6, [r1, #0]
 800370e:	4a9e      	ldr	r2, [pc, #632]	; (8003988 <USB_ActivateEndpoint+0x2a8>)
 8003710:	f833 4026 	ldrh.w	r4, [r3, r6, lsl #2]
 8003714:	4335      	orrs	r5, r6
 8003716:	4014      	ands	r4, r2
 8003718:	432c      	orrs	r4, r5
 800371a:	f823 4026 	strh.w	r4, [r3, r6, lsl #2]
 800371e:	7b0d      	ldrb	r5, [r1, #12]
 8003720:	780c      	ldrb	r4, [r1, #0]
 8003722:	2d00      	cmp	r5, #0
 8003724:	f040 8082 	bne.w	800382c <USB_ActivateEndpoint+0x14c>
 8003728:	88cd      	ldrh	r5, [r1, #6]
 800372a:	784e      	ldrb	r6, [r1, #1]
 800372c:	086d      	lsrs	r5, r5, #1
 800372e:	006d      	lsls	r5, r5, #1
 8003730:	eb03 1404 	add.w	r4, r3, r4, lsl #4
 8003734:	b376      	cbz	r6, 8003794 <USB_ActivateEndpoint+0xb4>
 8003736:	f8b3 6050 	ldrh.w	r6, [r3, #80]	; 0x50
 800373a:	4434      	add	r4, r6
 800373c:	f8a4 5400 	strh.w	r5, [r4, #1024]	; 0x400
 8003740:	780d      	ldrb	r5, [r1, #0]
 8003742:	f833 4025 	ldrh.w	r4, [r3, r5, lsl #2]
 8003746:	0667      	lsls	r7, r4, #25
 8003748:	d508      	bpl.n	800375c <USB_ActivateEndpoint+0x7c>
 800374a:	f833 4025 	ldrh.w	r4, [r3, r5, lsl #2]
 800374e:	4022      	ands	r2, r4
 8003750:	f442 4200 	orr.w	r2, r2, #32768	; 0x8000
 8003754:	f042 02c0 	orr.w	r2, r2, #192	; 0xc0
 8003758:	f823 2025 	strh.w	r2, [r3, r5, lsl #2]
 800375c:	78ca      	ldrb	r2, [r1, #3]
 800375e:	780c      	ldrb	r4, [r1, #0]
 8003760:	2a01      	cmp	r2, #1
 8003762:	f833 1024 	ldrh.w	r1, [r3, r4, lsl #2]
 8003766:	4a89      	ldr	r2, [pc, #548]	; (800398c <USB_ActivateEndpoint+0x2ac>)
 8003768:	ea02 0201 	and.w	r2, r2, r1
 800376c:	bf18      	it	ne
 800376e:	f082 0220 	eorne.w	r2, r2, #32
 8003772:	f442 4200 	orr.w	r2, r2, #32768	; 0x8000
 8003776:	f042 0280 	orr.w	r2, r2, #128	; 0x80
 800377a:	f823 2024 	strh.w	r2, [r3, r4, lsl #2]
 800377e:	bdf0      	pop	{r4, r5, r6, r7, pc}
 8003780:	f442 7200 	orr.w	r2, r2, #512	; 0x200
 8003784:	2000      	movs	r0, #0
 8003786:	e7bc      	b.n	8003702 <USB_ActivateEndpoint+0x22>
 8003788:	f442 62c0 	orr.w	r2, r2, #1536	; 0x600
 800378c:	e7fa      	b.n	8003784 <USB_ActivateEndpoint+0xa4>
 800378e:	f442 6280 	orr.w	r2, r2, #1024	; 0x400
 8003792:	e7f7      	b.n	8003784 <USB_ActivateEndpoint+0xa4>
 8003794:	f8b3 2050 	ldrh.w	r2, [r3, #80]	; 0x50
 8003798:	690e      	ldr	r6, [r1, #16]
 800379a:	4414      	add	r4, r2
 800379c:	f8a4 5408 	strh.w	r5, [r4, #1032]	; 0x408
 80037a0:	780a      	ldrb	r2, [r1, #0]
 80037a2:	f8b3 4050 	ldrh.w	r4, [r3, #80]	; 0x50
 80037a6:	eb03 1202 	add.w	r2, r3, r2, lsl #4
 80037aa:	b2a4      	uxth	r4, r4
 80037ac:	f202 420c 	addw	r2, r2, #1036	; 0x40c
 80037b0:	bb56      	cbnz	r6, 8003808 <USB_ActivateEndpoint+0x128>
 80037b2:	5b15      	ldrh	r5, [r2, r4]
 80037b4:	f425 45f8 	bic.w	r5, r5, #31744	; 0x7c00
 80037b8:	042d      	lsls	r5, r5, #16
 80037ba:	0c2d      	lsrs	r5, r5, #16
 80037bc:	5315      	strh	r5, [r2, r4]
 80037be:	5b15      	ldrh	r5, [r2, r4]
 80037c0:	f445 4500 	orr.w	r5, r5, #32768	; 0x8000
 80037c4:	5315      	strh	r5, [r2, r4]
 80037c6:	780c      	ldrb	r4, [r1, #0]
 80037c8:	f833 2024 	ldrh.w	r2, [r3, r4, lsl #2]
 80037cc:	0457      	lsls	r7, r2, #17
 80037ce:	d50b      	bpl.n	80037e8 <USB_ActivateEndpoint+0x108>
 80037d0:	f833 2024 	ldrh.w	r2, [r3, r4, lsl #2]
 80037d4:	f022 02f0 	bic.w	r2, r2, #240	; 0xf0
 80037d8:	0512      	lsls	r2, r2, #20
 80037da:	0d12      	lsrs	r2, r2, #20
 80037dc:	f442 4240 	orr.w	r2, r2, #49152	; 0xc000
 80037e0:	f042 0280 	orr.w	r2, r2, #128	; 0x80
 80037e4:	f823 2024 	strh.w	r2, [r3, r4, lsl #2]
 80037e8:	7809      	ldrb	r1, [r1, #0]
 80037ea:	f833 2021 	ldrh.w	r2, [r3, r1, lsl #2]
 80037ee:	f422 4280 	bic.w	r2, r2, #16384	; 0x4000
 80037f2:	f022 0270 	bic.w	r2, r2, #112	; 0x70
 80037f6:	f482 5240 	eor.w	r2, r2, #12288	; 0x3000
 80037fa:	f442 4200 	orr.w	r2, r2, #32768	; 0x8000
 80037fe:	f042 0280 	orr.w	r2, r2, #128	; 0x80
 8003802:	f823 2021 	strh.w	r2, [r3, r1, lsl #2]
 8003806:	e7ba      	b.n	800377e <USB_ActivateEndpoint+0x9e>
 8003808:	2e3e      	cmp	r6, #62	; 0x3e
 800380a:	d806      	bhi.n	800381a <USB_ActivateEndpoint+0x13a>
 800380c:	0875      	lsrs	r5, r6, #1
 800380e:	07f6      	lsls	r6, r6, #31
 8003810:	bf48      	it	mi
 8003812:	3501      	addmi	r5, #1
 8003814:	02ad      	lsls	r5, r5, #10
 8003816:	b2ad      	uxth	r5, r5
 8003818:	e7d4      	b.n	80037c4 <USB_ActivateEndpoint+0xe4>
 800381a:	0977      	lsrs	r7, r6, #5
 800381c:	06f5      	lsls	r5, r6, #27
 800381e:	4d5c      	ldr	r5, [pc, #368]	; (8003990 <USB_ActivateEndpoint+0x2b0>)
 8003820:	bf08      	it	eq
 8003822:	f107 37ff 	addeq.w	r7, r7, #4294967295
 8003826:	ea45 2587 	orr.w	r5, r5, r7, lsl #10
 800382a:	e7f4      	b.n	8003816 <USB_ActivateEndpoint+0x136>
 800382c:	f833 5024 	ldrh.w	r5, [r3, r4, lsl #2]
 8003830:	4015      	ands	r5, r2
 8003832:	f445 4501 	orr.w	r5, r5, #33024	; 0x8100
 8003836:	f045 0580 	orr.w	r5, r5, #128	; 0x80
 800383a:	f823 5024 	strh.w	r5, [r3, r4, lsl #2]
 800383e:	780c      	ldrb	r4, [r1, #0]
 8003840:	890d      	ldrh	r5, [r1, #8]
 8003842:	f8b3 6050 	ldrh.w	r6, [r3, #80]	; 0x50
 8003846:	eb03 1404 	add.w	r4, r3, r4, lsl #4
 800384a:	086d      	lsrs	r5, r5, #1
 800384c:	b2b6      	uxth	r6, r6
 800384e:	f504 6480 	add.w	r4, r4, #1024	; 0x400
 8003852:	006d      	lsls	r5, r5, #1
 8003854:	53a5      	strh	r5, [r4, r6]
 8003856:	780c      	ldrb	r4, [r1, #0]
 8003858:	894d      	ldrh	r5, [r1, #10]
 800385a:	f8b3 6050 	ldrh.w	r6, [r3, #80]	; 0x50
 800385e:	eb03 1404 	add.w	r4, r3, r4, lsl #4
 8003862:	086d      	lsrs	r5, r5, #1
 8003864:	f504 6481 	add.w	r4, r4, #1032	; 0x408
 8003868:	006d      	lsls	r5, r5, #1
 800386a:	b2b6      	uxth	r6, r6
 800386c:	53a5      	strh	r5, [r4, r6]
 800386e:	784c      	ldrb	r4, [r1, #1]
 8003870:	780d      	ldrb	r5, [r1, #0]
 8003872:	2c00      	cmp	r4, #0
 8003874:	d143      	bne.n	80038fe <USB_ActivateEndpoint+0x21e>
 8003876:	f833 4025 	ldrh.w	r4, [r3, r5, lsl #2]
 800387a:	0466      	lsls	r6, r4, #17
 800387c:	d508      	bpl.n	8003890 <USB_ActivateEndpoint+0x1b0>
 800387e:	f833 4025 	ldrh.w	r4, [r3, r5, lsl #2]
 8003882:	4022      	ands	r2, r4
 8003884:	f442 4240 	orr.w	r2, r2, #49152	; 0xc000
 8003888:	f042 0280 	orr.w	r2, r2, #128	; 0x80
 800388c:	f823 2025 	strh.w	r2, [r3, r5, lsl #2]
 8003890:	780c      	ldrb	r4, [r1, #0]
 8003892:	f833 2024 	ldrh.w	r2, [r3, r4, lsl #2]
 8003896:	0655      	lsls	r5, r2, #25
 8003898:	d50b      	bpl.n	80038b2 <USB_ActivateEndpoint+0x1d2>
 800389a:	f833 2024 	ldrh.w	r2, [r3, r4, lsl #2]
 800389e:	f022 02f0 	bic.w	r2, r2, #240	; 0xf0
 80038a2:	0512      	lsls	r2, r2, #20
 80038a4:	0d12      	lsrs	r2, r2, #20
 80038a6:	f442 4200 	orr.w	r2, r2, #32768	; 0x8000
 80038aa:	f042 02c0 	orr.w	r2, r2, #192	; 0xc0
 80038ae:	f823 2024 	strh.w	r2, [r3, r4, lsl #2]
 80038b2:	780c      	ldrb	r4, [r1, #0]
 80038b4:	f833 2024 	ldrh.w	r2, [r3, r4, lsl #2]
 80038b8:	f022 02f0 	bic.w	r2, r2, #240	; 0xf0
 80038bc:	0512      	lsls	r2, r2, #20
 80038be:	0d12      	lsrs	r2, r2, #20
 80038c0:	f442 4200 	orr.w	r2, r2, #32768	; 0x8000
 80038c4:	f042 02c0 	orr.w	r2, r2, #192	; 0xc0
 80038c8:	f823 2024 	strh.w	r2, [r3, r4, lsl #2]
 80038cc:	f248 0480 	movw	r4, #32896	; 0x8080
 80038d0:	780d      	ldrb	r5, [r1, #0]
 80038d2:	f833 2025 	ldrh.w	r2, [r3, r5, lsl #2]
 80038d6:	f422 4280 	bic.w	r2, r2, #16384	; 0x4000
 80038da:	f022 0270 	bic.w	r2, r2, #112	; 0x70
 80038de:	f482 5240 	eor.w	r2, r2, #12288	; 0x3000
 80038e2:	4322      	orrs	r2, r4
 80038e4:	f823 2025 	strh.w	r2, [r3, r5, lsl #2]
 80038e8:	7809      	ldrb	r1, [r1, #0]
 80038ea:	f833 2021 	ldrh.w	r2, [r3, r1, lsl #2]
 80038ee:	f422 42e0 	bic.w	r2, r2, #28672	; 0x7000
 80038f2:	f022 0240 	bic.w	r2, r2, #64	; 0x40
 80038f6:	4314      	orrs	r4, r2
 80038f8:	f823 4021 	strh.w	r4, [r3, r1, lsl #2]
 80038fc:	e73f      	b.n	800377e <USB_ActivateEndpoint+0x9e>
 80038fe:	f833 4025 	ldrh.w	r4, [r3, r5, lsl #2]
 8003902:	0464      	lsls	r4, r4, #17
 8003904:	d508      	bpl.n	8003918 <USB_ActivateEndpoint+0x238>
 8003906:	f833 4025 	ldrh.w	r4, [r3, r5, lsl #2]
 800390a:	4022      	ands	r2, r4
 800390c:	f442 4240 	orr.w	r2, r2, #49152	; 0xc000
 8003910:	f042 0280 	orr.w	r2, r2, #128	; 0x80
 8003914:	f823 2025 	strh.w	r2, [r3, r5, lsl #2]
 8003918:	780c      	ldrb	r4, [r1, #0]
 800391a:	f833 2024 	ldrh.w	r2, [r3, r4, lsl #2]
 800391e:	0652      	lsls	r2, r2, #25
 8003920:	d50b      	bpl.n	800393a <USB_ActivateEndpoint+0x25a>
 8003922:	f833 2024 	ldrh.w	r2, [r3, r4, lsl #2]
 8003926:	f022 02f0 	bic.w	r2, r2, #240	; 0xf0
 800392a:	0512      	lsls	r2, r2, #20
 800392c:	0d12      	lsrs	r2, r2, #20
 800392e:	f442 4200 	orr.w	r2, r2, #32768	; 0x8000
 8003932:	f042 02c0 	orr.w	r2, r2, #192	; 0xc0
 8003936:	f823 2024 	strh.w	r2, [r3, r4, lsl #2]
 800393a:	780c      	ldrb	r4, [r1, #0]
 800393c:	f833 2024 	ldrh.w	r2, [r3, r4, lsl #2]
 8003940:	f022 02f0 	bic.w	r2, r2, #240	; 0xf0
 8003944:	0512      	lsls	r2, r2, #20
 8003946:	0d12      	lsrs	r2, r2, #20
 8003948:	f442 4240 	orr.w	r2, r2, #49152	; 0xc000
 800394c:	f042 0280 	orr.w	r2, r2, #128	; 0x80
 8003950:	f823 2024 	strh.w	r2, [r3, r4, lsl #2]
 8003954:	78ca      	ldrb	r2, [r1, #3]
 8003956:	780c      	ldrb	r4, [r1, #0]
 8003958:	2a01      	cmp	r2, #1
 800395a:	f833 5024 	ldrh.w	r5, [r3, r4, lsl #2]
 800395e:	4a0b      	ldr	r2, [pc, #44]	; (800398c <USB_ActivateEndpoint+0x2ac>)
 8003960:	ea02 0205 	and.w	r2, r2, r5
 8003964:	bf18      	it	ne
 8003966:	f082 0220 	eorne.w	r2, r2, #32
 800396a:	f442 4200 	orr.w	r2, r2, #32768	; 0x8000
 800396e:	f042 0280 	orr.w	r2, r2, #128	; 0x80
 8003972:	f823 2024 	strh.w	r2, [r3, r4, lsl #2]
 8003976:	7809      	ldrb	r1, [r1, #0]
 8003978:	f833 2021 	ldrh.w	r2, [r3, r1, lsl #2]
 800397c:	f022 02f0 	bic.w	r2, r2, #240	; 0xf0
 8003980:	0492      	lsls	r2, r2, #18
 8003982:	0c92      	lsrs	r2, r2, #18
 8003984:	e739      	b.n	80037fa <USB_ActivateEndpoint+0x11a>
 8003986:	bf00      	nop
 8003988:	ffff8f8f 	.word	0xffff8f8f
 800398c:	ffff8fbf 	.word	0xffff8fbf
 8003990:	ffff8000 	.word	0xffff8000

08003994 <USB_EPSetStall>:
 8003994:	784b      	ldrb	r3, [r1, #1]
 8003996:	780a      	ldrb	r2, [r1, #0]
 8003998:	b17b      	cbz	r3, 80039ba <USB_EPSetStall+0x26>
 800399a:	f830 3022 	ldrh.w	r3, [r0, r2, lsl #2]
 800399e:	f423 43e0 	bic.w	r3, r3, #28672	; 0x7000
 80039a2:	f023 0340 	bic.w	r3, r3, #64	; 0x40
 80039a6:	f083 0310 	eor.w	r3, r3, #16
 80039aa:	f443 4300 	orr.w	r3, r3, #32768	; 0x8000
 80039ae:	f043 0380 	orr.w	r3, r3, #128	; 0x80
 80039b2:	f820 3022 	strh.w	r3, [r0, r2, lsl #2]
 80039b6:	2000      	movs	r0, #0
 80039b8:	4770      	bx	lr
 80039ba:	f830 3022 	ldrh.w	r3, [r0, r2, lsl #2]
 80039be:	f423 4380 	bic.w	r3, r3, #16384	; 0x4000
 80039c2:	f023 0370 	bic.w	r3, r3, #112	; 0x70
 80039c6:	f483 5380 	eor.w	r3, r3, #4096	; 0x1000
 80039ca:	e7ee      	b.n	80039aa <USB_EPSetStall+0x16>

080039cc <USB_EPClearStall>:
 80039cc:	7b0b      	ldrb	r3, [r1, #12]
 80039ce:	bb23      	cbnz	r3, 8003a1a <USB_EPClearStall+0x4e>
 80039d0:	784b      	ldrb	r3, [r1, #1]
 80039d2:	780a      	ldrb	r2, [r1, #0]
 80039d4:	b31b      	cbz	r3, 8003a1e <USB_EPClearStall+0x52>
 80039d6:	f830 3022 	ldrh.w	r3, [r0, r2, lsl #2]
 80039da:	065b      	lsls	r3, r3, #25
 80039dc:	d50b      	bpl.n	80039f6 <USB_EPClearStall+0x2a>
 80039de:	f830 3022 	ldrh.w	r3, [r0, r2, lsl #2]
 80039e2:	f023 03f0 	bic.w	r3, r3, #240	; 0xf0
 80039e6:	051b      	lsls	r3, r3, #20
 80039e8:	0d1b      	lsrs	r3, r3, #20
 80039ea:	f443 4300 	orr.w	r3, r3, #32768	; 0x8000
 80039ee:	f043 03c0 	orr.w	r3, r3, #192	; 0xc0
 80039f2:	f820 3022 	strh.w	r3, [r0, r2, lsl #2]
 80039f6:	78cb      	ldrb	r3, [r1, #3]
 80039f8:	2b01      	cmp	r3, #1
 80039fa:	d00e      	beq.n	8003a1a <USB_EPClearStall+0x4e>
 80039fc:	780a      	ldrb	r2, [r1, #0]
 80039fe:	f830 3022 	ldrh.w	r3, [r0, r2, lsl #2]
 8003a02:	f423 43e0 	bic.w	r3, r3, #28672	; 0x7000
 8003a06:	f023 0340 	bic.w	r3, r3, #64	; 0x40
 8003a0a:	f083 0320 	eor.w	r3, r3, #32
 8003a0e:	f443 4300 	orr.w	r3, r3, #32768	; 0x8000
 8003a12:	f043 0380 	orr.w	r3, r3, #128	; 0x80
 8003a16:	f820 3022 	strh.w	r3, [r0, r2, lsl #2]
 8003a1a:	2000      	movs	r0, #0
 8003a1c:	4770      	bx	lr
 8003a1e:	f830 3022 	ldrh.w	r3, [r0, r2, lsl #2]
 8003a22:	045b      	lsls	r3, r3, #17
 8003a24:	d50b      	bpl.n	8003a3e <USB_EPClearStall+0x72>
 8003a26:	f830 3022 	ldrh.w	r3, [r0, r2, lsl #2]
 8003a2a:	f023 03f0 	bic.w	r3, r3, #240	; 0xf0
 8003a2e:	051b      	lsls	r3, r3, #20
 8003a30:	0d1b      	lsrs	r3, r3, #20
 8003a32:	f443 4340 	orr.w	r3, r3, #49152	; 0xc000
 8003a36:	f043 0380 	orr.w	r3, r3, #128	; 0x80
 8003a3a:	f820 3022 	strh.w	r3, [r0, r2, lsl #2]
 8003a3e:	780a      	ldrb	r2, [r1, #0]
 8003a40:	f830 3022 	ldrh.w	r3, [r0, r2, lsl #2]
 8003a44:	f423 4380 	bic.w	r3, r3, #16384	; 0x4000
 8003a48:	f023 0370 	bic.w	r3, r3, #112	; 0x70
 8003a4c:	f483 5340 	eor.w	r3, r3, #12288	; 0x3000
 8003a50:	e7dd      	b.n	8003a0e <USB_EPClearStall+0x42>

08003a52 <USB_SetDevAddress>:
 8003a52:	b911      	cbnz	r1, 8003a5a <USB_SetDevAddress+0x8>
 8003a54:	2380      	movs	r3, #128	; 0x80
 8003a56:	f8a0 304c 	strh.w	r3, [r0, #76]	; 0x4c
 8003a5a:	2000      	movs	r0, #0
 8003a5c:	4770      	bx	lr

08003a5e <USB_ReadInterrupts>:
 8003a5e:	f8b0 0044 	ldrh.w	r0, [r0, #68]	; 0x44
 8003a62:	4770      	bx	lr

08003a64 <USB_EP0_OutStart>:
 8003a64:	2000      	movs	r0, #0
 8003a66:	4770      	bx	lr

08003a68 <USB_WritePMA>:
 8003a68:	eb00 0242 	add.w	r2, r0, r2, lsl #1
 8003a6c:	3301      	adds	r3, #1
 8003a6e:	f502 6280 	add.w	r2, r2, #1024	; 0x400
 8003a72:	085b      	lsrs	r3, r3, #1
 8003a74:	eb02 0383 	add.w	r3, r2, r3, lsl #2
 8003a78:	429a      	cmp	r2, r3
 8003a7a:	d100      	bne.n	8003a7e <USB_WritePMA+0x16>
 8003a7c:	4770      	bx	lr
 8003a7e:	f831 0b02 	ldrh.w	r0, [r1], #2
 8003a82:	f822 0b04 	strh.w	r0, [r2], #4
 8003a86:	e7f7      	b.n	8003a78 <USB_WritePMA+0x10>

08003a88 <USB_EPStartXfer>:
 8003a88:	b570      	push	{r4, r5, r6, lr}
 8003a8a:	460d      	mov	r5, r1
 8003a8c:	7849      	ldrb	r1, [r1, #1]
 8003a8e:	4604      	mov	r4, r0
 8003a90:	2901      	cmp	r1, #1
 8003a92:	69aa      	ldr	r2, [r5, #24]
 8003a94:	692b      	ldr	r3, [r5, #16]
 8003a96:	7b28      	ldrb	r0, [r5, #12]
 8003a98:	d15d      	bne.n	8003b56 <USB_EPStartXfer+0xce>
 8003a9a:	429a      	cmp	r2, r3
 8003a9c:	bf9d      	ittte	ls
 8003a9e:	2300      	movls	r3, #0
 8003aa0:	61ab      	strls	r3, [r5, #24]
 8003aa2:	4613      	movls	r3, r2
 8003aa4:	1ad2      	subhi	r2, r2, r3
 8003aa6:	bf88      	it	hi
 8003aa8:	61aa      	strhi	r2, [r5, #24]
 8003aaa:	6969      	ldr	r1, [r5, #20]
 8003aac:	b29e      	uxth	r6, r3
 8003aae:	b9e8      	cbnz	r0, 8003aec <USB_EPStartXfer+0x64>
 8003ab0:	4633      	mov	r3, r6
 8003ab2:	88ea      	ldrh	r2, [r5, #6]
 8003ab4:	4620      	mov	r0, r4
 8003ab6:	f7ff ffd7 	bl	8003a68 <USB_WritePMA>
 8003aba:	f8b4 1050 	ldrh.w	r1, [r4, #80]	; 0x50
 8003abe:	782a      	ldrb	r2, [r5, #0]
 8003ac0:	f204 4304 	addw	r3, r4, #1028	; 0x404
 8003ac4:	0112      	lsls	r2, r2, #4
 8003ac6:	440b      	add	r3, r1
 8003ac8:	52d6      	strh	r6, [r2, r3]
 8003aca:	782a      	ldrb	r2, [r5, #0]
 8003acc:	f834 3022 	ldrh.w	r3, [r4, r2, lsl #2]
 8003ad0:	f423 43e0 	bic.w	r3, r3, #28672	; 0x7000
 8003ad4:	f023 0340 	bic.w	r3, r3, #64	; 0x40
 8003ad8:	f083 0330 	eor.w	r3, r3, #48	; 0x30
 8003adc:	f443 4300 	orr.w	r3, r3, #32768	; 0x8000
 8003ae0:	f043 0380 	orr.w	r3, r3, #128	; 0x80
 8003ae4:	f824 3022 	strh.w	r3, [r4, r2, lsl #2]
 8003ae8:	2000      	movs	r0, #0
 8003aea:	bd70      	pop	{r4, r5, r6, pc}
 8003aec:	782b      	ldrb	r3, [r5, #0]
 8003aee:	f834 2023 	ldrh.w	r2, [r4, r3, lsl #2]
 8003af2:	f8b4 0050 	ldrh.w	r0, [r4, #80]	; 0x50
 8003af6:	0652      	lsls	r2, r2, #25
 8003af8:	bf4b      	itete	mi
 8003afa:	f204 420c 	addwmi	r2, r4, #1036	; 0x40c
 8003afe:	f204 4204 	addwpl	r2, r4, #1028	; 0x404
 8003b02:	1812      	addmi	r2, r2, r0
 8003b04:	1812      	addpl	r2, r2, r0
 8003b06:	ea4f 1303 	mov.w	r3, r3, lsl #4
 8003b0a:	bf4b      	itete	mi
 8003b0c:	52d6      	strhmi	r6, [r2, r3]
 8003b0e:	52d6      	strhpl	r6, [r2, r3]
 8003b10:	896a      	ldrhmi	r2, [r5, #10]
 8003b12:	892a      	ldrhpl	r2, [r5, #8]
 8003b14:	4633      	mov	r3, r6
 8003b16:	4620      	mov	r0, r4
 8003b18:	f7ff ffa6 	bl	8003a68 <USB_WritePMA>
 8003b1c:	786b      	ldrb	r3, [r5, #1]
 8003b1e:	782a      	ldrb	r2, [r5, #0]
 8003b20:	b963      	cbnz	r3, 8003b3c <USB_EPStartXfer+0xb4>
 8003b22:	f834 3022 	ldrh.w	r3, [r4, r2, lsl #2]
 8003b26:	f023 03f0 	bic.w	r3, r3, #240	; 0xf0
 8003b2a:	051b      	lsls	r3, r3, #20
 8003b2c:	0d1b      	lsrs	r3, r3, #20
 8003b2e:	f443 4300 	orr.w	r3, r3, #32768	; 0x8000
 8003b32:	f043 03c0 	orr.w	r3, r3, #192	; 0xc0
 8003b36:	f824 3022 	strh.w	r3, [r4, r2, lsl #2]
 8003b3a:	e7c6      	b.n	8003aca <USB_EPStartXfer+0x42>
 8003b3c:	2b01      	cmp	r3, #1
 8003b3e:	d1c4      	bne.n	8003aca <USB_EPStartXfer+0x42>
 8003b40:	f834 3022 	ldrh.w	r3, [r4, r2, lsl #2]
 8003b44:	f023 03f0 	bic.w	r3, r3, #240	; 0xf0
 8003b48:	051b      	lsls	r3, r3, #20
 8003b4a:	0d1b      	lsrs	r3, r3, #20
 8003b4c:	f443 4340 	orr.w	r3, r3, #49152	; 0xc000
 8003b50:	f043 0380 	orr.w	r3, r3, #128	; 0x80
 8003b54:	e7ef      	b.n	8003b36 <USB_EPStartXfer+0xae>
 8003b56:	429a      	cmp	r2, r3
 8003b58:	bf93      	iteet	ls
 8003b5a:	2300      	movls	r3, #0
 8003b5c:	1ad2      	subhi	r2, r2, r3
 8003b5e:	61aa      	strhi	r2, [r5, #24]
 8003b60:	61ab      	strls	r3, [r5, #24]
 8003b62:	bf98      	it	ls
 8003b64:	4613      	movls	r3, r2
 8003b66:	782a      	ldrb	r2, [r5, #0]
 8003b68:	b990      	cbnz	r0, 8003b90 <USB_EPStartXfer+0x108>
 8003b6a:	f8b4 1050 	ldrh.w	r1, [r4, #80]	; 0x50
 8003b6e:	f204 400c 	addw	r0, r4, #1036	; 0x40c
 8003b72:	4401      	add	r1, r0
 8003b74:	0112      	lsls	r2, r2, #4
 8003b76:	2b00      	cmp	r3, #0
 8003b78:	d13b      	bne.n	8003bf2 <USB_EPStartXfer+0x16a>
 8003b7a:	5a8b      	ldrh	r3, [r1, r2]
 8003b7c:	f423 43f8 	bic.w	r3, r3, #31744	; 0x7c00
 8003b80:	041b      	lsls	r3, r3, #16
 8003b82:	0c1b      	lsrs	r3, r3, #16
 8003b84:	528b      	strh	r3, [r1, r2]
 8003b86:	5a8b      	ldrh	r3, [r1, r2]
 8003b88:	f443 4300 	orr.w	r3, r3, #32768	; 0x8000
 8003b8c:	528b      	strh	r3, [r1, r2]
 8003b8e:	e039      	b.n	8003c04 <USB_EPStartXfer+0x17c>
 8003b90:	b981      	cbnz	r1, 8003bb4 <USB_EPStartXfer+0x12c>
 8003b92:	f8b4 1050 	ldrh.w	r1, [r4, #80]	; 0x50
 8003b96:	f204 4004 	addw	r0, r4, #1028	; 0x404
 8003b9a:	4401      	add	r1, r0
 8003b9c:	0112      	lsls	r2, r2, #4
 8003b9e:	b9b3      	cbnz	r3, 8003bce <USB_EPStartXfer+0x146>
 8003ba0:	5a88      	ldrh	r0, [r1, r2]
 8003ba2:	f420 40f8 	bic.w	r0, r0, #31744	; 0x7c00
 8003ba6:	0400      	lsls	r0, r0, #16
 8003ba8:	0c00      	lsrs	r0, r0, #16
 8003baa:	5288      	strh	r0, [r1, r2]
 8003bac:	5a88      	ldrh	r0, [r1, r2]
 8003bae:	f440 4000 	orr.w	r0, r0, #32768	; 0x8000
 8003bb2:	5288      	strh	r0, [r1, r2]
 8003bb4:	7869      	ldrb	r1, [r5, #1]
 8003bb6:	782a      	ldrb	r2, [r5, #0]
 8003bb8:	2900      	cmp	r1, #0
 8003bba:	d0d6      	beq.n	8003b6a <USB_EPStartXfer+0xe2>
 8003bbc:	2901      	cmp	r1, #1
 8003bbe:	d121      	bne.n	8003c04 <USB_EPStartXfer+0x17c>
 8003bc0:	f8b4 0050 	ldrh.w	r0, [r4, #80]	; 0x50
 8003bc4:	f204 410c 	addw	r1, r4, #1036	; 0x40c
 8003bc8:	4401      	add	r1, r0
 8003bca:	0112      	lsls	r2, r2, #4
 8003bcc:	e02c      	b.n	8003c28 <USB_EPStartXfer+0x1a0>
 8003bce:	2b3e      	cmp	r3, #62	; 0x3e
 8003bd0:	d806      	bhi.n	8003be0 <USB_EPStartXfer+0x158>
 8003bd2:	0858      	lsrs	r0, r3, #1
 8003bd4:	07de      	lsls	r6, r3, #31
 8003bd6:	bf48      	it	mi
 8003bd8:	3001      	addmi	r0, #1
 8003bda:	0280      	lsls	r0, r0, #10
 8003bdc:	b280      	uxth	r0, r0
 8003bde:	e7e8      	b.n	8003bb2 <USB_EPStartXfer+0x12a>
 8003be0:	095e      	lsrs	r6, r3, #5
 8003be2:	06d8      	lsls	r0, r3, #27
 8003be4:	4811      	ldr	r0, [pc, #68]	; (8003c2c <USB_EPStartXfer+0x1a4>)
 8003be6:	bf08      	it	eq
 8003be8:	f106 36ff 	addeq.w	r6, r6, #4294967295
 8003bec:	ea40 2086 	orr.w	r0, r0, r6, lsl #10
 8003bf0:	e7f4      	b.n	8003bdc <USB_EPStartXfer+0x154>
 8003bf2:	2b3e      	cmp	r3, #62	; 0x3e
 8003bf4:	d810      	bhi.n	8003c18 <USB_EPStartXfer+0x190>
 8003bf6:	0858      	lsrs	r0, r3, #1
 8003bf8:	07de      	lsls	r6, r3, #31
 8003bfa:	bf48      	it	mi
 8003bfc:	3001      	addmi	r0, #1
 8003bfe:	0280      	lsls	r0, r0, #10
 8003c00:	b280      	uxth	r0, r0
 8003c02:	5288      	strh	r0, [r1, r2]
 8003c04:	782a      	ldrb	r2, [r5, #0]
 8003c06:	f834 3022 	ldrh.w	r3, [r4, r2, lsl #2]
 8003c0a:	f423 4380 	bic.w	r3, r3, #16384	; 0x4000
 8003c0e:	f023 0370 	bic.w	r3, r3, #112	; 0x70
 8003c12:	f483 5340 	eor.w	r3, r3, #12288	; 0x3000
 8003c16:	e761      	b.n	8003adc <USB_EPStartXfer+0x54>
 8003c18:	0958      	lsrs	r0, r3, #5
 8003c1a:	06db      	lsls	r3, r3, #27
 8003c1c:	4b03      	ldr	r3, [pc, #12]	; (8003c2c <USB_EPStartXfer+0x1a4>)
 8003c1e:	bf08      	it	eq
 8003c20:	f100 30ff 	addeq.w	r0, r0, #4294967295
 8003c24:	ea43 2380 	orr.w	r3, r3, r0, lsl #10
 8003c28:	b29b      	uxth	r3, r3
 8003c2a:	e7af      	b.n	8003b8c <USB_EPStartXfer+0x104>
 8003c2c:	ffff8000 	.word	0xffff8000

08003c30 <USB_ReadPMA>:
 8003c30:	eb00 0242 	add.w	r2, r0, r2, lsl #1
 8003c34:	b5f0      	push	{r4, r5, r6, r7, lr}
 8003c36:	f502 6280 	add.w	r2, r2, #1024	; 0x400
 8003c3a:	085d      	lsrs	r5, r3, #1
 8003c3c:	4608      	mov	r0, r1
 8003c3e:	4617      	mov	r7, r2
 8003c40:	462e      	mov	r6, r5
 8003c42:	3002      	adds	r0, #2
 8003c44:	b936      	cbnz	r6, 8003c54 <USB_ReadPMA+0x24>
 8003c46:	07db      	lsls	r3, r3, #31
 8003c48:	bf44      	itt	mi
 8003c4a:	f832 3025 	ldrhmi.w	r3, [r2, r5, lsl #2]
 8003c4e:	f801 3015 	strbmi.w	r3, [r1, r5, lsl #1]
 8003c52:	bdf0      	pop	{r4, r5, r6, r7, pc}
 8003c54:	f837 4b04 	ldrh.w	r4, [r7], #4
 8003c58:	3e01      	subs	r6, #1
 8003c5a:	b2a4      	uxth	r4, r4
 8003c5c:	f800 4c02 	strb.w	r4, [r0, #-2]
 8003c60:	0a24      	lsrs	r4, r4, #8
 8003c62:	f800 4c01 	strb.w	r4, [r0, #-1]
 8003c66:	e7ec      	b.n	8003c42 <USB_ReadPMA+0x12>

08003c68 <USBD_SetClassConfig>:
* @param  cfgidx: configuration index
* @retval status
*/

USBD_StatusTypeDef USBD_SetClassConfig(USBD_HandleTypeDef  *pdev, uint8_t cfgidx)
{
 8003c68:	b508      	push	{r3, lr}
  USBD_StatusTypeDef ret = USBD_FAIL;

  if (pdev->pClass != NULL)
 8003c6a:	f8d0 32b4 	ldr.w	r3, [r0, #692]	; 0x2b4
 8003c6e:	b90b      	cbnz	r3, 8003c74 <USBD_SetClassConfig+0xc>
  USBD_StatusTypeDef ret = USBD_FAIL;
 8003c70:	2002      	movs	r0, #2
      ret = USBD_OK;
    }
  }

  return ret;
}
 8003c72:	bd08      	pop	{r3, pc}
    if (pdev->pClass->Init(pdev, cfgidx) == 0U)
 8003c74:	681b      	ldr	r3, [r3, #0]
 8003c76:	4798      	blx	r3
 8003c78:	2800      	cmp	r0, #0
 8003c7a:	d0fa      	beq.n	8003c72 <USBD_SetClassConfig+0xa>
 8003c7c:	e7f8      	b.n	8003c70 <USBD_SetClassConfig+0x8>

08003c7e <USBD_ClrClassConfig>:
* @param  pdev: device instance
* @param  cfgidx: configuration index
* @retval status: USBD_StatusTypeDef
*/
USBD_StatusTypeDef USBD_ClrClassConfig(USBD_HandleTypeDef  *pdev, uint8_t cfgidx)
{
 8003c7e:	b508      	push	{r3, lr}
  /* Clear configuration  and De-initialize the Class process*/
  pdev->pClass->DeInit(pdev, cfgidx);
 8003c80:	f8d0 32b4 	ldr.w	r3, [r0, #692]	; 0x2b4
 8003c84:	685b      	ldr	r3, [r3, #4]
 8003c86:	4798      	blx	r3

  return USBD_OK;
}
 8003c88:	2000      	movs	r0, #0
 8003c8a:	bd08      	pop	{r3, pc}

08003c8c <USBD_LL_SetupStage>:
*         Handle the setup stage
* @param  pdev: device instance
* @retval status
*/
USBD_StatusTypeDef USBD_LL_SetupStage(USBD_HandleTypeDef *pdev, uint8_t *psetup)
{
 8003c8c:	b538      	push	{r3, r4, r5, lr}
  USBD_ParseSetupRequest(&pdev->request, psetup);
 8003c8e:	f500 752a 	add.w	r5, r0, #680	; 0x2a8
{
 8003c92:	4604      	mov	r4, r0
  USBD_ParseSetupRequest(&pdev->request, psetup);
 8003c94:	4628      	mov	r0, r5
 8003c96:	f000 fae1 	bl	800425c <USBD_ParseSetupRequest>

  pdev->ep0_state = USBD_EP0_SETUP;
 8003c9a:	2301      	movs	r3, #1

  pdev->ep0_data_len = pdev->request.wLength;

  switch (pdev->request.bmRequest & 0x1FU)
 8003c9c:	f894 12a8 	ldrb.w	r1, [r4, #680]	; 0x2a8
  pdev->ep0_state = USBD_EP0_SETUP;
 8003ca0:	f8c4 3294 	str.w	r3, [r4, #660]	; 0x294
  pdev->ep0_data_len = pdev->request.wLength;
 8003ca4:	f8b4 32ae 	ldrh.w	r3, [r4, #686]	; 0x2ae
 8003ca8:	f8c4 3298 	str.w	r3, [r4, #664]	; 0x298
  switch (pdev->request.bmRequest & 0x1FU)
 8003cac:	f001 031f 	and.w	r3, r1, #31
 8003cb0:	2b01      	cmp	r3, #1
 8003cb2:	d00e      	beq.n	8003cd2 <USBD_LL_SetupStage+0x46>
 8003cb4:	d307      	bcc.n	8003cc6 <USBD_LL_SetupStage+0x3a>
 8003cb6:	2b02      	cmp	r3, #2
 8003cb8:	d010      	beq.n	8003cdc <USBD_LL_SetupStage+0x50>
    case USB_REQ_RECIPIENT_ENDPOINT:
      USBD_StdEPReq(pdev, &pdev->request);
      break;

    default:
      USBD_LL_StallEP(pdev, (pdev->request.bmRequest & 0x80U));
 8003cba:	f001 0180 	and.w	r1, r1, #128	; 0x80
 8003cbe:	4620      	mov	r0, r4
 8003cc0:	f002 ff28 	bl	8006b14 <USBD_LL_StallEP>
      break;
 8003cc4:	e003      	b.n	8003cce <USBD_LL_SetupStage+0x42>
      USBD_StdDevReq(pdev, &pdev->request);
 8003cc6:	4629      	mov	r1, r5
 8003cc8:	4620      	mov	r0, r4
 8003cca:	f000 f8f5 	bl	8003eb8 <USBD_StdDevReq>
  }

  return USBD_OK;
}
 8003cce:	2000      	movs	r0, #0
 8003cd0:	bd38      	pop	{r3, r4, r5, pc}
      USBD_StdItfReq(pdev, &pdev->request);
 8003cd2:	4629      	mov	r1, r5
 8003cd4:	4620      	mov	r0, r4
 8003cd6:	f000 fa13 	bl	8004100 <USBD_StdItfReq>
      break;
 8003cda:	e7f8      	b.n	8003cce <USBD_LL_SetupStage+0x42>
      USBD_StdEPReq(pdev, &pdev->request);
 8003cdc:	4629      	mov	r1, r5
 8003cde:	4620      	mov	r0, r4
 8003ce0:	f000 fa33 	bl	800414a <USBD_StdEPReq>
      break;
 8003ce4:	e7f3      	b.n	8003cce <USBD_LL_SetupStage+0x42>

08003ce6 <USBD_LL_DataOutStage>:
* @param  epnum: endpoint index
* @retval status
*/
USBD_StatusTypeDef USBD_LL_DataOutStage(USBD_HandleTypeDef *pdev,
                                        uint8_t epnum, uint8_t *pdata)
{
 8003ce6:	b570      	push	{r4, r5, r6, lr}
 8003ce8:	4605      	mov	r5, r0
 8003cea:	4616      	mov	r6, r2
  USBD_EndpointTypeDef *pep;

  if (epnum == 0U)
 8003cec:	bb49      	cbnz	r1, 8003d42 <USBD_LL_DataOutStage+0x5c>
  {
    pep = &pdev->ep_out[0];

    if (pdev->ep0_state == USBD_EP0_DATA_OUT)
 8003cee:	f8d0 3294 	ldr.w	r3, [r0, #660]	; 0x294
 8003cf2:	2b03      	cmp	r3, #3
 8003cf4:	d11e      	bne.n	8003d34 <USBD_LL_DataOutStage+0x4e>
    {
      if (pep->rem_length > pep->maxpacket)
 8003cf6:	f8d0 3160 	ldr.w	r3, [r0, #352]	; 0x160
 8003cfa:	f8d0 2164 	ldr.w	r2, [r0, #356]	; 0x164
 8003cfe:	4293      	cmp	r3, r2
 8003d00:	d90b      	bls.n	8003d1a <USBD_LL_DataOutStage+0x34>
      {
        pep->rem_length -= pep->maxpacket;
 8003d02:	1a9b      	subs	r3, r3, r2

        USBD_CtlContinueRx(pdev, pdata,
 8003d04:	429a      	cmp	r2, r3
        pep->rem_length -= pep->maxpacket;
 8003d06:	f8c0 3160 	str.w	r3, [r0, #352]	; 0x160
        USBD_CtlContinueRx(pdev, pdata,
 8003d0a:	bf8c      	ite	hi
 8003d0c:	b29a      	uxthhi	r2, r3
 8003d0e:	b292      	uxthls	r2, r2
 8003d10:	4631      	mov	r1, r6
 8003d12:	f000 facc 	bl	80042ae <USBD_CtlContinueRx>
  {
    /* should never be in this condition */
    return USBD_FAIL;
  }

  return USBD_OK;
 8003d16:	2000      	movs	r0, #0
}
 8003d18:	bd70      	pop	{r4, r5, r6, pc}
        if ((pdev->pClass->EP0_RxReady != NULL) &&
 8003d1a:	f8d0 32b4 	ldr.w	r3, [r0, #692]	; 0x2b4
 8003d1e:	691b      	ldr	r3, [r3, #16]
 8003d20:	b123      	cbz	r3, 8003d2c <USBD_LL_DataOutStage+0x46>
 8003d22:	f890 229c 	ldrb.w	r2, [r0, #668]	; 0x29c
 8003d26:	2a03      	cmp	r2, #3
 8003d28:	d100      	bne.n	8003d2c <USBD_LL_DataOutStage+0x46>
          pdev->pClass->EP0_RxReady(pdev);
 8003d2a:	4798      	blx	r3
        USBD_CtlSendStatus(pdev);
 8003d2c:	4628      	mov	r0, r5
 8003d2e:	f000 fac6 	bl	80042be <USBD_CtlSendStatus>
 8003d32:	e7f0      	b.n	8003d16 <USBD_LL_DataOutStage+0x30>
      if (pdev->ep0_state == USBD_EP0_STATUS_OUT)
 8003d34:	2b05      	cmp	r3, #5
 8003d36:	d1ee      	bne.n	8003d16 <USBD_LL_DataOutStage+0x30>
        pdev->ep0_state = USBD_EP0_IDLE;
 8003d38:	f8c5 1294 	str.w	r1, [r5, #660]	; 0x294
        USBD_LL_StallEP(pdev, 0U);
 8003d3c:	f002 feea 	bl	8006b14 <USBD_LL_StallEP>
 8003d40:	e7e9      	b.n	8003d16 <USBD_LL_DataOutStage+0x30>
  else if ((pdev->pClass->DataOut != NULL) &&
 8003d42:	f8d0 32b4 	ldr.w	r3, [r0, #692]	; 0x2b4
 8003d46:	699b      	ldr	r3, [r3, #24]
 8003d48:	b12b      	cbz	r3, 8003d56 <USBD_LL_DataOutStage+0x70>
 8003d4a:	f890 229c 	ldrb.w	r2, [r0, #668]	; 0x29c
 8003d4e:	2a03      	cmp	r2, #3
 8003d50:	d101      	bne.n	8003d56 <USBD_LL_DataOutStage+0x70>
    pdev->pClass->DataOut(pdev, epnum);
 8003d52:	4798      	blx	r3
 8003d54:	e7df      	b.n	8003d16 <USBD_LL_DataOutStage+0x30>
    return USBD_FAIL;
 8003d56:	2002      	movs	r0, #2
 8003d58:	e7de      	b.n	8003d18 <USBD_LL_DataOutStage+0x32>

08003d5a <USBD_LL_DataInStage>:
* @param  epnum: endpoint index
* @retval status
*/
USBD_StatusTypeDef USBD_LL_DataInStage(USBD_HandleTypeDef *pdev,
                                       uint8_t epnum, uint8_t *pdata)
{
 8003d5a:	b570      	push	{r4, r5, r6, lr}
 8003d5c:	4613      	mov	r3, r2
 8003d5e:	4604      	mov	r4, r0
  USBD_EndpointTypeDef *pep;

  if (epnum == 0U)
 8003d60:	460e      	mov	r6, r1
 8003d62:	2900      	cmp	r1, #0
 8003d64:	d147      	bne.n	8003df6 <USBD_LL_DataInStage+0x9c>
  {
    pep = &pdev->ep_in[0];

    if (pdev->ep0_state == USBD_EP0_DATA_IN)
 8003d66:	f8d0 2294 	ldr.w	r2, [r0, #660]	; 0x294
 8003d6a:	2a02      	cmp	r2, #2
 8003d6c:	d13c      	bne.n	8003de8 <USBD_LL_DataInStage+0x8e>
    {
      if (pep->rem_length > pep->maxpacket)
 8003d6e:	e9d0 5208 	ldrd	r5, r2, [r0, #32]
 8003d72:	4295      	cmp	r5, r2
 8003d74:	d913      	bls.n	8003d9e <USBD_LL_DataInStage+0x44>
      {
        pep->rem_length -= pep->maxpacket;
 8003d76:	1aaa      	subs	r2, r5, r2
 8003d78:	6202      	str	r2, [r0, #32]

        USBD_CtlContinueSendData(pdev, pdata, (uint16_t)pep->rem_length);
 8003d7a:	4619      	mov	r1, r3
 8003d7c:	b292      	uxth	r2, r2
 8003d7e:	f000 fa8e 	bl	800429e <USBD_CtlContinueSendData>

        /* Prepare endpoint for premature end of transfer */
        USBD_LL_PrepareReceive(pdev, 0U, NULL, 0U);
 8003d82:	4633      	mov	r3, r6
        {
          USBD_CtlContinueSendData(pdev, NULL, 0U);
          pdev->ep0_data_len = 0U;

          /* Prepare endpoint for premature end of transfer */
          USBD_LL_PrepareReceive(pdev, 0U, NULL, 0U);
 8003d84:	461a      	mov	r2, r3
 8003d86:	4619      	mov	r1, r3
 8003d88:	4620      	mov	r0, r4
 8003d8a:	f002 ff0b 	bl	8006ba4 <USBD_LL_PrepareReceive>
      {
        USBD_LL_StallEP(pdev, 0x80U);
      }
    }

    if (pdev->dev_test_mode == 1U)
 8003d8e:	f894 32a0 	ldrb.w	r3, [r4, #672]	; 0x2a0
 8003d92:	2000      	movs	r0, #0
 8003d94:	2b01      	cmp	r3, #1
 8003d96:	d101      	bne.n	8003d9c <USBD_LL_DataInStage+0x42>
    {
      USBD_RunTestMode(pdev);
      pdev->dev_test_mode = 0U;
 8003d98:	f884 02a0 	strb.w	r0, [r4, #672]	; 0x2a0
    /* should never be in this condition */
    return USBD_FAIL;
  }

  return USBD_OK;
}
 8003d9c:	bd70      	pop	{r4, r5, r6, pc}
        if ((pep->total_length % pep->maxpacket == 0U) &&
 8003d9e:	69c3      	ldr	r3, [r0, #28]
 8003da0:	fbb3 f5f2 	udiv	r5, r3, r2
 8003da4:	fb02 3515 	mls	r5, r2, r5, r3
 8003da8:	b965      	cbnz	r5, 8003dc4 <USBD_LL_DataInStage+0x6a>
 8003daa:	429a      	cmp	r2, r3
 8003dac:	d80a      	bhi.n	8003dc4 <USBD_LL_DataInStage+0x6a>
            (pep->total_length >= pep->maxpacket) &&
 8003dae:	f8d0 2298 	ldr.w	r2, [r0, #664]	; 0x298
 8003db2:	4293      	cmp	r3, r2
 8003db4:	d206      	bcs.n	8003dc4 <USBD_LL_DataInStage+0x6a>
          USBD_CtlContinueSendData(pdev, NULL, 0U);
 8003db6:	462a      	mov	r2, r5
 8003db8:	f000 fa71 	bl	800429e <USBD_CtlContinueSendData>
          pdev->ep0_data_len = 0U;
 8003dbc:	f8c4 5298 	str.w	r5, [r4, #664]	; 0x298
          USBD_LL_PrepareReceive(pdev, 0U, NULL, 0U);
 8003dc0:	462b      	mov	r3, r5
 8003dc2:	e7df      	b.n	8003d84 <USBD_LL_DataInStage+0x2a>
          if ((pdev->pClass->EP0_TxSent != NULL) &&
 8003dc4:	f8d4 32b4 	ldr.w	r3, [r4, #692]	; 0x2b4
 8003dc8:	68db      	ldr	r3, [r3, #12]
 8003dca:	b12b      	cbz	r3, 8003dd8 <USBD_LL_DataInStage+0x7e>
 8003dcc:	f894 229c 	ldrb.w	r2, [r4, #668]	; 0x29c
 8003dd0:	2a03      	cmp	r2, #3
 8003dd2:	d101      	bne.n	8003dd8 <USBD_LL_DataInStage+0x7e>
            pdev->pClass->EP0_TxSent(pdev);
 8003dd4:	4620      	mov	r0, r4
 8003dd6:	4798      	blx	r3
          USBD_LL_StallEP(pdev, 0x80U);
 8003dd8:	2180      	movs	r1, #128	; 0x80
 8003dda:	4620      	mov	r0, r4
 8003ddc:	f002 fe9a 	bl	8006b14 <USBD_LL_StallEP>
          USBD_CtlReceiveStatus(pdev);
 8003de0:	4620      	mov	r0, r4
 8003de2:	f000 fa77 	bl	80042d4 <USBD_CtlReceiveStatus>
 8003de6:	e7d2      	b.n	8003d8e <USBD_LL_DataInStage+0x34>
      if ((pdev->ep0_state == USBD_EP0_STATUS_IN) ||
 8003de8:	f032 0304 	bics.w	r3, r2, #4
 8003dec:	d1cf      	bne.n	8003d8e <USBD_LL_DataInStage+0x34>
        USBD_LL_StallEP(pdev, 0x80U);
 8003dee:	2180      	movs	r1, #128	; 0x80
 8003df0:	f002 fe90 	bl	8006b14 <USBD_LL_StallEP>
 8003df4:	e7cb      	b.n	8003d8e <USBD_LL_DataInStage+0x34>
  else if ((pdev->pClass->DataIn != NULL) &&
 8003df6:	f8d0 32b4 	ldr.w	r3, [r0, #692]	; 0x2b4
 8003dfa:	695b      	ldr	r3, [r3, #20]
 8003dfc:	b133      	cbz	r3, 8003e0c <USBD_LL_DataInStage+0xb2>
 8003dfe:	f890 229c 	ldrb.w	r2, [r0, #668]	; 0x29c
 8003e02:	2a03      	cmp	r2, #3
 8003e04:	d102      	bne.n	8003e0c <USBD_LL_DataInStage+0xb2>
    pdev->pClass->DataIn(pdev, epnum);
 8003e06:	4798      	blx	r3
  return USBD_OK;
 8003e08:	2000      	movs	r0, #0
    pdev->pClass->DataIn(pdev, epnum);
 8003e0a:	e7c7      	b.n	8003d9c <USBD_LL_DataInStage+0x42>
    return USBD_FAIL;
 8003e0c:	2002      	movs	r0, #2
 8003e0e:	e7c5      	b.n	8003d9c <USBD_LL_DataInStage+0x42>

08003e10 <USBD_LL_Reset>:
*/

USBD_StatusTypeDef USBD_LL_Reset(USBD_HandleTypeDef *pdev)
{
  /* Open EP0 OUT */
  USBD_LL_OpenEP(pdev, 0x00U, USBD_EP_TYPE_CTRL, USB_MAX_EP0_SIZE);
 8003e10:	2200      	movs	r2, #0
{
 8003e12:	b570      	push	{r4, r5, r6, lr}
 8003e14:	4604      	mov	r4, r0
  pdev->ep_out[0x00U & 0xFU].is_used = 1U;
 8003e16:	2501      	movs	r5, #1

  pdev->ep_out[0].maxpacket = USB_MAX_EP0_SIZE;
 8003e18:	2640      	movs	r6, #64	; 0x40
  USBD_LL_OpenEP(pdev, 0x00U, USBD_EP_TYPE_CTRL, USB_MAX_EP0_SIZE);
 8003e1a:	4611      	mov	r1, r2
 8003e1c:	2340      	movs	r3, #64	; 0x40
 8003e1e:	f002 fe69 	bl	8006af4 <USBD_LL_OpenEP>

  /* Open EP0 IN */
  USBD_LL_OpenEP(pdev, 0x80U, USBD_EP_TYPE_CTRL, USB_MAX_EP0_SIZE);
 8003e22:	4633      	mov	r3, r6
 8003e24:	2180      	movs	r1, #128	; 0x80
  pdev->ep_out[0x00U & 0xFU].is_used = 1U;
 8003e26:	f8c4 5158 	str.w	r5, [r4, #344]	; 0x158
  pdev->ep_out[0].maxpacket = USB_MAX_EP0_SIZE;
 8003e2a:	f8c4 6164 	str.w	r6, [r4, #356]	; 0x164
  USBD_LL_OpenEP(pdev, 0x80U, USBD_EP_TYPE_CTRL, USB_MAX_EP0_SIZE);
 8003e2e:	2200      	movs	r2, #0
 8003e30:	4620      	mov	r0, r4
 8003e32:	f002 fe5f 	bl	8006af4 <USBD_LL_OpenEP>

  pdev->ep_in[0].maxpacket = USB_MAX_EP0_SIZE;

  /* Upon Reset call user call back */
  pdev->dev_state = USBD_STATE_DEFAULT;
  pdev->ep0_state = USBD_EP0_IDLE;
 8003e36:	2100      	movs	r1, #0
  pdev->dev_config = 0U;
  pdev->dev_remote_wakeup = 0U;

  if (pdev->pClassData)
 8003e38:	f8d4 32b8 	ldr.w	r3, [r4, #696]	; 0x2b8
  pdev->ep_in[0x80U & 0xFU].is_used = 1U;
 8003e3c:	61a5      	str	r5, [r4, #24]
  pdev->ep_in[0].maxpacket = USB_MAX_EP0_SIZE;
 8003e3e:	6266      	str	r6, [r4, #36]	; 0x24
  pdev->dev_state = USBD_STATE_DEFAULT;
 8003e40:	f884 529c 	strb.w	r5, [r4, #668]	; 0x29c
  pdev->ep0_state = USBD_EP0_IDLE;
 8003e44:	f8c4 1294 	str.w	r1, [r4, #660]	; 0x294
  pdev->dev_config = 0U;
 8003e48:	6061      	str	r1, [r4, #4]
  pdev->dev_remote_wakeup = 0U;
 8003e4a:	f8c4 12a4 	str.w	r1, [r4, #676]	; 0x2a4
  if (pdev->pClassData)
 8003e4e:	b123      	cbz	r3, 8003e5a <USBD_LL_Reset+0x4a>
  {
    pdev->pClass->DeInit(pdev, (uint8_t)pdev->dev_config);
 8003e50:	f8d4 32b4 	ldr.w	r3, [r4, #692]	; 0x2b4
 8003e54:	4620      	mov	r0, r4
 8003e56:	685b      	ldr	r3, [r3, #4]
 8003e58:	4798      	blx	r3
  }

  return USBD_OK;
}
 8003e5a:	2000      	movs	r0, #0
 8003e5c:	bd70      	pop	{r4, r5, r6, pc}

08003e5e <USBD_LL_SetSpeed>:
* @retval status
*/
USBD_StatusTypeDef USBD_LL_SetSpeed(USBD_HandleTypeDef *pdev,
                                    USBD_SpeedTypeDef speed)
{
  pdev->dev_speed = speed;
 8003e5e:	7401      	strb	r1, [r0, #16]

  return USBD_OK;
}
 8003e60:	2000      	movs	r0, #0
 8003e62:	4770      	bx	lr

08003e64 <USBD_LL_Suspend>:
* @retval status
*/

USBD_StatusTypeDef USBD_LL_Suspend(USBD_HandleTypeDef *pdev)
{
  pdev->dev_old_state =  pdev->dev_state;
 8003e64:	f890 329c 	ldrb.w	r3, [r0, #668]	; 0x29c
 8003e68:	f880 329d 	strb.w	r3, [r0, #669]	; 0x29d
  pdev->dev_state  = USBD_STATE_SUSPENDED;
 8003e6c:	2304      	movs	r3, #4
 8003e6e:	f880 329c 	strb.w	r3, [r0, #668]	; 0x29c

  return USBD_OK;
}
 8003e72:	2000      	movs	r0, #0
 8003e74:	4770      	bx	lr

08003e76 <USBD_LL_Resume>:
* @retval status
*/

USBD_StatusTypeDef USBD_LL_Resume(USBD_HandleTypeDef *pdev)
{
  if (pdev->dev_state == USBD_STATE_SUSPENDED)
 8003e76:	f890 329c 	ldrb.w	r3, [r0, #668]	; 0x29c
 8003e7a:	2b04      	cmp	r3, #4
  {
    pdev->dev_state = pdev->dev_old_state;
 8003e7c:	bf04      	itt	eq
 8003e7e:	f890 329d 	ldrbeq.w	r3, [r0, #669]	; 0x29d
 8003e82:	f880 329c 	strbeq.w	r3, [r0, #668]	; 0x29c
  }

  return USBD_OK;
}
 8003e86:	2000      	movs	r0, #0
 8003e88:	4770      	bx	lr

08003e8a <USBD_LL_SOF>:
* @param  pdev: device instance
* @retval status
*/

USBD_StatusTypeDef USBD_LL_SOF(USBD_HandleTypeDef *pdev)
{
 8003e8a:	b508      	push	{r3, lr}
  if (pdev->dev_state == USBD_STATE_CONFIGURED)
 8003e8c:	f890 229c 	ldrb.w	r2, [r0, #668]	; 0x29c
 8003e90:	2a03      	cmp	r2, #3
 8003e92:	d104      	bne.n	8003e9e <USBD_LL_SOF+0x14>
  {
    if (pdev->pClass->SOF != NULL)
 8003e94:	f8d0 32b4 	ldr.w	r3, [r0, #692]	; 0x2b4
 8003e98:	69db      	ldr	r3, [r3, #28]
 8003e9a:	b103      	cbz	r3, 8003e9e <USBD_LL_SOF+0x14>
    {
      pdev->pClass->SOF(pdev);
 8003e9c:	4798      	blx	r3
    }
  }

  return USBD_OK;
}
 8003e9e:	2000      	movs	r0, #0
 8003ea0:	bd08      	pop	{r3, pc}

08003ea2 <USBD_CtlError.constprop.1>:
* @param  pdev: device instance
* @param  req: usb request
* @retval None
*/

void USBD_CtlError(USBD_HandleTypeDef *pdev,
 8003ea2:	b510      	push	{r4, lr}
 8003ea4:	4604      	mov	r4, r0
                   USBD_SetupReqTypedef *req)
{
  USBD_LL_StallEP(pdev, 0x80U);
 8003ea6:	2180      	movs	r1, #128	; 0x80
 8003ea8:	f002 fe34 	bl	8006b14 <USBD_LL_StallEP>
  USBD_LL_StallEP(pdev, 0U);
 8003eac:	4620      	mov	r0, r4
}
 8003eae:	e8bd 4010 	ldmia.w	sp!, {r4, lr}
  USBD_LL_StallEP(pdev, 0U);
 8003eb2:	2100      	movs	r1, #0
 8003eb4:	f002 be2e 	b.w	8006b14 <USBD_LL_StallEP>

08003eb8 <USBD_StdDevReq>:
{
 8003eb8:	b537      	push	{r0, r1, r2, r4, r5, lr}
  switch (req->bmRequest & USB_REQ_TYPE_MASK)
 8003eba:	780b      	ldrb	r3, [r1, #0]
{
 8003ebc:	4604      	mov	r4, r0
  switch (req->bmRequest & USB_REQ_TYPE_MASK)
 8003ebe:	f003 0360 	and.w	r3, r3, #96	; 0x60
 8003ec2:	2b20      	cmp	r3, #32
{
 8003ec4:	460d      	mov	r5, r1
  switch (req->bmRequest & USB_REQ_TYPE_MASK)
 8003ec6:	d012      	beq.n	8003eee <USBD_StdDevReq+0x36>
 8003ec8:	2b40      	cmp	r3, #64	; 0x40
 8003eca:	d010      	beq.n	8003eee <USBD_StdDevReq+0x36>
 8003ecc:	2b00      	cmp	r3, #0
 8003ece:	d15b      	bne.n	8003f88 <USBD_StdDevReq+0xd0>
      switch (req->bRequest)
 8003ed0:	784b      	ldrb	r3, [r1, #1]
 8003ed2:	2b09      	cmp	r3, #9
 8003ed4:	d858      	bhi.n	8003f88 <USBD_StdDevReq+0xd0>
 8003ed6:	e8df f013 	tbh	[pc, r3, lsl #1]
 8003eda:	00e9      	.short	0x00e9
 8003edc:	00570105 	.word	0x00570105
 8003ee0:	005700fe 	.word	0x005700fe
 8003ee4:	00130084 	.word	0x00130084
 8003ee8:	00d20057 	.word	0x00d20057
 8003eec:	00a0      	.short	0x00a0
      pdev->pClass->Setup(pdev, req);
 8003eee:	f8d4 32b4 	ldr.w	r3, [r4, #692]	; 0x2b4
 8003ef2:	4629      	mov	r1, r5
 8003ef4:	689b      	ldr	r3, [r3, #8]
 8003ef6:	4620      	mov	r0, r4
 8003ef8:	4798      	blx	r3
}
 8003efa:	2000      	movs	r0, #0
 8003efc:	b003      	add	sp, #12
 8003efe:	bd30      	pop	{r4, r5, pc}
  uint16_t len = 0U;
 8003f00:	2300      	movs	r3, #0
 8003f02:	f8ad 3006 	strh.w	r3, [sp, #6]
  switch (req->wValue >> 8)
 8003f06:	884b      	ldrh	r3, [r1, #2]
 8003f08:	0a1a      	lsrs	r2, r3, #8
 8003f0a:	3a01      	subs	r2, #1
 8003f0c:	2a06      	cmp	r2, #6
 8003f0e:	d83b      	bhi.n	8003f88 <USBD_StdDevReq+0xd0>
 8003f10:	e8df f002 	tbb	[pc, r2]
 8003f14:	3a2d2004 	.word	0x3a2d2004
 8003f18:	523a      	.short	0x523a
 8003f1a:	5c          	.byte	0x5c
 8003f1b:	00          	.byte	0x00
      pbuf = pdev->pDesc->GetDeviceDescriptor(pdev->dev_speed, &len);
 8003f1c:	f8d0 32b0 	ldr.w	r3, [r0, #688]	; 0x2b0
 8003f20:	681b      	ldr	r3, [r3, #0]
            pbuf = pdev->pDesc->GetInterfaceStrDescriptor(pdev->dev_speed, &len);
 8003f22:	f10d 0106 	add.w	r1, sp, #6
 8003f26:	7c20      	ldrb	r0, [r4, #16]
 8003f28:	4798      	blx	r3
    if ((len != 0U) && (req->wLength != 0U))
 8003f2a:	f8bd 2006 	ldrh.w	r2, [sp, #6]
 8003f2e:	b152      	cbz	r2, 8003f46 <USBD_StdDevReq+0x8e>
 8003f30:	88eb      	ldrh	r3, [r5, #6]
 8003f32:	b143      	cbz	r3, 8003f46 <USBD_StdDevReq+0x8e>
      len = MIN(len, req->wLength);
 8003f34:	429a      	cmp	r2, r3
 8003f36:	bf28      	it	cs
 8003f38:	461a      	movcs	r2, r3
      (void)USBD_CtlSendData(pdev, pbuf, len);
 8003f3a:	4601      	mov	r1, r0
 8003f3c:	4620      	mov	r0, r4
      len = MIN(len, req->wLength);
 8003f3e:	f8ad 2006 	strh.w	r2, [sp, #6]
      (void)USBD_CtlSendData(pdev, pbuf, len);
 8003f42:	f000 f99f 	bl	8004284 <USBD_CtlSendData>
    if (req->wLength == 0U)
 8003f46:	88eb      	ldrh	r3, [r5, #6]
 8003f48:	2b00      	cmp	r3, #0
 8003f4a:	d1d6      	bne.n	8003efa <USBD_StdDevReq+0x42>
        USBD_CtlSendStatus(pdev);
 8003f4c:	4620      	mov	r0, r4
 8003f4e:	f000 f9b6 	bl	80042be <USBD_CtlSendStatus>
 8003f52:	e7d2      	b.n	8003efa <USBD_StdDevReq+0x42>
      if (pdev->dev_speed == USBD_SPEED_HIGH)
 8003f54:	7c02      	ldrb	r2, [r0, #16]
 8003f56:	f8d0 32b4 	ldr.w	r3, [r0, #692]	; 0x2b4
 8003f5a:	b932      	cbnz	r2, 8003f6a <USBD_StdDevReq+0xb2>
        pbuf = pdev->pClass->GetHSConfigDescriptor(&len);
 8003f5c:	6a9b      	ldr	r3, [r3, #40]	; 0x28
        pbuf = pdev->pClass->GetFSConfigDescriptor(&len);
 8003f5e:	f10d 0006 	add.w	r0, sp, #6
 8003f62:	4798      	blx	r3
        pbuf[1] = USB_DESC_TYPE_CONFIGURATION;
 8003f64:	2302      	movs	r3, #2
        pbuf[1] = USB_DESC_TYPE_OTHER_SPEED_CONFIGURATION;
 8003f66:	7043      	strb	r3, [r0, #1]
 8003f68:	e7df      	b.n	8003f2a <USBD_StdDevReq+0x72>
        pbuf = pdev->pClass->GetFSConfigDescriptor(&len);
 8003f6a:	6adb      	ldr	r3, [r3, #44]	; 0x2c
 8003f6c:	e7f7      	b.n	8003f5e <USBD_StdDevReq+0xa6>
      switch ((uint8_t)(req->wValue))
 8003f6e:	b2db      	uxtb	r3, r3
 8003f70:	2b05      	cmp	r3, #5
 8003f72:	d809      	bhi.n	8003f88 <USBD_StdDevReq+0xd0>
 8003f74:	e8df f003 	tbb	[pc, r3]
 8003f78:	14100c03 	.word	0x14100c03
 8003f7c:	1c18      	.short	0x1c18
          if (pdev->pDesc->GetLangIDStrDescriptor != NULL)
 8003f7e:	f8d0 32b0 	ldr.w	r3, [r0, #688]	; 0x2b0
 8003f82:	685b      	ldr	r3, [r3, #4]
          if (pdev->pDesc->GetInterfaceStrDescriptor != NULL)
 8003f84:	2b00      	cmp	r3, #0
 8003f86:	d1cc      	bne.n	8003f22 <USBD_StdDevReq+0x6a>
        USBD_CtlError(pdev, req);
 8003f88:	4620      	mov	r0, r4
 8003f8a:	f7ff ff8a 	bl	8003ea2 <USBD_CtlError.constprop.1>
 8003f8e:	e7b4      	b.n	8003efa <USBD_StdDevReq+0x42>
          if (pdev->pDesc->GetManufacturerStrDescriptor != NULL)
 8003f90:	f8d0 32b0 	ldr.w	r3, [r0, #688]	; 0x2b0
 8003f94:	689b      	ldr	r3, [r3, #8]
 8003f96:	e7f5      	b.n	8003f84 <USBD_StdDevReq+0xcc>
          if (pdev->pDesc->GetProductStrDescriptor != NULL)
 8003f98:	f8d0 32b0 	ldr.w	r3, [r0, #688]	; 0x2b0
 8003f9c:	68db      	ldr	r3, [r3, #12]
 8003f9e:	e7f1      	b.n	8003f84 <USBD_StdDevReq+0xcc>
          if (pdev->pDesc->GetSerialStrDescriptor != NULL)
 8003fa0:	f8d0 32b0 	ldr.w	r3, [r0, #688]	; 0x2b0
 8003fa4:	691b      	ldr	r3, [r3, #16]
 8003fa6:	e7ed      	b.n	8003f84 <USBD_StdDevReq+0xcc>
          if (pdev->pDesc->GetConfigurationStrDescriptor != NULL)
 8003fa8:	f8d0 32b0 	ldr.w	r3, [r0, #688]	; 0x2b0
 8003fac:	695b      	ldr	r3, [r3, #20]
 8003fae:	e7e9      	b.n	8003f84 <USBD_StdDevReq+0xcc>
          if (pdev->pDesc->GetInterfaceStrDescriptor != NULL)
 8003fb0:	f8d0 32b0 	ldr.w	r3, [r0, #688]	; 0x2b0
 8003fb4:	699b      	ldr	r3, [r3, #24]
 8003fb6:	e7e5      	b.n	8003f84 <USBD_StdDevReq+0xcc>
      if (pdev->dev_speed == USBD_SPEED_HIGH)
 8003fb8:	7c03      	ldrb	r3, [r0, #16]
 8003fba:	2b00      	cmp	r3, #0
 8003fbc:	d1e4      	bne.n	8003f88 <USBD_StdDevReq+0xd0>
        pbuf = pdev->pClass->GetDeviceQualifierDescriptor(&len);
 8003fbe:	f8d0 32b4 	ldr.w	r3, [r0, #692]	; 0x2b4
 8003fc2:	f10d 0006 	add.w	r0, sp, #6
 8003fc6:	6b5b      	ldr	r3, [r3, #52]	; 0x34
 8003fc8:	4798      	blx	r3
 8003fca:	e7ae      	b.n	8003f2a <USBD_StdDevReq+0x72>
      if (pdev->dev_speed == USBD_SPEED_HIGH)
 8003fcc:	7c03      	ldrb	r3, [r0, #16]
 8003fce:	2b00      	cmp	r3, #0
 8003fd0:	d1da      	bne.n	8003f88 <USBD_StdDevReq+0xd0>
        pbuf = pdev->pClass->GetOtherSpeedConfigDescriptor(&len);
 8003fd2:	f8d0 32b4 	ldr.w	r3, [r0, #692]	; 0x2b4
 8003fd6:	f10d 0006 	add.w	r0, sp, #6
 8003fda:	6b1b      	ldr	r3, [r3, #48]	; 0x30
 8003fdc:	4798      	blx	r3
        pbuf[1] = USB_DESC_TYPE_OTHER_SPEED_CONFIGURATION;
 8003fde:	2307      	movs	r3, #7
 8003fe0:	e7c1      	b.n	8003f66 <USBD_StdDevReq+0xae>
  if ((req->wIndex == 0U) && (req->wLength == 0U) && (req->wValue < 128U))
 8003fe2:	888b      	ldrh	r3, [r1, #4]
 8003fe4:	2b00      	cmp	r3, #0
 8003fe6:	d1cf      	bne.n	8003f88 <USBD_StdDevReq+0xd0>
 8003fe8:	88cb      	ldrh	r3, [r1, #6]
 8003fea:	2b00      	cmp	r3, #0
 8003fec:	d1cc      	bne.n	8003f88 <USBD_StdDevReq+0xd0>
 8003fee:	884d      	ldrh	r5, [r1, #2]
 8003ff0:	2d7f      	cmp	r5, #127	; 0x7f
 8003ff2:	d8c9      	bhi.n	8003f88 <USBD_StdDevReq+0xd0>
    if (pdev->dev_state == USBD_STATE_CONFIGURED)
 8003ff4:	f890 329c 	ldrb.w	r3, [r0, #668]	; 0x29c
 8003ff8:	2b03      	cmp	r3, #3
 8003ffa:	d0c5      	beq.n	8003f88 <USBD_StdDevReq+0xd0>
    dev_addr = (uint8_t)(req->wValue) & 0x7FU;
 8003ffc:	b2e9      	uxtb	r1, r5
      pdev->dev_address = dev_addr;
 8003ffe:	f880 129e 	strb.w	r1, [r0, #670]	; 0x29e
      USBD_LL_SetUSBAddress(pdev, dev_addr);
 8004002:	f002 fdb3 	bl	8006b6c <USBD_LL_SetUSBAddress>
      USBD_CtlSendStatus(pdev);
 8004006:	4620      	mov	r0, r4
 8004008:	f000 f959 	bl	80042be <USBD_CtlSendStatus>
      if (dev_addr != 0U)
 800400c:	b11d      	cbz	r5, 8004016 <USBD_StdDevReq+0x15e>
        pdev->dev_state = USBD_STATE_ADDRESSED;
 800400e:	2302      	movs	r3, #2
        pdev->dev_state = USBD_STATE_DEFAULT;
 8004010:	f884 329c 	strb.w	r3, [r4, #668]	; 0x29c
 8004014:	e771      	b.n	8003efa <USBD_StdDevReq+0x42>
 8004016:	2301      	movs	r3, #1
 8004018:	e7fa      	b.n	8004010 <USBD_StdDevReq+0x158>
  cfgidx = (uint8_t)(req->wValue);
 800401a:	7889      	ldrb	r1, [r1, #2]
 800401c:	4d37      	ldr	r5, [pc, #220]	; (80040fc <USBD_StdDevReq+0x244>)
  if (cfgidx > USBD_MAX_NUM_CONFIGURATION)
 800401e:	2901      	cmp	r1, #1
  cfgidx = (uint8_t)(req->wValue);
 8004020:	7029      	strb	r1, [r5, #0]
  if (cfgidx > USBD_MAX_NUM_CONFIGURATION)
 8004022:	d8b1      	bhi.n	8003f88 <USBD_StdDevReq+0xd0>
    switch (pdev->dev_state)
 8004024:	f890 329c 	ldrb.w	r3, [r0, #668]	; 0x29c
 8004028:	2b02      	cmp	r3, #2
 800402a:	d008      	beq.n	800403e <USBD_StdDevReq+0x186>
 800402c:	2b03      	cmp	r3, #3
 800402e:	d014      	beq.n	800405a <USBD_StdDevReq+0x1a2>
        USBD_CtlError(pdev, req);
 8004030:	f7ff ff37 	bl	8003ea2 <USBD_CtlError.constprop.1>
        USBD_ClrClassConfig(pdev, cfgidx);
 8004034:	7829      	ldrb	r1, [r5, #0]
 8004036:	4620      	mov	r0, r4
 8004038:	f7ff fe21 	bl	8003c7e <USBD_ClrClassConfig>
 800403c:	e75d      	b.n	8003efa <USBD_StdDevReq+0x42>
        if (cfgidx)
 800403e:	2900      	cmp	r1, #0
 8004040:	d084      	beq.n	8003f4c <USBD_StdDevReq+0x94>
          pdev->dev_config = cfgidx;
 8004042:	2101      	movs	r1, #1
          pdev->dev_state = USBD_STATE_CONFIGURED;
 8004044:	2303      	movs	r3, #3
          pdev->dev_config = cfgidx;
 8004046:	6041      	str	r1, [r0, #4]
          pdev->dev_state = USBD_STATE_CONFIGURED;
 8004048:	f880 329c 	strb.w	r3, [r0, #668]	; 0x29c
          if (USBD_SetClassConfig(pdev, cfgidx) == USBD_FAIL)
 800404c:	4620      	mov	r0, r4
 800404e:	f7ff fe0b 	bl	8003c68 <USBD_SetClassConfig>
 8004052:	2802      	cmp	r0, #2
 8004054:	f47f af7a 	bne.w	8003f4c <USBD_StdDevReq+0x94>
 8004058:	e796      	b.n	8003f88 <USBD_StdDevReq+0xd0>
        if (cfgidx == 0U)
 800405a:	b931      	cbnz	r1, 800406a <USBD_StdDevReq+0x1b2>
          pdev->dev_state = USBD_STATE_ADDRESSED;
 800405c:	2302      	movs	r3, #2
          pdev->dev_config = cfgidx;
 800405e:	6041      	str	r1, [r0, #4]
          pdev->dev_state = USBD_STATE_ADDRESSED;
 8004060:	f880 329c 	strb.w	r3, [r0, #668]	; 0x29c
          USBD_ClrClassConfig(pdev, cfgidx);
 8004064:	f7ff fe0b 	bl	8003c7e <USBD_ClrClassConfig>
 8004068:	e770      	b.n	8003f4c <USBD_StdDevReq+0x94>
        else if (cfgidx != pdev->dev_config)
 800406a:	6841      	ldr	r1, [r0, #4]
 800406c:	2901      	cmp	r1, #1
 800406e:	f43f af6d 	beq.w	8003f4c <USBD_StdDevReq+0x94>
          USBD_ClrClassConfig(pdev, (uint8_t)pdev->dev_config);
 8004072:	b2c9      	uxtb	r1, r1
 8004074:	f7ff fe03 	bl	8003c7e <USBD_ClrClassConfig>
          pdev->dev_config = cfgidx;
 8004078:	7829      	ldrb	r1, [r5, #0]
 800407a:	6061      	str	r1, [r4, #4]
 800407c:	e7e6      	b.n	800404c <USBD_StdDevReq+0x194>
  if (req->wLength != 1U)
 800407e:	88ca      	ldrh	r2, [r1, #6]
 8004080:	2a01      	cmp	r2, #1
 8004082:	d181      	bne.n	8003f88 <USBD_StdDevReq+0xd0>
    switch (pdev->dev_state)
 8004084:	f890 329c 	ldrb.w	r3, [r0, #668]	; 0x29c
 8004088:	2b00      	cmp	r3, #0
 800408a:	f43f af7d 	beq.w	8003f88 <USBD_StdDevReq+0xd0>
 800408e:	2b02      	cmp	r3, #2
 8004090:	d904      	bls.n	800409c <USBD_StdDevReq+0x1e4>
 8004092:	2b03      	cmp	r3, #3
 8004094:	f47f af78 	bne.w	8003f88 <USBD_StdDevReq+0xd0>
        USBD_CtlSendData(pdev, (uint8_t *)(void *)&pdev->dev_config, 1U);
 8004098:	1d01      	adds	r1, r0, #4
 800409a:	e003      	b.n	80040a4 <USBD_StdDevReq+0x1ec>
        pdev->dev_default_config = 0U;
 800409c:	4601      	mov	r1, r0
 800409e:	2300      	movs	r3, #0
 80040a0:	f841 3f08 	str.w	r3, [r1, #8]!
      USBD_CtlSendData(pdev, (uint8_t *)(void *)&pdev->dev_config_status, 2U);
 80040a4:	4620      	mov	r0, r4
 80040a6:	f000 f8ed 	bl	8004284 <USBD_CtlSendData>
 80040aa:	e726      	b.n	8003efa <USBD_StdDevReq+0x42>
  switch (pdev->dev_state)
 80040ac:	f890 329c 	ldrb.w	r3, [r0, #668]	; 0x29c
 80040b0:	3b01      	subs	r3, #1
 80040b2:	2b02      	cmp	r3, #2
 80040b4:	f63f af68 	bhi.w	8003f88 <USBD_StdDevReq+0xd0>
      if (req->wLength != 0x2U)
 80040b8:	88cb      	ldrh	r3, [r1, #6]
 80040ba:	2b02      	cmp	r3, #2
 80040bc:	f47f af64 	bne.w	8003f88 <USBD_StdDevReq+0xd0>
      pdev->dev_config_status = USB_CONFIG_SELF_POWERED;
 80040c0:	2301      	movs	r3, #1
 80040c2:	60c3      	str	r3, [r0, #12]
      if (pdev->dev_remote_wakeup)
 80040c4:	f8d0 32a4 	ldr.w	r3, [r0, #676]	; 0x2a4
 80040c8:	b10b      	cbz	r3, 80040ce <USBD_StdDevReq+0x216>
        pdev->dev_config_status |= USB_CONFIG_REMOTE_WAKEUP;
 80040ca:	2303      	movs	r3, #3
 80040cc:	60c3      	str	r3, [r0, #12]
      USBD_CtlSendData(pdev, (uint8_t *)(void *)&pdev->dev_config_status, 2U);
 80040ce:	2202      	movs	r2, #2
 80040d0:	f104 010c 	add.w	r1, r4, #12
 80040d4:	e7e6      	b.n	80040a4 <USBD_StdDevReq+0x1ec>
  if (req->wValue == USB_FEATURE_REMOTE_WAKEUP)
 80040d6:	884b      	ldrh	r3, [r1, #2]
 80040d8:	2b01      	cmp	r3, #1
 80040da:	f47f af0e 	bne.w	8003efa <USBD_StdDevReq+0x42>
        pdev->dev_remote_wakeup = 0U;
 80040de:	f8c4 32a4 	str.w	r3, [r4, #676]	; 0x2a4
 80040e2:	e733      	b.n	8003f4c <USBD_StdDevReq+0x94>
  switch (pdev->dev_state)
 80040e4:	f890 329c 	ldrb.w	r3, [r0, #668]	; 0x29c
 80040e8:	3b01      	subs	r3, #1
 80040ea:	2b02      	cmp	r3, #2
 80040ec:	f63f af4c 	bhi.w	8003f88 <USBD_StdDevReq+0xd0>
      if (req->wValue == USB_FEATURE_REMOTE_WAKEUP)
 80040f0:	884b      	ldrh	r3, [r1, #2]
 80040f2:	2b01      	cmp	r3, #1
 80040f4:	f47f af01 	bne.w	8003efa <USBD_StdDevReq+0x42>
        pdev->dev_remote_wakeup = 0U;
 80040f8:	2300      	movs	r3, #0
 80040fa:	e7f0      	b.n	80040de <USBD_StdDevReq+0x226>
 80040fc:	20000284 	.word	0x20000284

08004100 <USBD_StdItfReq>:
{
 8004100:	b538      	push	{r3, r4, r5, lr}
  switch (req->bmRequest & USB_REQ_TYPE_MASK)
 8004102:	780b      	ldrb	r3, [r1, #0]
{
 8004104:	4604      	mov	r4, r0
  switch (req->bmRequest & USB_REQ_TYPE_MASK)
 8004106:	f003 0360 	and.w	r3, r3, #96	; 0x60
 800410a:	2b20      	cmp	r3, #32
{
 800410c:	460d      	mov	r5, r1
  switch (req->bmRequest & USB_REQ_TYPE_MASK)
 800410e:	d002      	beq.n	8004116 <USBD_StdItfReq+0x16>
 8004110:	2b40      	cmp	r3, #64	; 0x40
 8004112:	d000      	beq.n	8004116 <USBD_StdItfReq+0x16>
 8004114:	b9ab      	cbnz	r3, 8004142 <USBD_StdItfReq+0x42>
      switch (pdev->dev_state)
 8004116:	f894 329c 	ldrb.w	r3, [r4, #668]	; 0x29c
 800411a:	3b01      	subs	r3, #1
 800411c:	2b02      	cmp	r3, #2
 800411e:	d810      	bhi.n	8004142 <USBD_StdItfReq+0x42>
          if (LOBYTE(req->wIndex) <= USBD_MAX_NUM_INTERFACES)
 8004120:	792b      	ldrb	r3, [r5, #4]
 8004122:	2b01      	cmp	r3, #1
 8004124:	d80d      	bhi.n	8004142 <USBD_StdItfReq+0x42>
            ret = (USBD_StatusTypeDef)pdev->pClass->Setup(pdev, req);
 8004126:	f8d4 32b4 	ldr.w	r3, [r4, #692]	; 0x2b4
 800412a:	4629      	mov	r1, r5
 800412c:	689b      	ldr	r3, [r3, #8]
 800412e:	4620      	mov	r0, r4
 8004130:	4798      	blx	r3
            if ((req->wLength == 0U) && (ret == USBD_OK))
 8004132:	88eb      	ldrh	r3, [r5, #6]
 8004134:	b91b      	cbnz	r3, 800413e <USBD_StdItfReq+0x3e>
 8004136:	b910      	cbnz	r0, 800413e <USBD_StdItfReq+0x3e>
              USBD_CtlSendStatus(pdev);
 8004138:	4620      	mov	r0, r4
 800413a:	f000 f8c0 	bl	80042be <USBD_CtlSendStatus>
}
 800413e:	2000      	movs	r0, #0
 8004140:	bd38      	pop	{r3, r4, r5, pc}
          USBD_CtlError(pdev, req);
 8004142:	4620      	mov	r0, r4
 8004144:	f7ff fead 	bl	8003ea2 <USBD_CtlError.constprop.1>
          break;
 8004148:	e7f9      	b.n	800413e <USBD_StdItfReq+0x3e>

0800414a <USBD_StdEPReq>:
{
 800414a:	b538      	push	{r3, r4, r5, lr}
  switch (req->bmRequest & USB_REQ_TYPE_MASK)
 800414c:	780a      	ldrb	r2, [r1, #0]
{
 800414e:	4604      	mov	r4, r0
  switch (req->bmRequest & USB_REQ_TYPE_MASK)
 8004150:	f002 0260 	and.w	r2, r2, #96	; 0x60
 8004154:	2a20      	cmp	r2, #32
{
 8004156:	460b      	mov	r3, r1
  switch (req->bmRequest & USB_REQ_TYPE_MASK)
 8004158:	d014      	beq.n	8004184 <USBD_StdEPReq+0x3a>
 800415a:	2a40      	cmp	r2, #64	; 0x40
 800415c:	d012      	beq.n	8004184 <USBD_StdEPReq+0x3a>
 800415e:	b96a      	cbnz	r2, 800417c <USBD_StdEPReq+0x32>
      switch (req->bRequest)
 8004160:	785a      	ldrb	r2, [r3, #1]
  ep_addr  = LOBYTE(req->wIndex);
 8004162:	888d      	ldrh	r5, [r1, #4]
      switch (req->bRequest)
 8004164:	2a01      	cmp	r2, #1
  ep_addr  = LOBYTE(req->wIndex);
 8004166:	b2e9      	uxtb	r1, r5
      switch (req->bRequest)
 8004168:	d020      	beq.n	80041ac <USBD_StdEPReq+0x62>
 800416a:	d336      	bcc.n	80041da <USBD_StdEPReq+0x90>
 800416c:	2a03      	cmp	r2, #3
 800416e:	d105      	bne.n	800417c <USBD_StdEPReq+0x32>
          switch (pdev->dev_state)
 8004170:	f890 229c 	ldrb.w	r2, [r0, #668]	; 0x29c
 8004174:	2a02      	cmp	r2, #2
 8004176:	d027      	beq.n	80041c8 <USBD_StdEPReq+0x7e>
 8004178:	2a03      	cmp	r2, #3
 800417a:	d00b      	beq.n	8004194 <USBD_StdEPReq+0x4a>
              USBD_CtlError(pdev, req);
 800417c:	4620      	mov	r0, r4
 800417e:	f7ff fe90 	bl	8003ea2 <USBD_CtlError.constprop.1>
              break;
 8004182:	e005      	b.n	8004190 <USBD_StdEPReq+0x46>
      pdev->pClass->Setup(pdev, req);
 8004184:	f8d4 22b4 	ldr.w	r2, [r4, #692]	; 0x2b4
 8004188:	4619      	mov	r1, r3
 800418a:	6892      	ldr	r2, [r2, #8]
 800418c:	4620      	mov	r0, r4
 800418e:	4790      	blx	r2
}
 8004190:	2000      	movs	r0, #0
 8004192:	bd38      	pop	{r3, r4, r5, pc}
              if (req->wValue == USB_FEATURE_EP_HALT)
 8004194:	885a      	ldrh	r2, [r3, #2]
 8004196:	b92a      	cbnz	r2, 80041a4 <USBD_StdEPReq+0x5a>
                if ((ep_addr != 0x00U) &&
 8004198:	064a      	lsls	r2, r1, #25
 800419a:	d003      	beq.n	80041a4 <USBD_StdEPReq+0x5a>
                    (ep_addr != 0x80U) && (req->wLength == 0x00U))
 800419c:	88db      	ldrh	r3, [r3, #6]
 800419e:	b90b      	cbnz	r3, 80041a4 <USBD_StdEPReq+0x5a>
                  USBD_LL_StallEP(pdev, ep_addr);
 80041a0:	f002 fcb8 	bl	8006b14 <USBD_LL_StallEP>
              USBD_CtlSendStatus(pdev);
 80041a4:	4620      	mov	r0, r4
 80041a6:	f000 f88a 	bl	80042be <USBD_CtlSendStatus>
              break;
 80041aa:	e7f1      	b.n	8004190 <USBD_StdEPReq+0x46>
          switch (pdev->dev_state)
 80041ac:	f890 229c 	ldrb.w	r2, [r0, #668]	; 0x29c
 80041b0:	2a02      	cmp	r2, #2
 80041b2:	d009      	beq.n	80041c8 <USBD_StdEPReq+0x7e>
 80041b4:	2a03      	cmp	r2, #3
 80041b6:	d1e1      	bne.n	800417c <USBD_StdEPReq+0x32>
              if (req->wValue == USB_FEATURE_EP_HALT)
 80041b8:	885b      	ldrh	r3, [r3, #2]
 80041ba:	2b00      	cmp	r3, #0
 80041bc:	d1e8      	bne.n	8004190 <USBD_StdEPReq+0x46>
                if ((ep_addr & 0x7FU) != 0x00U)
 80041be:	064d      	lsls	r5, r1, #25
 80041c0:	d0f0      	beq.n	80041a4 <USBD_StdEPReq+0x5a>
                  USBD_LL_ClearStallEP(pdev, ep_addr);
 80041c2:	f002 fcb5 	bl	8006b30 <USBD_LL_ClearStallEP>
 80041c6:	e7ed      	b.n	80041a4 <USBD_StdEPReq+0x5a>
              if ((ep_addr != 0x00U) && (ep_addr != 0x80U))
 80041c8:	064b      	lsls	r3, r1, #25
 80041ca:	d0d7      	beq.n	800417c <USBD_StdEPReq+0x32>
                USBD_LL_StallEP(pdev, ep_addr);
 80041cc:	f002 fca2 	bl	8006b14 <USBD_LL_StallEP>
                USBD_LL_StallEP(pdev, 0x80U);
 80041d0:	2180      	movs	r1, #128	; 0x80
 80041d2:	4620      	mov	r0, r4
 80041d4:	f002 fc9e 	bl	8006b14 <USBD_LL_StallEP>
 80041d8:	e7da      	b.n	8004190 <USBD_StdEPReq+0x46>
          switch (pdev->dev_state)
 80041da:	f890 329c 	ldrb.w	r3, [r0, #668]	; 0x29c
 80041de:	2b02      	cmp	r3, #2
 80041e0:	d018      	beq.n	8004214 <USBD_StdEPReq+0xca>
 80041e2:	2b03      	cmp	r3, #3
 80041e4:	d1ca      	bne.n	800417c <USBD_StdEPReq+0x32>
 80041e6:	2314      	movs	r3, #20
 80041e8:	f001 020f 	and.w	r2, r1, #15
              if ((ep_addr & 0x80U) == 0x80U)
 80041ec:	f015 0f80 	tst.w	r5, #128	; 0x80
                if (pdev->ep_in[ep_addr & 0xFU].is_used == 0U)
 80041f0:	fb03 0202 	mla	r2, r3, r2, r0
              if ((ep_addr & 0x80U) == 0x80U)
 80041f4:	d01f      	beq.n	8004236 <USBD_StdEPReq+0xec>
                if (pdev->ep_in[ep_addr & 0xFU].is_used == 0U)
 80041f6:	6992      	ldr	r2, [r2, #24]
 80041f8:	2a00      	cmp	r2, #0
 80041fa:	d0bf      	beq.n	800417c <USBD_StdEPReq+0x32>
              pep = ((ep_addr & 0x80U) == 0x80U) ? &pdev->ep_in[ep_addr & 0x7FU] : \
 80041fc:	f001 057f 	and.w	r5, r1, #127	; 0x7f
 8004200:	fb05 3503 	mla	r5, r5, r3, r3
 8004204:	4405      	add	r5, r0
              if ((ep_addr == 0x00U) || (ep_addr == 0x80U))
 8004206:	f011 037f 	ands.w	r3, r1, #127	; 0x7f
 800420a:	d11f      	bne.n	800424c <USBD_StdEPReq+0x102>
                pep->status = 0x0001U;
 800420c:	602b      	str	r3, [r5, #0]
              USBD_CtlSendData(pdev, (uint8_t *)(void *)&pep->status, 2U);
 800420e:	2202      	movs	r2, #2
 8004210:	4629      	mov	r1, r5
 8004212:	e00c      	b.n	800422e <USBD_StdEPReq+0xe4>
              if ((ep_addr != 0x00U) && (ep_addr != 0x80U))
 8004214:	064a      	lsls	r2, r1, #25
 8004216:	d1b1      	bne.n	800417c <USBD_StdEPReq+0x32>
              pep = ((ep_addr & 0x80U) == 0x80U) ? &pdev->ep_in[ep_addr & 0x7FU] : \
 8004218:	062b      	lsls	r3, r5, #24
              pep->status = 0x0000U;
 800421a:	f04f 0300 	mov.w	r3, #0
              USBD_CtlSendData(pdev, (uint8_t *)(void *)&pep->status, 2U);
 800421e:	f04f 0202 	mov.w	r2, #2
              pep = ((ep_addr & 0x80U) == 0x80U) ? &pdev->ep_in[ep_addr & 0x7FU] : \
 8004222:	bf4c      	ite	mi
 8004224:	f100 0114 	addmi.w	r1, r0, #20
 8004228:	f500 71aa 	addpl.w	r1, r0, #340	; 0x154
              pep->status = 0x0000U;
 800422c:	600b      	str	r3, [r1, #0]
              USBD_CtlSendData(pdev, (uint8_t *)(void *)&pep->status, 2U);
 800422e:	4620      	mov	r0, r4
 8004230:	f000 f828 	bl	8004284 <USBD_CtlSendData>
              break;
 8004234:	e7ac      	b.n	8004190 <USBD_StdEPReq+0x46>
                if (pdev->ep_out[ep_addr & 0xFU].is_used == 0U)
 8004236:	f8d2 2158 	ldr.w	r2, [r2, #344]	; 0x158
 800423a:	2a00      	cmp	r2, #0
 800423c:	d09e      	beq.n	800417c <USBD_StdEPReq+0x32>
                    &pdev->ep_out[ep_addr & 0x7FU];
 800423e:	f001 057f 	and.w	r5, r1, #127	; 0x7f
              pep = ((ep_addr & 0x80U) == 0x80U) ? &pdev->ep_in[ep_addr & 0x7FU] : \
 8004242:	fb03 0505 	mla	r5, r3, r5, r0
 8004246:	f505 75aa 	add.w	r5, r5, #340	; 0x154
 800424a:	e7dc      	b.n	8004206 <USBD_StdEPReq+0xbc>
              else if (USBD_LL_IsStallEP(pdev, ep_addr))
 800424c:	4620      	mov	r0, r4
 800424e:	f002 fc7d 	bl	8006b4c <USBD_LL_IsStallEP>
 8004252:	b108      	cbz	r0, 8004258 <USBD_StdEPReq+0x10e>
                pep->status = 0x0001U;
 8004254:	2301      	movs	r3, #1
 8004256:	e7d9      	b.n	800420c <USBD_StdEPReq+0xc2>
                pep->status = 0x0000U;
 8004258:	6028      	str	r0, [r5, #0]
 800425a:	e7d8      	b.n	800420e <USBD_StdEPReq+0xc4>

0800425c <USBD_ParseSetupRequest>:
  req->bmRequest = *(uint8_t *)(pdata);
 800425c:	780b      	ldrb	r3, [r1, #0]
 800425e:	7003      	strb	r3, [r0, #0]
  req->bRequest = *(uint8_t *)(pdata + 1U);
 8004260:	784b      	ldrb	r3, [r1, #1]
 8004262:	7043      	strb	r3, [r0, #1]
  req->wValue = SWAPBYTE(pdata + 2U);
 8004264:	78ca      	ldrb	r2, [r1, #3]
 8004266:	788b      	ldrb	r3, [r1, #2]
 8004268:	eb03 2302 	add.w	r3, r3, r2, lsl #8
 800426c:	8043      	strh	r3, [r0, #2]
  req->wIndex = SWAPBYTE(pdata + 4U);
 800426e:	794a      	ldrb	r2, [r1, #5]
 8004270:	790b      	ldrb	r3, [r1, #4]
 8004272:	eb03 2302 	add.w	r3, r3, r2, lsl #8
 8004276:	8083      	strh	r3, [r0, #4]
  req->wLength = SWAPBYTE(pdata + 6U);
 8004278:	79ca      	ldrb	r2, [r1, #7]
 800427a:	798b      	ldrb	r3, [r1, #6]
 800427c:	eb03 2302 	add.w	r3, r3, r2, lsl #8
 8004280:	80c3      	strh	r3, [r0, #6]
}
 8004282:	4770      	bx	lr

08004284 <USBD_CtlSendData>:
* @param  len: length of data to be sent
* @retval status
*/
USBD_StatusTypeDef USBD_CtlSendData(USBD_HandleTypeDef *pdev,
                                    uint8_t *pbuf, uint16_t len)
{
 8004284:	4613      	mov	r3, r2
  /* Set EP0 State */
  pdev->ep0_state = USBD_EP0_DATA_IN;
 8004286:	2202      	movs	r2, #2
{
 8004288:	b510      	push	{r4, lr}
  pdev->ep0_state = USBD_EP0_DATA_IN;
 800428a:	f8c0 2294 	str.w	r2, [r0, #660]	; 0x294
  pdev->ep_in[0].total_length = len;
  pdev->ep_in[0].rem_length   = len;
 800428e:	e9c0 3307 	strd	r3, r3, [r0, #28]

  /* Start the transfer */
  USBD_LL_Transmit(pdev, 0x00U, pbuf, len);
 8004292:	460a      	mov	r2, r1
 8004294:	2100      	movs	r1, #0
 8004296:	f002 fc77 	bl	8006b88 <USBD_LL_Transmit>

  return USBD_OK;
}
 800429a:	2000      	movs	r0, #0
 800429c:	bd10      	pop	{r4, pc}

0800429e <USBD_CtlContinueSendData>:
* @param  len: length of data to be sent
* @retval status
*/
USBD_StatusTypeDef USBD_CtlContinueSendData(USBD_HandleTypeDef *pdev,
                                            uint8_t *pbuf, uint16_t len)
{
 800429e:	b508      	push	{r3, lr}
  /* Start the next transfer */
  USBD_LL_Transmit(pdev, 0x00U, pbuf, len);
 80042a0:	4613      	mov	r3, r2
 80042a2:	460a      	mov	r2, r1
 80042a4:	2100      	movs	r1, #0
 80042a6:	f002 fc6f 	bl	8006b88 <USBD_LL_Transmit>

  return USBD_OK;
}
 80042aa:	2000      	movs	r0, #0
 80042ac:	bd08      	pop	{r3, pc}

080042ae <USBD_CtlContinueRx>:
* @param  len: length of data to be received
* @retval status
*/
USBD_StatusTypeDef USBD_CtlContinueRx(USBD_HandleTypeDef *pdev,
                                      uint8_t *pbuf, uint16_t len)
{
 80042ae:	b508      	push	{r3, lr}
  USBD_LL_PrepareReceive(pdev, 0U, pbuf, len);
 80042b0:	4613      	mov	r3, r2
 80042b2:	460a      	mov	r2, r1
 80042b4:	2100      	movs	r1, #0
 80042b6:	f002 fc75 	bl	8006ba4 <USBD_LL_PrepareReceive>

  return USBD_OK;
}
 80042ba:	2000      	movs	r0, #0
 80042bc:	bd08      	pop	{r3, pc}

080042be <USBD_CtlSendStatus>:
*         send zero lzngth packet on the ctl pipe
* @param  pdev: device instance
* @retval status
*/
USBD_StatusTypeDef USBD_CtlSendStatus(USBD_HandleTypeDef *pdev)
{
 80042be:	b508      	push	{r3, lr}
  /* Set EP0 State */
  pdev->ep0_state = USBD_EP0_STATUS_IN;
 80042c0:	2304      	movs	r3, #4
 80042c2:	f8c0 3294 	str.w	r3, [r0, #660]	; 0x294

  /* Start the transfer */
  USBD_LL_Transmit(pdev, 0x00U, NULL, 0U);
 80042c6:	2300      	movs	r3, #0
 80042c8:	461a      	mov	r2, r3
 80042ca:	4619      	mov	r1, r3
 80042cc:	f002 fc5c 	bl	8006b88 <USBD_LL_Transmit>

  return USBD_OK;
}
 80042d0:	2000      	movs	r0, #0
 80042d2:	bd08      	pop	{r3, pc}

080042d4 <USBD_CtlReceiveStatus>:
*         receive zero lzngth packet on the ctl pipe
* @param  pdev: device instance
* @retval status
*/
USBD_StatusTypeDef USBD_CtlReceiveStatus(USBD_HandleTypeDef *pdev)
{
 80042d4:	b508      	push	{r3, lr}
  /* Set EP0 State */
  pdev->ep0_state = USBD_EP0_STATUS_OUT;
 80042d6:	2305      	movs	r3, #5
 80042d8:	f8c0 3294 	str.w	r3, [r0, #660]	; 0x294

  /* Start the transfer */
  USBD_LL_PrepareReceive(pdev, 0U, NULL, 0U);
 80042dc:	2300      	movs	r3, #0
 80042de:	461a      	mov	r2, r3
 80042e0:	4619      	mov	r1, r3
 80042e2:	f002 fc5f 	bl	8006ba4 <USBD_LL_PrepareReceive>

  return USBD_OK;
}
 80042e6:	2000      	movs	r0, #0
 80042e8:	bd08      	pop	{r3, pc}
	...

080042ec <get_addr>:
 80042ec:	4b01      	ldr	r3, [pc, #4]	; (80042f4 <get_addr+0x8>)
 80042ee:	6818      	ldr	r0, [r3, #0]
 80042f0:	4770      	bx	lr
 80042f2:	bf00      	nop
 80042f4:	20000288 	.word	0x20000288

080042f8 <get_mode>:
 80042f8:	4b01      	ldr	r3, [pc, #4]	; (8004300 <get_mode+0x8>)
 80042fa:	7818      	ldrb	r0, [r3, #0]
 80042fc:	4770      	bx	lr
 80042fe:	bf00      	nop
 8004300:	20000285 	.word	0x20000285

08004304 <get_reg_length>:
 8004304:	4b01      	ldr	r3, [pc, #4]	; (800430c <get_reg_length+0x8>)
 8004306:	6818      	ldr	r0, [r3, #0]
 8004308:	4770      	bx	lr
 800430a:	bf00      	nop
 800430c:	20000290 	.word	0x20000290

08004310 <init_regs>:
 8004310:	b510      	push	{r4, lr}
 8004312:	4c06      	ldr	r4, [pc, #24]	; (800432c <init_regs+0x1c>)
 8004314:	6820      	ldr	r0, [r4, #0]
 8004316:	b108      	cbz	r0, 800431c <init_regs+0xc>
 8004318:	f003 f95e 	bl	80075d8 <free>
 800431c:	4b04      	ldr	r3, [pc, #16]	; (8004330 <init_regs+0x20>)
 800431e:	2101      	movs	r1, #1
 8004320:	6818      	ldr	r0, [r3, #0]
 8004322:	f003 f91f 	bl	8007564 <calloc>
 8004326:	6020      	str	r0, [r4, #0]
 8004328:	bd10      	pop	{r4, pc}
 800432a:	bf00      	nop
 800432c:	2000028c 	.word	0x2000028c
 8004330:	20000290 	.word	0x20000290

08004334 <dmx512_init>:
 8004334:	f010 0f01 	tst.w	r0, #1
 8004338:	bf18      	it	ne
 800433a:	2201      	movne	r2, #1
 800433c:	4b06      	ldr	r3, [pc, #24]	; (8004358 <dmx512_init+0x24>)
 800433e:	6019      	str	r1, [r3, #0]
 8004340:	4b06      	ldr	r3, [pc, #24]	; (800435c <dmx512_init+0x28>)
 8004342:	bf18      	it	ne
 8004344:	701a      	strbne	r2, [r3, #0]
 8004346:	781b      	ldrb	r3, [r3, #0]
 8004348:	2b01      	cmp	r3, #1
 800434a:	bf14      	ite	ne
 800434c:	220b      	movne	r2, #11
 800434e:	221a      	moveq	r2, #26
 8004350:	4b03      	ldr	r3, [pc, #12]	; (8004360 <dmx512_init+0x2c>)
 8004352:	601a      	str	r2, [r3, #0]
 8004354:	f7ff bfdc 	b.w	8004310 <init_regs>
 8004358:	20000288 	.word	0x20000288
 800435c:	20000285 	.word	0x20000285
 8004360:	20000290 	.word	0x20000290

08004364 <set_reg>:
 8004364:	4b04      	ldr	r3, [pc, #16]	; (8004378 <set_reg+0x14>)
 8004366:	681b      	ldr	r3, [r3, #0]
 8004368:	b123      	cbz	r3, 8004374 <set_reg+0x10>
 800436a:	4a04      	ldr	r2, [pc, #16]	; (800437c <set_reg+0x18>)
 800436c:	6812      	ldr	r2, [r2, #0]
 800436e:	4282      	cmp	r2, r0
 8004370:	bf88      	it	hi
 8004372:	5419      	strbhi	r1, [r3, r0]
 8004374:	4770      	bx	lr
 8004376:	bf00      	nop
 8004378:	2000028c 	.word	0x2000028c
 800437c:	20000290 	.word	0x20000290

08004380 <get_reg>:
 8004380:	4b05      	ldr	r3, [pc, #20]	; (8004398 <get_reg+0x18>)
 8004382:	681b      	ldr	r3, [r3, #0]
 8004384:	b12b      	cbz	r3, 8004392 <get_reg+0x12>
 8004386:	4a05      	ldr	r2, [pc, #20]	; (800439c <get_reg+0x1c>)
 8004388:	6812      	ldr	r2, [r2, #0]
 800438a:	4282      	cmp	r2, r0
 800438c:	d901      	bls.n	8004392 <get_reg+0x12>
 800438e:	5c18      	ldrb	r0, [r3, r0]
 8004390:	4770      	bx	lr
 8004392:	2000      	movs	r0, #0
 8004394:	4770      	bx	lr
 8004396:	bf00      	nop
 8004398:	2000028c 	.word	0x2000028c
 800439c:	20000290 	.word	0x20000290

080043a0 <get_reg_name>:
 80043a0:	4b04      	ldr	r3, [pc, #16]	; (80043b4 <get_reg_name+0x14>)
 80043a2:	681b      	ldr	r3, [r3, #0]
 80043a4:	4283      	cmp	r3, r0
 80043a6:	bf86      	itte	hi
 80043a8:	4b03      	ldrhi	r3, [pc, #12]	; (80043b8 <get_reg_name+0x18>)
 80043aa:	f853 0020 	ldrhi.w	r0, [r3, r0, lsl #2]
 80043ae:	2000      	movls	r0, #0
 80043b0:	4770      	bx	lr
 80043b2:	bf00      	nop
 80043b4:	20000290 	.word	0x20000290
 80043b8:	20000008 	.word	0x20000008

080043bc <USART1_IRQHandler>:
/* UART1 Interrupt Service Routine */
void USART1_IRQHandler(void)
{
	//Get the received byte and clear Frame Error IRQ flag
	//On Framing Error restart Timer to search for a start condition
	if (__HAL_UART_GET_FLAG(&huart1,UART_FLAG_FE))
 80043bc:	4b09      	ldr	r3, [pc, #36]	; (80043e4 <USART1_IRQHandler+0x28>)
{
 80043be:	b082      	sub	sp, #8
	if (__HAL_UART_GET_FLAG(&huart1,UART_FLAG_FE))
 80043c0:	681b      	ldr	r3, [r3, #0]
 80043c2:	681a      	ldr	r2, [r3, #0]
 80043c4:	0792      	lsls	r2, r2, #30
 80043c6:	d509      	bpl.n	80043dc <USART1_IRQHandler+0x20>
	{
		__HAL_UART_CLEAR_FEFLAG(&huart1);
 80043c8:	2200      	movs	r2, #0
 80043ca:	9201      	str	r2, [sp, #4]
 80043cc:	681a      	ldr	r2, [r3, #0]
 80043ce:	9201      	str	r2, [sp, #4]
#ifdef USE_TIMER
		TIM_ITConfig(TIM1, TIM_IT_CC1, ENABLE);
#else
		start_flag = 1;
 80043d0:	2201      	movs	r2, #1
		__HAL_UART_CLEAR_FEFLAG(&huart1);
 80043d2:	685b      	ldr	r3, [r3, #4]
 80043d4:	9301      	str	r3, [sp, #4]
 80043d6:	9b01      	ldr	r3, [sp, #4]
		start_flag = 1;
 80043d8:	4b03      	ldr	r3, [pc, #12]	; (80043e8 <USART1_IRQHandler+0x2c>)
 80043da:	701a      	strb	r2, [r3, #0]
#endif
	}
	HAL_UART_IRQHandler(&huart1);
 80043dc:	4801      	ldr	r0, [pc, #4]	; (80043e4 <USART1_IRQHandler+0x28>)
}
 80043de:	b002      	add	sp, #8
	HAL_UART_IRQHandler(&huart1);
 80043e0:	f7ff b8be 	b.w	8003560 <HAL_UART_IRQHandler>
 80043e4:	200008b4 	.word	0x200008b4
 80043e8:	200002a0 	.word	0x200002a0

080043ec <USART3_IRQHandler>:

#ifdef USE_UART_IRQ
/* UART3 Interrupt Service Routine */
void USART3_IRQHandler(void)
{
	HAL_UART_IRQHandler(&huart3);
 80043ec:	4801      	ldr	r0, [pc, #4]	; (80043f4 <USART3_IRQHandler+0x8>)
 80043ee:	f7ff b8b7 	b.w	8003560 <HAL_UART_IRQHandler>
 80043f2:	bf00      	nop
 80043f4:	200007d8 	.word	0x200007d8

080043f8 <HAL_UART_RxCpltCallback>:
//UART IRQ Triggered by incoming characters
void HAL_UART_RxCpltCallback(UART_HandleTypeDef *huart)
{
	volatile uint8_t rx_byte;

	if (huart->Instance == USART1)
 80043f8:	6803      	ldr	r3, [r0, #0]
 80043fa:	4a37      	ldr	r2, [pc, #220]	; (80044d8 <HAL_UART_RxCpltCallback+0xe0>)
{
 80043fc:	b573      	push	{r0, r1, r4, r5, r6, lr}
	if (huart->Instance == USART1)
 80043fe:	4293      	cmp	r3, r2
 8004400:	d156      	bne.n	80044b0 <HAL_UART_RxCpltCallback+0xb8>
    {
		rx_byte = buffer;
 8004402:	4b36      	ldr	r3, [pc, #216]	; (80044dc <HAL_UART_RxCpltCallback+0xe4>)

		//Timer has signaled a start flag.
		//We can start to capture data.
		if (start_flag)
 8004404:	4d36      	ldr	r5, [pc, #216]	; (80044e0 <HAL_UART_RxCpltCallback+0xe8>)
		rx_byte = buffer;
 8004406:	781b      	ldrb	r3, [r3, #0]
 8004408:	4c36      	ldr	r4, [pc, #216]	; (80044e4 <HAL_UART_RxCpltCallback+0xec>)
 800440a:	f88d 3007 	strb.w	r3, [sp, #7]
		if (start_flag)
 800440e:	782b      	ldrb	r3, [r5, #0]
 8004410:	b36b      	cbz	r3, 800446e <HAL_UART_RxCpltCallback+0x76>
		{
			//On every incoming start packet we invert the LED to signal incoming data
			msg_cnt++;
 8004412:	4a35      	ldr	r2, [pc, #212]	; (80044e8 <HAL_UART_RxCpltCallback+0xf0>)
 8004414:	7813      	ldrb	r3, [r2, #0]
 8004416:	3301      	adds	r3, #1
 8004418:	b2db      	uxtb	r3, r3
 800441a:	7013      	strb	r3, [r2, #0]
			if (msg_cnt == 44)
 800441c:	7813      	ldrb	r3, [r2, #0]
 800441e:	2b2c      	cmp	r3, #44	; 0x2c
 8004420:	d10d      	bne.n	800443e <HAL_UART_RxCpltCallback+0x46>
			{
				msg_cnt = 0;
 8004422:	2300      	movs	r3, #0
 8004424:	7013      	strb	r3, [r2, #0]
				led_status =!led_status;
 8004426:	4a31      	ldr	r2, [pc, #196]	; (80044ec <HAL_UART_RxCpltCallback+0xf4>)
				HAL_GPIO_WritePin(LED_GPIO_Port, LED_Pin, led_status);
 8004428:	f44f 5100 	mov.w	r1, #8192	; 0x2000
				led_status =!led_status;
 800442c:	7813      	ldrb	r3, [r2, #0]
				HAL_GPIO_WritePin(LED_GPIO_Port, LED_Pin, led_status);
 800442e:	4830      	ldr	r0, [pc, #192]	; (80044f0 <HAL_UART_RxCpltCallback+0xf8>)
				led_status =!led_status;
 8004430:	fab3 f383 	clz	r3, r3
 8004434:	095b      	lsrs	r3, r3, #5
 8004436:	7013      	strb	r3, [r2, #0]
				HAL_GPIO_WritePin(LED_GPIO_Port, LED_Pin, led_status);
 8004438:	7812      	ldrb	r2, [r2, #0]
 800443a:	f7fd fcd9 	bl	8001df0 <HAL_GPIO_WritePin>
			}

			//Reset Variables
			dmx_error = 0;
 800443e:	2300      	movs	r3, #0
 8004440:	492c      	ldr	r1, [pc, #176]	; (80044f4 <HAL_UART_RxCpltCallback+0xfc>)
 8004442:	700b      	strb	r3, [r1, #0]
			byte_count = 0;
 8004444:	8023      	strh	r3, [r4, #0]
			start_flag = 0;
 8004446:	702b      	strb	r3, [r5, #0]

			/* first byte determines packet type */
			switch (rx_byte)
 8004448:	f89d 2007 	ldrb.w	r2, [sp, #7]
 800444c:	f002 03ff 	and.w	r3, r2, #255	; 0xff
 8004450:	b15a      	cbz	r2, 800446a <HAL_UART_RxCpltCallback+0x72>
 8004452:	2b17      	cmp	r3, #23
 8004454:	f04f 0201 	mov.w	r2, #1
 8004458:	d027      	beq.n	80044aa <HAL_UART_RxCpltCallback+0xb2>
			case 0x17:
				packet_type = TEST_PACKET;
				break;
			default:
				//Anything else we declare an error....
				dmx_error = 1;
 800445a:	700a      	strb	r2, [r1, #0]
		}
		//Increase Counter
		byte_count++;

		//Get more data
		HAL_UART_Receive_IT(&huart1, &buffer, 1);
 800445c:	491f      	ldr	r1, [pc, #124]	; (80044dc <HAL_UART_RxCpltCallback+0xe4>)
 800445e:	4826      	ldr	r0, [pc, #152]	; (80044f8 <HAL_UART_RxCpltCallback+0x100>)

		//Get more data
		HAL_UART_Receive_IT(&huart3, &buffer2, 1);
    }
#endif
}
 8004460:	b002      	add	sp, #8
 8004462:	e8bd 4070 	ldmia.w	sp!, {r4, r5, r6, lr}
		HAL_UART_Receive_IT(&huart3, &buffer2, 1);
 8004466:	f7ff b816 	b.w	8003496 <HAL_UART_Receive_IT>
				packet_type = DATA_PACKET;
 800446a:	4a24      	ldr	r2, [pc, #144]	; (80044fc <HAL_UART_RxCpltCallback+0x104>)
 800446c:	7013      	strb	r3, [r2, #0]
		if (packet_type == DATA_PACKET)
 800446e:	4b23      	ldr	r3, [pc, #140]	; (80044fc <HAL_UART_RxCpltCallback+0x104>)
 8004470:	781b      	ldrb	r3, [r3, #0]
 8004472:	b9a3      	cbnz	r3, 800449e <HAL_UART_RxCpltCallback+0xa6>
			if (byte_count >= start_addr && byte_count < start_addr + get_reg_length())
 8004474:	4d22      	ldr	r5, [pc, #136]	; (8004500 <HAL_UART_RxCpltCallback+0x108>)
 8004476:	8823      	ldrh	r3, [r4, #0]
 8004478:	682a      	ldr	r2, [r5, #0]
 800447a:	429a      	cmp	r2, r3
 800447c:	d80f      	bhi.n	800449e <HAL_UART_RxCpltCallback+0xa6>
 800447e:	8826      	ldrh	r6, [r4, #0]
 8004480:	f7ff ff40 	bl	8004304 <get_reg_length>
 8004484:	682b      	ldr	r3, [r5, #0]
 8004486:	b2b6      	uxth	r6, r6
 8004488:	4418      	add	r0, r3
 800448a:	4286      	cmp	r6, r0
 800448c:	d207      	bcs.n	800449e <HAL_UART_RxCpltCallback+0xa6>
				set_reg(byte_count - start_addr-1, rx_byte);
 800448e:	8820      	ldrh	r0, [r4, #0]
 8004490:	682b      	ldr	r3, [r5, #0]
 8004492:	f89d 1007 	ldrb.w	r1, [sp, #7]
 8004496:	1ac0      	subs	r0, r0, r3
 8004498:	3801      	subs	r0, #1
 800449a:	f7ff ff63 	bl	8004364 <set_reg>
		byte_count++;
 800449e:	8823      	ldrh	r3, [r4, #0]
		HAL_UART_Receive_IT(&huart1, &buffer, 1);
 80044a0:	2201      	movs	r2, #1
		byte_count++;
 80044a2:	3301      	adds	r3, #1
 80044a4:	b29b      	uxth	r3, r3
 80044a6:	8023      	strh	r3, [r4, #0]
 80044a8:	e7d8      	b.n	800445c <HAL_UART_RxCpltCallback+0x64>
				packet_type = TEST_PACKET;
 80044aa:	4b14      	ldr	r3, [pc, #80]	; (80044fc <HAL_UART_RxCpltCallback+0x104>)
 80044ac:	701a      	strb	r2, [r3, #0]
				break;
 80044ae:	e7de      	b.n	800446e <HAL_UART_RxCpltCallback+0x76>
	else if (huart->Instance == USART3)
 80044b0:	4a14      	ldr	r2, [pc, #80]	; (8004504 <HAL_UART_RxCpltCallback+0x10c>)
 80044b2:	4293      	cmp	r3, r2
 80044b4:	d10d      	bne.n	80044d2 <HAL_UART_RxCpltCallback+0xda>
		if (UART_mode_SERIAL)
 80044b6:	4b14      	ldr	r3, [pc, #80]	; (8004508 <HAL_UART_RxCpltCallback+0x110>)
			ring_buffer_put(&rx_buff_dmx, &buffer2, 1);
 80044b8:	2201      	movs	r2, #1
		if (UART_mode_SERIAL)
 80044ba:	781b      	ldrb	r3, [r3, #0]
			ring_buffer_put(&rx_buff_dmx, &buffer2, 1);
 80044bc:	4913      	ldr	r1, [pc, #76]	; (800450c <HAL_UART_RxCpltCallback+0x114>)
		if (UART_mode_SERIAL)
 80044be:	b133      	cbz	r3, 80044ce <HAL_UART_RxCpltCallback+0xd6>
			ring_buffer_put(&rx_buff_dmx, &buffer2, 1);
 80044c0:	4813      	ldr	r0, [pc, #76]	; (8004510 <HAL_UART_RxCpltCallback+0x118>)
			ring_buffer_put(&rx_buff_shell, &buffer2, 1);
 80044c2:	f001 f8df 	bl	8005684 <ring_buffer_put>
		HAL_UART_Receive_IT(&huart3, &buffer2, 1);
 80044c6:	2201      	movs	r2, #1
 80044c8:	4910      	ldr	r1, [pc, #64]	; (800450c <HAL_UART_RxCpltCallback+0x114>)
 80044ca:	4812      	ldr	r0, [pc, #72]	; (8004514 <HAL_UART_RxCpltCallback+0x11c>)
 80044cc:	e7c8      	b.n	8004460 <HAL_UART_RxCpltCallback+0x68>
			ring_buffer_put(&rx_buff_shell, &buffer2, 1);
 80044ce:	4812      	ldr	r0, [pc, #72]	; (8004518 <HAL_UART_RxCpltCallback+0x120>)
 80044d0:	e7f7      	b.n	80044c2 <HAL_UART_RxCpltCallback+0xca>
}
 80044d2:	b002      	add	sp, #8
 80044d4:	bd70      	pop	{r4, r5, r6, pc}
 80044d6:	bf00      	nop
 80044d8:	40013800 	.word	0x40013800
 80044dc:	20000294 	.word	0x20000294
 80044e0:	200002a0 	.word	0x200002a0
 80044e4:	20000296 	.word	0x20000296
 80044e8:	20000299 	.word	0x20000299
 80044ec:	20000298 	.word	0x20000298
 80044f0:	40011000 	.word	0x40011000
 80044f4:	20000070 	.word	0x20000070
 80044f8:	200008b4 	.word	0x200008b4
 80044fc:	2000029a 	.word	0x2000029a
 8004500:	2000029c 	.word	0x2000029c
 8004504:	40004800 	.word	0x40004800
 8004508:	200002b0 	.word	0x200002b0
 800450c:	20000295 	.word	0x20000295
 8004510:	20000600 	.word	0x20000600
 8004514:	200007d8 	.word	0x200007d8
 8004518:	20000618 	.word	0x20000618

0800451c <dmx512_setRx>:
}



void dmx512_setRx(void)
{
 800451c:	b508      	push	{r3, lr}
	HAL_GPIO_WritePin(RS485_DIR_GPIO_Port, RS485_DIR_Pin, GPIO_PIN_RESET);
 800451e:	4805      	ldr	r0, [pc, #20]	; (8004534 <dmx512_setRx+0x18>)
 8004520:	2200      	movs	r2, #0
 8004522:	2180      	movs	r1, #128	; 0x80
 8004524:	f7fd fc64 	bl	8001df0 <HAL_GPIO_WritePin>
    HAL_HalfDuplex_EnableReceiver(&huart1);
}
 8004528:	e8bd 4008 	ldmia.w	sp!, {r3, lr}
    HAL_HalfDuplex_EnableReceiver(&huart1);
 800452c:	4802      	ldr	r0, [pc, #8]	; (8004538 <dmx512_setRx+0x1c>)
 800452e:	f7ff b8bf 	b.w	80036b0 <HAL_HalfDuplex_EnableReceiver>
 8004532:	bf00      	nop
 8004534:	40010c00 	.word	0x40010c00
 8004538:	200008b4 	.word	0x200008b4

0800453c <dmx512_rec_enable.part.0>:
{
	HAL_GPIO_WritePin(RS485_DIR_GPIO_Port, RS485_DIR_Pin, GPIO_PIN_SET);
	HAL_HalfDuplex_EnableTransmitter(&huart1);
}

void dmx512_rec_enable(uint8_t on)
 800453c:	b508      	push	{r3, lr}
{
	if (on)
	{
		//Determine Start Addr
		start_addr = get_addr();
 800453e:	f7ff fed5 	bl	80042ec <get_addr>
 8004542:	4b05      	ldr	r3, [pc, #20]	; (8004558 <dmx512_rec_enable.part.0+0x1c>)
 8004544:	6018      	str	r0, [r3, #0]

		//Set Receiver to input
		dmx512_setRx();
 8004546:	f7ff ffe9 	bl	800451c <dmx512_setRx>
		//Disable Timer
#ifdef USE_TIMER
		TIM_ITConfig(dmx512_config.tim, TIM_IT_CC1, DISABLE);
#endif
	}
}
 800454a:	e8bd 4008 	ldmia.w	sp!, {r3, lr}
    	HAL_UART_Receive_IT(&huart1, &buffer, 1);
 800454e:	2201      	movs	r2, #1
 8004550:	4902      	ldr	r1, [pc, #8]	; (800455c <dmx512_rec_enable.part.0+0x20>)
 8004552:	4803      	ldr	r0, [pc, #12]	; (8004560 <dmx512_rec_enable.part.0+0x24>)
 8004554:	f7fe bf9f 	b.w	8003496 <HAL_UART_Receive_IT>
 8004558:	2000029c 	.word	0x2000029c
 800455c:	20000294 	.word	0x20000294
 8004560:	200008b4 	.word	0x200008b4

08004564 <dmx512_rec_init>:
{
 8004564:	b508      	push	{r3, lr}
 8004566:	f7ff ffe9 	bl	800453c <dmx512_rec_enable.part.0>
}
 800456a:	e8bd 4008 	ldmia.w	sp!, {r3, lr}
	HAL_UART_Receive_IT(&huart3, &buffer2, 1);
 800456e:	2201      	movs	r2, #1
 8004570:	4901      	ldr	r1, [pc, #4]	; (8004578 <dmx512_rec_init+0x14>)
 8004572:	4802      	ldr	r0, [pc, #8]	; (800457c <dmx512_rec_init+0x18>)
 8004574:	f7fe bf8f 	b.w	8003496 <HAL_UART_Receive_IT>
 8004578:	20000295 	.word	0x20000295
 800457c:	200007d8 	.word	0x200007d8

08004580 <EE_LL_Format>:
 8004580:	b530      	push	{r4, r5, lr}
 8004582:	4604      	mov	r4, r0
 8004584:	02a4      	lsls	r4, r4, #10
 8004586:	b087      	sub	sp, #28
 8004588:	f044 6400 	orr.w	r4, r4, #134217728	; 0x8000000
 800458c:	460d      	mov	r5, r1
 800458e:	f7fd fa43 	bl	8001a18 <HAL_FLASH_Unlock>
 8004592:	2301      	movs	r3, #1
 8004594:	9404      	str	r4, [sp, #16]
 8004596:	2400      	movs	r4, #0
 8004598:	a901      	add	r1, sp, #4
 800459a:	a802      	add	r0, sp, #8
 800459c:	9505      	str	r5, [sp, #20]
 800459e:	9303      	str	r3, [sp, #12]
 80045a0:	9402      	str	r4, [sp, #8]
 80045a2:	f7fd faf3 	bl	8001b8c <HAL_FLASHEx_Erase>
 80045a6:	b938      	cbnz	r0, 80045b8 <EE_LL_Format+0x38>
 80045a8:	f7fd fa48 	bl	8001a3c <HAL_FLASH_Lock>
 80045ac:	9801      	ldr	r0, [sp, #4]
 80045ae:	1c43      	adds	r3, r0, #1
 80045b0:	4258      	negs	r0, r3
 80045b2:	4158      	adcs	r0, r3
 80045b4:	b007      	add	sp, #28
 80045b6:	bd30      	pop	{r4, r5, pc}
 80045b8:	f7fd fa40 	bl	8001a3c <HAL_FLASH_Lock>
 80045bc:	4620      	mov	r0, r4
 80045be:	e7f9      	b.n	80045b4 <EE_LL_Format+0x34>

080045c0 <EE_LL_Read>:
 80045c0:	0280      	lsls	r0, r0, #10
 80045c2:	b510      	push	{r4, lr}
 80045c4:	f040 6000 	orr.w	r0, r0, #134217728	; 0x8000000
 80045c8:	1acc      	subs	r4, r1, r3
 80045ca:	440a      	add	r2, r1
 80045cc:	1919      	adds	r1, r3, r4
 80045ce:	b289      	uxth	r1, r1
 80045d0:	4291      	cmp	r1, r2
 80045d2:	db01      	blt.n	80045d8 <EE_LL_Read+0x18>
 80045d4:	2001      	movs	r0, #1
 80045d6:	bd10      	pop	{r4, pc}
 80045d8:	5c09      	ldrb	r1, [r1, r0]
 80045da:	f803 1b01 	strb.w	r1, [r3], #1
 80045de:	e7f5      	b.n	80045cc <EE_LL_Read+0xc>

080045e0 <EE_Format>:
 80045e0:	2101      	movs	r1, #1
 80045e2:	207f      	movs	r0, #127	; 0x7f
 80045e4:	f7ff bfcc 	b.w	8004580 <EE_LL_Format>

080045e8 <EE_Reads>:
 80045e8:	4401      	add	r1, r0
 80045ea:	f5b1 7f80 	cmp.w	r1, #256	; 0x100
 80045ee:	dd0b      	ble.n	8004608 <EE_Reads+0x20>
 80045f0:	2000      	movs	r0, #0
 80045f2:	4770      	bx	lr
 80045f4:	0083      	lsls	r3, r0, #2
 80045f6:	f103 6300 	add.w	r3, r3, #134217728	; 0x8000000
 80045fa:	f503 33fe 	add.w	r3, r3, #130048	; 0x1fc00
 80045fe:	681b      	ldr	r3, [r3, #0]
 8004600:	3001      	adds	r0, #1
 8004602:	f842 3b04 	str.w	r3, [r2], #4
 8004606:	b280      	uxth	r0, r0
 8004608:	4281      	cmp	r1, r0
 800460a:	dcf3      	bgt.n	80045f4 <EE_Reads+0xc>
 800460c:	2001      	movs	r0, #1
 800460e:	4770      	bx	lr

08004610 <EE_Writes>:
 8004610:	4401      	add	r1, r0
 8004612:	f5b1 7f80 	cmp.w	r1, #256	; 0x100
 8004616:	b5f8      	push	{r3, r4, r5, r6, r7, lr}
 8004618:	4616      	mov	r6, r2
 800461a:	dd02      	ble.n	8004622 <EE_Writes+0x12>
 800461c:	2400      	movs	r4, #0
 800461e:	4620      	mov	r0, r4
 8004620:	bdf8      	pop	{r3, r4, r5, r6, r7, pc}
 8004622:	f7ff ffdd 	bl	80045e0 <EE_Format>
 8004626:	4604      	mov	r4, r0
 8004628:	2800      	cmp	r0, #0
 800462a:	d0f7      	beq.n	800461c <EE_Writes+0xc>
 800462c:	f7fd f9f4 	bl	8001a18 <HAL_FLASH_Unlock>
 8004630:	4d09      	ldr	r5, [pc, #36]	; (8004658 <EE_Writes+0x48>)
 8004632:	4f0a      	ldr	r7, [pc, #40]	; (800465c <EE_Writes+0x4c>)
 8004634:	3e04      	subs	r6, #4
 8004636:	f856 2f04 	ldr.w	r2, [r6, #4]!
 800463a:	2300      	movs	r3, #0
 800463c:	4629      	mov	r1, r5
 800463e:	2002      	movs	r0, #2
 8004640:	f7fd fa30 	bl	8001aa4 <HAL_FLASH_Program>
 8004644:	b110      	cbz	r0, 800464c <EE_Writes+0x3c>
 8004646:	f7fd f9f9 	bl	8001a3c <HAL_FLASH_Lock>
 800464a:	e7e7      	b.n	800461c <EE_Writes+0xc>
 800464c:	3504      	adds	r5, #4
 800464e:	42bd      	cmp	r5, r7
 8004650:	d1f1      	bne.n	8004636 <EE_Writes+0x26>
 8004652:	f7fd f9f3 	bl	8001a3c <HAL_FLASH_Lock>
 8004656:	e7e2      	b.n	800461e <EE_Writes+0xe>
 8004658:	0801fc00 	.word	0x0801fc00
 800465c:	08020000 	.word	0x08020000

08004660 <init_fx_list>:
 8004660:	2300      	movs	r3, #0
 8004662:	4a04      	ldr	r2, [pc, #16]	; (8004674 <init_fx_list+0x14>)
 8004664:	4904      	ldr	r1, [pc, #16]	; (8004678 <init_fx_list+0x18>)
 8004666:	f842 1023 	str.w	r1, [r2, r3, lsl #2]
 800466a:	3301      	adds	r3, #1
 800466c:	2b40      	cmp	r3, #64	; 0x40
 800466e:	d1fa      	bne.n	8004666 <init_fx_list+0x6>
 8004670:	4770      	bx	lr
 8004672:	bf00      	nop
 8004674:	20000630 	.word	0x20000630
 8004678:	0800a1ec 	.word	0x0800a1ec

0800467c <register_fx>:
 800467c:	b510      	push	{r4, lr}
 800467e:	4a0e      	ldr	r2, [pc, #56]	; (80046b8 <register_fx+0x3c>)
 8004680:	b9c1      	cbnz	r1, 80046b4 <register_fx+0x38>
 8004682:	2301      	movs	r3, #1
 8004684:	f852 1023 	ldr.w	r1, [r2, r3, lsl #2]
 8004688:	b2dc      	uxtb	r4, r3
 800468a:	6909      	ldr	r1, [r1, #16]
 800468c:	b141      	cbz	r1, 80046a0 <register_fx+0x24>
 800468e:	3301      	adds	r3, #1
 8004690:	2b40      	cmp	r3, #64	; 0x40
 8004692:	d1f7      	bne.n	8004684 <register_fx+0x8>
 8004694:	4809      	ldr	r0, [pc, #36]	; (80046bc <register_fx+0x40>)
 8004696:	f001 fb95 	bl	8005dc4 <print>
 800469a:	2400      	movs	r4, #0
 800469c:	4620      	mov	r0, r4
 800469e:	bd10      	pop	{r4, pc}
 80046a0:	2c3f      	cmp	r4, #63	; 0x3f
 80046a2:	d0f7      	beq.n	8004694 <register_fx+0x18>
 80046a4:	f842 0024 	str.w	r0, [r2, r4, lsl #2]
 80046a8:	4621      	mov	r1, r4
 80046aa:	1cc2      	adds	r2, r0, #3
 80046ac:	4804      	ldr	r0, [pc, #16]	; (80046c0 <register_fx+0x44>)
 80046ae:	f001 fb89 	bl	8005dc4 <print>
 80046b2:	e7f3      	b.n	800469c <register_fx+0x20>
 80046b4:	460c      	mov	r4, r1
 80046b6:	e7f5      	b.n	80046a4 <register_fx+0x28>
 80046b8:	20000630 	.word	0x20000630
 80046bc:	0800a200 	.word	0x0800a200
 80046c0:	0800a20e 	.word	0x0800a20e

080046c4 <fx_install>:
 80046c4:	b508      	push	{r3, lr}
 80046c6:	2000      	movs	r0, #0
 80046c8:	f002 fb78 	bl	8006dbc <fx_pwm_running_light>
 80046cc:	2000      	movs	r0, #0
 80046ce:	f002 fb7b 	bl	8006dc8 <fx_pwm_running_pulse_light>
 80046d2:	2000      	movs	r0, #0
 80046d4:	f002 fb06 	bl	8006ce4 <fx_pwm_pulsing_light>
 80046d8:	2000      	movs	r0, #0
 80046da:	f002 fb09 	bl	8006cf0 <fx_pwm_pulsing_pulse_light>
 80046de:	2000      	movs	r0, #0
 80046e0:	f002 fd2e 	bl	8007140 <fx_strip_running_light>
 80046e4:	2000      	movs	r0, #0
 80046e6:	f002 fc91 	bl	800700c <fx_strip_rainbow>
 80046ea:	e8bd 4008 	ldmia.w	sp!, {r3, lr}
 80046ee:	2000      	movs	r0, #0
 80046f0:	f002 bc14 	b.w	8006f1c <fx_strip_cylon>

080046f4 <install_fx>:
 80046f4:	f7ff bfe6 	b.w	80046c4 <fx_install>

080046f8 <start_fx>:
 80046f8:	e92d 41f0 	stmdb	sp!, {r4, r5, r6, r7, r8, lr}
 80046fc:	4c22      	ldr	r4, [pc, #136]	; (8004788 <start_fx+0x90>)
 80046fe:	4605      	mov	r5, r0
 8004700:	f854 3020 	ldr.w	r3, [r4, r0, lsl #2]
 8004704:	4e21      	ldr	r6, [pc, #132]	; (800478c <start_fx+0x94>)
 8004706:	691b      	ldr	r3, [r3, #16]
 8004708:	b903      	cbnz	r3, 800470c <start_fx+0x14>
 800470a:	bb70      	cbnz	r0, 800476a <start_fx+0x72>
 800470c:	4f20      	ldr	r7, [pc, #128]	; (8004790 <start_fx+0x98>)
 800470e:	783b      	ldrb	r3, [r7, #0]
 8004710:	2b03      	cmp	r3, #3
 8004712:	d011      	beq.n	8004738 <start_fx+0x40>
 8004714:	7833      	ldrb	r3, [r6, #0]
 8004716:	f854 1023 	ldr.w	r1, [r4, r3, lsl #2]
 800471a:	690b      	ldr	r3, [r1, #16]
 800471c:	b11b      	cbz	r3, 8004726 <start_fx+0x2e>
 800471e:	2200      	movs	r2, #0
 8004720:	68c9      	ldr	r1, [r1, #12]
 8004722:	2002      	movs	r0, #2
 8004724:	4798      	blx	r3
 8004726:	7831      	ldrb	r1, [r6, #0]
 8004728:	481a      	ldr	r0, [pc, #104]	; (8004794 <start_fx+0x9c>)
 800472a:	f854 2021 	ldr.w	r2, [r4, r1, lsl #2]
 800472e:	3203      	adds	r2, #3
 8004730:	f001 fb48 	bl	8005dc4 <print>
 8004734:	2303      	movs	r3, #3
 8004736:	703b      	strb	r3, [r7, #0]
 8004738:	2100      	movs	r1, #0
 800473a:	4b17      	ldr	r3, [pc, #92]	; (8004798 <start_fx+0xa0>)
 800473c:	f8df 8064 	ldr.w	r8, [pc, #100]	; 80047a4 <start_fx+0xac>
 8004740:	6019      	str	r1, [r3, #0]
 8004742:	7833      	ldrb	r3, [r6, #0]
 8004744:	7035      	strb	r5, [r6, #0]
 8004746:	f888 3000 	strb.w	r3, [r8]
 800474a:	b17d      	cbz	r5, 800476c <start_fx+0x74>
 800474c:	f854 3025 	ldr.w	r3, [r4, r5, lsl #2]
 8004750:	4608      	mov	r0, r1
 8004752:	e9d3 2503 	ldrd	r2, r5, [r3, #12]
 8004756:	47a8      	blx	r5
 8004758:	7831      	ldrb	r1, [r6, #0]
 800475a:	b950      	cbnz	r0, 8004772 <start_fx+0x7a>
 800475c:	f854 2021 	ldr.w	r2, [r4, r1, lsl #2]
 8004760:	7038      	strb	r0, [r7, #0]
 8004762:	3203      	adds	r2, #3
 8004764:	480d      	ldr	r0, [pc, #52]	; (800479c <start_fx+0xa4>)
 8004766:	f001 fb2d 	bl	8005dc4 <print>
 800476a:	7835      	ldrb	r5, [r6, #0]
 800476c:	4628      	mov	r0, r5
 800476e:	e8bd 81f0 	ldmia.w	sp!, {r4, r5, r6, r7, r8, pc}
 8004772:	f854 2021 	ldr.w	r2, [r4, r1, lsl #2]
 8004776:	480a      	ldr	r0, [pc, #40]	; (80047a0 <start_fx+0xa8>)
 8004778:	3203      	adds	r2, #3
 800477a:	f001 fb23 	bl	8005dc4 <print>
 800477e:	f898 3000 	ldrb.w	r3, [r8]
 8004782:	7033      	strb	r3, [r6, #0]
 8004784:	e7f1      	b.n	800476a <start_fx+0x72>
 8004786:	bf00      	nop
 8004788:	20000630 	.word	0x20000630
 800478c:	200002a1 	.word	0x200002a1
 8004790:	200002a2 	.word	0x200002a2
 8004794:	0800a21c 	.word	0x0800a21c
 8004798:	200002a4 	.word	0x200002a4
 800479c:	0800a237 	.word	0x0800a237
 80047a0:	0800a250 	.word	0x0800a250
 80047a4:	200002a8 	.word	0x200002a8

080047a8 <fx_done>:
 80047a8:	b570      	push	{r4, r5, r6, lr}
 80047aa:	4d10      	ldr	r5, [pc, #64]	; (80047ec <fx_done+0x44>)
 80047ac:	4c10      	ldr	r4, [pc, #64]	; (80047f0 <fx_done+0x48>)
 80047ae:	782b      	ldrb	r3, [r5, #0]
 80047b0:	2200      	movs	r2, #0
 80047b2:	f854 3023 	ldr.w	r3, [r4, r3, lsl #2]
 80047b6:	2002      	movs	r0, #2
 80047b8:	68d9      	ldr	r1, [r3, #12]
 80047ba:	691e      	ldr	r6, [r3, #16]
 80047bc:	47b0      	blx	r6
 80047be:	7829      	ldrb	r1, [r5, #0]
 80047c0:	480c      	ldr	r0, [pc, #48]	; (80047f4 <fx_done+0x4c>)
 80047c2:	f854 2021 	ldr.w	r2, [r4, r1, lsl #2]
 80047c6:	3203      	adds	r2, #3
 80047c8:	f001 fafc 	bl	8005dc4 <print>
 80047cc:	2203      	movs	r2, #3
 80047ce:	4b0a      	ldr	r3, [pc, #40]	; (80047f8 <fx_done+0x50>)
 80047d0:	701a      	strb	r2, [r3, #0]
 80047d2:	782b      	ldrb	r3, [r5, #0]
 80047d4:	f854 3023 	ldr.w	r3, [r4, r3, lsl #2]
 80047d8:	7898      	ldrb	r0, [r3, #2]
 80047da:	b118      	cbz	r0, 80047e4 <fx_done+0x3c>
 80047dc:	e8bd 4070 	ldmia.w	sp!, {r4, r5, r6, lr}
 80047e0:	f7ff bf8a 	b.w	80046f8 <start_fx>
 80047e4:	4b05      	ldr	r3, [pc, #20]	; (80047fc <fx_done+0x54>)
 80047e6:	7818      	ldrb	r0, [r3, #0]
 80047e8:	e7f8      	b.n	80047dc <fx_done+0x34>
 80047ea:	bf00      	nop
 80047ec:	200002a1 	.word	0x200002a1
 80047f0:	20000630 	.word	0x20000630
 80047f4:	0800a21c 	.word	0x0800a21c
 80047f8:	200002a2 	.word	0x200002a2
 80047fc:	200002a8 	.word	0x200002a8

08004800 <run_fx>:
 8004800:	b5f8      	push	{r3, r4, r5, r6, r7, lr}
 8004802:	4e17      	ldr	r6, [pc, #92]	; (8004860 <run_fx+0x60>)
 8004804:	7833      	ldrb	r3, [r6, #0]
 8004806:	b353      	cbz	r3, 800485e <run_fx+0x5e>
 8004808:	4f16      	ldr	r7, [pc, #88]	; (8004864 <run_fx+0x64>)
 800480a:	4c17      	ldr	r4, [pc, #92]	; (8004868 <run_fx+0x68>)
 800480c:	f857 3023 	ldr.w	r3, [r7, r3, lsl #2]
 8004810:	6821      	ldr	r1, [r4, #0]
 8004812:	7858      	ldrb	r0, [r3, #1]
 8004814:	68da      	ldr	r2, [r3, #12]
 8004816:	2801      	cmp	r0, #1
 8004818:	d105      	bne.n	8004826 <run_fx+0x26>
 800481a:	4291      	cmp	r1, r2
 800481c:	d10f      	bne.n	800483e <run_fx+0x3e>
 800481e:	e8bd 40f8 	ldmia.w	sp!, {r3, r4, r5, r6, r7, lr}
 8004822:	f7ff bfc1 	b.w	80047a8 <fx_done>
 8004826:	2802      	cmp	r0, #2
 8004828:	d109      	bne.n	800483e <run_fx+0x3e>
 800482a:	4291      	cmp	r1, r2
 800482c:	d107      	bne.n	800483e <run_fx+0x3e>
 800482e:	2500      	movs	r5, #0
 8004830:	691b      	ldr	r3, [r3, #16]
 8004832:	6025      	str	r5, [r4, #0]
 8004834:	462a      	mov	r2, r5
 8004836:	4628      	mov	r0, r5
 8004838:	4798      	blx	r3
 800483a:	4b0c      	ldr	r3, [pc, #48]	; (800486c <run_fx+0x6c>)
 800483c:	701d      	strb	r5, [r3, #0]
 800483e:	7833      	ldrb	r3, [r6, #0]
 8004840:	6821      	ldr	r1, [r4, #0]
 8004842:	f857 3023 	ldr.w	r3, [r7, r3, lsl #2]
 8004846:	2001      	movs	r0, #1
 8004848:	e9d3 2503 	ldrd	r2, r5, [r3, #12]
 800484c:	47a8      	blx	r5
 800484e:	2801      	cmp	r0, #1
 8004850:	d0e5      	beq.n	800481e <run_fx+0x1e>
 8004852:	2201      	movs	r2, #1
 8004854:	4b05      	ldr	r3, [pc, #20]	; (800486c <run_fx+0x6c>)
 8004856:	701a      	strb	r2, [r3, #0]
 8004858:	6823      	ldr	r3, [r4, #0]
 800485a:	4413      	add	r3, r2
 800485c:	6023      	str	r3, [r4, #0]
 800485e:	bdf8      	pop	{r3, r4, r5, r6, r7, pc}
 8004860:	200002a1 	.word	0x200002a1
 8004864:	20000630 	.word	0x20000630
 8004868:	200002a4 	.word	0x200002a4
 800486c:	200002a2 	.word	0x200002a2

08004870 <calc_gamma_val>:
 8004870:	b570      	push	{r4, r5, r6, lr}
 8004872:	460e      	mov	r6, r1
 8004874:	f7fc fa12 	bl	8000c9c <__aeabi_i2f>
 8004878:	491f      	ldr	r1, [pc, #124]	; (80048f8 <calc_gamma_val+0x88>)
 800487a:	f7fc fb17 	bl	8000eac <__aeabi_fdiv>
 800487e:	f7fb fdd3 	bl	8000428 <__aeabi_f2d>
 8004882:	4602      	mov	r2, r0
 8004884:	460b      	mov	r3, r1
 8004886:	2000      	movs	r0, #0
 8004888:	491c      	ldr	r1, [pc, #112]	; (80048fc <calc_gamma_val+0x8c>)
 800488a:	f7fb ff4f 	bl	800072c <__aeabi_ddiv>
 800488e:	4604      	mov	r4, r0
 8004890:	460d      	mov	r5, r1
 8004892:	4630      	mov	r0, r6
 8004894:	f7fc f9fe 	bl	8000c94 <__aeabi_ui2f>
 8004898:	f7fb fdc6 	bl	8000428 <__aeabi_f2d>
 800489c:	a314      	add	r3, pc, #80	; (adr r3, 80048f0 <calc_gamma_val+0x80>)
 800489e:	e9d3 2300 	ldrd	r2, r3, [r3]
 80048a2:	f7fb ff43 	bl	800072c <__aeabi_ddiv>
 80048a6:	4622      	mov	r2, r4
 80048a8:	462b      	mov	r3, r5
 80048aa:	f003 fc9f 	bl	80081ec <pow>
 80048ae:	a310      	add	r3, pc, #64	; (adr r3, 80048f0 <calc_gamma_val+0x80>)
 80048b0:	e9d3 2300 	ldrd	r2, r3, [r3]
 80048b4:	f7fb fe10 	bl	80004d8 <__aeabi_dmul>
 80048b8:	f7fc f8e6 	bl	8000a88 <__aeabi_d2f>
 80048bc:	f7fb fdb4 	bl	8000428 <__aeabi_f2d>
 80048c0:	f003 fc14 	bl	80080ec <round>
 80048c4:	f7fc f8e0 	bl	8000a88 <__aeabi_d2f>
 80048c8:	490d      	ldr	r1, [pc, #52]	; (8004900 <calc_gamma_val+0x90>)
 80048ca:	4604      	mov	r4, r0
 80048cc:	f7fc fbf6 	bl	80010bc <__aeabi_fcmpgt>
 80048d0:	b950      	cbnz	r0, 80048e8 <calc_gamma_val+0x78>
 80048d2:	2100      	movs	r1, #0
 80048d4:	4620      	mov	r0, r4
 80048d6:	f7fc fbd3 	bl	8001080 <__aeabi_fcmplt>
 80048da:	b100      	cbz	r0, 80048de <calc_gamma_val+0x6e>
 80048dc:	2400      	movs	r4, #0
 80048de:	4620      	mov	r0, r4
 80048e0:	f7fc fc1c 	bl	800111c <__aeabi_f2uiz>
 80048e4:	b2c0      	uxtb	r0, r0
 80048e6:	bd70      	pop	{r4, r5, r6, pc}
 80048e8:	4c05      	ldr	r4, [pc, #20]	; (8004900 <calc_gamma_val+0x90>)
 80048ea:	e7f8      	b.n	80048de <calc_gamma_val+0x6e>
 80048ec:	f3af 8000 	nop.w
 80048f0:	00000000 	.word	0x00000000
 80048f4:	406fe000 	.word	0x406fe000
 80048f8:	42c80000 	.word	0x42c80000
 80048fc:	3ff00000 	.word	0x3ff00000
 8004900:	437f0000 	.word	0x437f0000

08004904 <recalcGamma>:
 8004904:	e92d 4ff7 	stmdb	sp!, {r0, r1, r2, r4, r5, r6, r7, r8, r9, sl, fp, lr}
 8004908:	2101      	movs	r1, #1
 800490a:	207e      	movs	r0, #126	; 0x7e
 800490c:	f7ff fe38 	bl	8004580 <EE_LL_Format>
 8004910:	4681      	mov	r9, r0
 8004912:	2800      	cmp	r0, #0
 8004914:	d05e      	beq.n	80049d4 <recalcGamma+0xd0>
 8004916:	f7fd f87f 	bl	8001a18 <HAL_FLASH_Unlock>
 800491a:	2700      	movs	r7, #0
 800491c:	f8df 80e0 	ldr.w	r8, [pc, #224]	; 8004a00 <recalcGamma+0xfc>
 8004920:	b2fb      	uxtb	r3, r7
 8004922:	2b02      	cmp	r3, #2
 8004924:	d05a      	beq.n	80049dc <recalcGamma+0xd8>
 8004926:	2b03      	cmp	r3, #3
 8004928:	d05b      	beq.n	80049e2 <recalcGamma+0xde>
 800492a:	2b01      	cmp	r3, #1
 800492c:	bf14      	ite	ne
 800492e:	f9b8 503e 	ldrshne.w	r5, [r8, #62]	; 0x3e
 8004932:	f9b8 5044 	ldrsheq.w	r5, [r8, #68]	; 0x44
 8004936:	f04f 0a00 	mov.w	sl, #0
 800493a:	f507 2400 	add.w	r4, r7, #524288	; 0x80000
 800493e:	f504 74fc 	add.w	r4, r4, #504	; 0x1f8
 8004942:	0224      	lsls	r4, r4, #8
 8004944:	fa5f f68a 	uxtb.w	r6, sl
 8004948:	4631      	mov	r1, r6
 800494a:	4628      	mov	r0, r5
 800494c:	f7ff ff90 	bl	8004870 <calc_gamma_val>
 8004950:	1c71      	adds	r1, r6, #1
 8004952:	4683      	mov	fp, r0
 8004954:	b2c9      	uxtb	r1, r1
 8004956:	4628      	mov	r0, r5
 8004958:	f7ff ff8a 	bl	8004870 <calc_gamma_val>
 800495c:	fa5f fb8b 	uxtb.w	fp, fp
 8004960:	ea4f 231b 	mov.w	r3, fp, lsr #8
 8004964:	ea4f 620b 	mov.w	r2, fp, lsl #24
 8004968:	fa5f fb80 	uxtb.w	fp, r0
 800496c:	ea4f 400b 	mov.w	r0, fp, lsl #16
 8004970:	ea4f 411b 	mov.w	r1, fp, lsr #16
 8004974:	eb12 0b00 	adds.w	fp, r2, r0
 8004978:	eb43 0c01 	adc.w	ip, r3, r1
 800497c:	1cb1      	adds	r1, r6, #2
 800497e:	b2c9      	uxtb	r1, r1
 8004980:	4628      	mov	r0, r5
 8004982:	e9cd bc00 	strd	fp, ip, [sp]
 8004986:	f7ff ff73 	bl	8004870 <calc_gamma_val>
 800498a:	1cf1      	adds	r1, r6, #3
 800498c:	4683      	mov	fp, r0
 800498e:	b2c9      	uxtb	r1, r1
 8004990:	4628      	mov	r0, r5
 8004992:	f7ff ff6d 	bl	8004870 <calc_gamma_val>
 8004996:	2100      	movs	r1, #0
 8004998:	fa5f f28b 	uxtb.w	r2, fp
 800499c:	b2c0      	uxtb	r0, r0
 800499e:	ea4f 6c12 	mov.w	ip, r2, lsr #24
 80049a2:	ea4f 2b02 	mov.w	fp, r2, lsl #8
 80049a6:	e9dd 2300 	ldrd	r2, r3, [sp]
 80049aa:	1812      	adds	r2, r2, r0
 80049ac:	414b      	adcs	r3, r1
 80049ae:	f10a 0a04 	add.w	sl, sl, #4
 80049b2:	eb12 020b 	adds.w	r2, r2, fp
 80049b6:	fa1f f68a 	uxth.w	r6, sl
 80049ba:	eb43 030c 	adc.w	r3, r3, ip
 80049be:	4621      	mov	r1, r4
 80049c0:	2002      	movs	r0, #2
 80049c2:	fa0f fa86 	sxth.w	sl, r6
 80049c6:	f7fd f86d 	bl	8001aa4 <HAL_FLASH_Program>
 80049ca:	b168      	cbz	r0, 80049e8 <recalcGamma+0xe4>
 80049cc:	f7fd f836 	bl	8001a3c <HAL_FLASH_Lock>
 80049d0:	f04f 0900 	mov.w	r9, #0
 80049d4:	4648      	mov	r0, r9
 80049d6:	b003      	add	sp, #12
 80049d8:	e8bd 8ff0 	ldmia.w	sp!, {r4, r5, r6, r7, r8, r9, sl, fp, pc}
 80049dc:	f9b8 504a 	ldrsh.w	r5, [r8, #74]	; 0x4a
 80049e0:	e7a9      	b.n	8004936 <recalcGamma+0x32>
 80049e2:	f9b8 504c 	ldrsh.w	r5, [r8, #76]	; 0x4c
 80049e6:	e7a6      	b.n	8004936 <recalcGamma+0x32>
 80049e8:	f5b6 7f80 	cmp.w	r6, #256	; 0x100
 80049ec:	f104 0404 	add.w	r4, r4, #4
 80049f0:	d1a8      	bne.n	8004944 <recalcGamma+0x40>
 80049f2:	3701      	adds	r7, #1
 80049f4:	2f04      	cmp	r7, #4
 80049f6:	d193      	bne.n	8004920 <recalcGamma+0x1c>
 80049f8:	f7fd f820 	bl	8001a3c <HAL_FLASH_Lock>
 80049fc:	e7ea      	b.n	80049d4 <recalcGamma+0xd0>
 80049fe:	bf00      	nop
 8004a00:	20000730 	.word	0x20000730

08004a04 <getGamma>:
 8004a04:	b507      	push	{r0, r1, r2, lr}
 8004a06:	eb01 2100 	add.w	r1, r1, r0, lsl #8
 8004a0a:	f10d 0307 	add.w	r3, sp, #7
 8004a0e:	2201      	movs	r2, #1
 8004a10:	b289      	uxth	r1, r1
 8004a12:	207e      	movs	r0, #126	; 0x7e
 8004a14:	f7ff fdd4 	bl	80045c0 <EE_LL_Read>
 8004a18:	f89d 0007 	ldrb.w	r0, [sp, #7]
 8004a1c:	b003      	add	sp, #12
 8004a1e:	f85d fb04 	ldr.w	pc, [sp], #4
	...

08004a24 <get_mode_from_pins>:
#include <stm32f103xb.h>
#include <stm32f1xx.h>
#include <stm32f1xx_hal_gpio.h>

uint8_t get_mode_from_pins(void)
{
 8004a24:	b510      	push	{r4, lr}
	uint8_t mode = 0;
	if (GPIO_PIN_RESET == HAL_GPIO_ReadPin(MODE_0_GPIO_Port, MODE_0_Pin))
 8004a26:	f44f 4180 	mov.w	r1, #16384	; 0x4000
 8004a2a:	4808      	ldr	r0, [pc, #32]	; (8004a4c <get_mode_from_pins+0x28>)
 8004a2c:	f7fd f9da 	bl	8001de4 <HAL_GPIO_ReadPin>
	uint8_t mode = 0;
 8004a30:	fab0 f480 	clz	r4, r0
		mode = mode | 0x01;
	if (GPIO_PIN_RESET == HAL_GPIO_ReadPin(MODE_1_GPIO_Port, MODE_1_Pin))
 8004a34:	f44f 4100 	mov.w	r1, #32768	; 0x8000
 8004a38:	4804      	ldr	r0, [pc, #16]	; (8004a4c <get_mode_from_pins+0x28>)
	uint8_t mode = 0;
 8004a3a:	0964      	lsrs	r4, r4, #5
	if (GPIO_PIN_RESET == HAL_GPIO_ReadPin(MODE_1_GPIO_Port, MODE_1_Pin))
 8004a3c:	f7fd f9d2 	bl	8001de4 <HAL_GPIO_ReadPin>
 8004a40:	b908      	cbnz	r0, 8004a46 <get_mode_from_pins+0x22>
		mode = mode | 0x02;
 8004a42:	f044 0402 	orr.w	r4, r4, #2
	return mode;
}
 8004a46:	4620      	mov	r0, r4
 8004a48:	bd10      	pop	{r4, pc}
 8004a4a:	bf00      	nop
 8004a4c:	40011000 	.word	0x40011000

08004a50 <get_addr_from_pins>:

uint8_t get_addr_from_pins(void)
{
 8004a50:	b510      	push	{r4, lr}
	uint8_t addr = 0;
	if (GPIO_PIN_RESET == HAL_GPIO_ReadPin(ADDR_0_GPIO_Port, ADDR_0_Pin))
 8004a52:	f44f 4100 	mov.w	r1, #32768	; 0x8000
 8004a56:	481f      	ldr	r0, [pc, #124]	; (8004ad4 <get_addr_from_pins+0x84>)
 8004a58:	f7fd f9c4 	bl	8001de4 <HAL_GPIO_ReadPin>
	uint8_t addr = 0;
 8004a5c:	fab0 f480 	clz	r4, r0
		addr = addr | 0x01;
	if (GPIO_PIN_RESET == HAL_GPIO_ReadPin(ADDR_1_GPIO_Port, ADDR_1_Pin))
 8004a60:	2108      	movs	r1, #8
 8004a62:	481d      	ldr	r0, [pc, #116]	; (8004ad8 <get_addr_from_pins+0x88>)
	uint8_t addr = 0;
 8004a64:	0964      	lsrs	r4, r4, #5
	if (GPIO_PIN_RESET == HAL_GPIO_ReadPin(ADDR_1_GPIO_Port, ADDR_1_Pin))
 8004a66:	f7fd f9bd 	bl	8001de4 <HAL_GPIO_ReadPin>
 8004a6a:	b908      	cbnz	r0, 8004a70 <get_addr_from_pins+0x20>
		addr = addr | 0x02;
 8004a6c:	f044 0402 	orr.w	r4, r4, #2
	if (GPIO_PIN_RESET == HAL_GPIO_ReadPin(ADDR_2_GPIO_Port, ADDR_2_Pin))
 8004a70:	2110      	movs	r1, #16
 8004a72:	4819      	ldr	r0, [pc, #100]	; (8004ad8 <get_addr_from_pins+0x88>)
 8004a74:	f7fd f9b6 	bl	8001de4 <HAL_GPIO_ReadPin>
 8004a78:	b908      	cbnz	r0, 8004a7e <get_addr_from_pins+0x2e>
		addr = addr | 0x04;
 8004a7a:	f044 0404 	orr.w	r4, r4, #4
	if (GPIO_PIN_RESET == HAL_GPIO_ReadPin(ADDR_3_GPIO_Port, ADDR_3_Pin))
 8004a7e:	f44f 7180 	mov.w	r1, #256	; 0x100
 8004a82:	4815      	ldr	r0, [pc, #84]	; (8004ad8 <get_addr_from_pins+0x88>)
 8004a84:	f7fd f9ae 	bl	8001de4 <HAL_GPIO_ReadPin>
 8004a88:	b908      	cbnz	r0, 8004a8e <get_addr_from_pins+0x3e>
		addr = addr | 0x08;
 8004a8a:	f044 0408 	orr.w	r4, r4, #8
	if (GPIO_PIN_RESET == HAL_GPIO_ReadPin(ADDR_4_GPIO_Port, ADDR_4_Pin))
 8004a8e:	f44f 7100 	mov.w	r1, #512	; 0x200
 8004a92:	4811      	ldr	r0, [pc, #68]	; (8004ad8 <get_addr_from_pins+0x88>)
 8004a94:	f7fd f9a6 	bl	8001de4 <HAL_GPIO_ReadPin>
 8004a98:	b908      	cbnz	r0, 8004a9e <get_addr_from_pins+0x4e>
		addr = addr | 0x10;
 8004a9a:	f044 0410 	orr.w	r4, r4, #16
	if (GPIO_PIN_RESET == HAL_GPIO_ReadPin(ADDR_5_GPIO_Port, ADDR_5_Pin))
 8004a9e:	f44f 5180 	mov.w	r1, #4096	; 0x1000
 8004aa2:	480d      	ldr	r0, [pc, #52]	; (8004ad8 <get_addr_from_pins+0x88>)
 8004aa4:	f7fd f99e 	bl	8001de4 <HAL_GPIO_ReadPin>
 8004aa8:	b908      	cbnz	r0, 8004aae <get_addr_from_pins+0x5e>
		addr = addr | 0x20;
 8004aaa:	f044 0420 	orr.w	r4, r4, #32
	if (GPIO_PIN_RESET == HAL_GPIO_ReadPin(ADDR_6_GPIO_Port, ADDR_6_Pin))
 8004aae:	f44f 5100 	mov.w	r1, #8192	; 0x2000
 8004ab2:	4809      	ldr	r0, [pc, #36]	; (8004ad8 <get_addr_from_pins+0x88>)
 8004ab4:	f7fd f996 	bl	8001de4 <HAL_GPIO_ReadPin>
 8004ab8:	b908      	cbnz	r0, 8004abe <get_addr_from_pins+0x6e>
		addr = addr | 0x40;
 8004aba:	f044 0440 	orr.w	r4, r4, #64	; 0x40
	if (GPIO_PIN_RESET == HAL_GPIO_ReadPin(ADDR_7_GPIO_Port, ADDR_7_Pin))
 8004abe:	f44f 4180 	mov.w	r1, #16384	; 0x4000
 8004ac2:	4805      	ldr	r0, [pc, #20]	; (8004ad8 <get_addr_from_pins+0x88>)
 8004ac4:	f7fd f98e 	bl	8001de4 <HAL_GPIO_ReadPin>
 8004ac8:	b908      	cbnz	r0, 8004ace <get_addr_from_pins+0x7e>
		addr = addr | 0x80;
 8004aca:	f044 0480 	orr.w	r4, r4, #128	; 0x80
	return addr;
}
 8004ace:	4620      	mov	r0, r4
 8004ad0:	bd10      	pop	{r4, pc}
 8004ad2:	bf00      	nop
 8004ad4:	40010800 	.word	0x40010800
 8004ad8:	40010c00 	.word	0x40010c00

08004adc <check_button>:

uint8_t check_button(void)
{
 8004adc:	b508      	push	{r3, lr}
	if (GPIO_PIN_RESET == HAL_GPIO_ReadPin(BUTTON_GPIO_Port, BUTTON_Pin))
 8004ade:	2120      	movs	r1, #32
 8004ae0:	4803      	ldr	r0, [pc, #12]	; (8004af0 <check_button+0x14>)
 8004ae2:	f7fd f97f 	bl	8001de4 <HAL_GPIO_ReadPin>
		return 1;

	return 0;
}
 8004ae6:	fab0 f080 	clz	r0, r0
 8004aea:	0940      	lsrs	r0, r0, #5
 8004aec:	bd08      	pop	{r3, pc}
 8004aee:	bf00      	nop
 8004af0:	40010800 	.word	0x40010800

08004af4 <scale_value>:
 8004af4:	e92d 43f8 	stmdb	sp!, {r3, r4, r5, r6, r7, r8, r9, lr}
 8004af8:	f240 4534 	movw	r5, #1076	; 0x434
 8004afc:	26ff      	movs	r6, #255	; 0xff
 8004afe:	4607      	mov	r7, r0
 8004b00:	4368      	muls	r0, r5
 8004b02:	fbb0 f4f6 	udiv	r4, r0, r6
 8004b06:	4698      	mov	r8, r3
 8004b08:	4b12      	ldr	r3, [pc, #72]	; (8004b54 <scale_value+0x60>)
 8004b0a:	4691      	mov	r9, r2
 8004b0c:	8818      	ldrh	r0, [r3, #0]
 8004b0e:	4360      	muls	r0, r4
 8004b10:	fbb0 f0f5 	udiv	r0, r0, r5
 8004b14:	1a40      	subs	r0, r0, r1
 8004b16:	f7fc f8c1 	bl	8000c9c <__aeabi_i2f>
 8004b1a:	4604      	mov	r4, r0
 8004b1c:	4648      	mov	r0, r9
 8004b1e:	f7fc f8bd 	bl	8000c9c <__aeabi_i2f>
 8004b22:	4601      	mov	r1, r0
 8004b24:	4620      	mov	r0, r4
 8004b26:	f7fc f90d 	bl	8000d44 <__aeabi_fmul>
 8004b2a:	490b      	ldr	r1, [pc, #44]	; (8004b58 <scale_value+0x64>)
 8004b2c:	f7fc f9be 	bl	8000eac <__aeabi_fdiv>
 8004b30:	f7fc face 	bl	80010d0 <__aeabi_f2iz>
 8004b34:	4639      	mov	r1, r7
 8004b36:	b204      	sxth	r4, r0
 8004b38:	4640      	mov	r0, r8
 8004b3a:	f7ff ff63 	bl	8004a04 <getGamma>
 8004b3e:	4360      	muls	r0, r4
 8004b40:	fb90 f0f6 	sdiv	r0, r0, r6
 8004b44:	42a8      	cmp	r0, r5
 8004b46:	bfa8      	it	ge
 8004b48:	4628      	movge	r0, r5
 8004b4a:	ea20 70e0 	bic.w	r0, r0, r0, asr #31
 8004b4e:	b280      	uxth	r0, r0
 8004b50:	e8bd 83f8 	ldmia.w	sp!, {r3, r4, r5, r6, r7, r8, r9, pc}
 8004b54:	200002aa 	.word	0x200002aa
 8004b58:	42c80000 	.word	0x42c80000

08004b5c <update_pwm_lights>:
 8004b5c:	b570      	push	{r4, r5, r6, lr}
 8004b5e:	4c9d      	ldr	r4, [pc, #628]	; (8004dd4 <update_pwm_lights+0x278>)
 8004b60:	4605      	mov	r5, r0
 8004b62:	6823      	ldr	r3, [r4, #0]
 8004b64:	2000      	movs	r0, #0
 8004b66:	781e      	ldrb	r6, [r3, #0]
 8004b68:	f7ff fc0a 	bl	8004380 <get_reg>
 8004b6c:	4286      	cmp	r6, r0
 8004b6e:	d100      	bne.n	8004b72 <update_pwm_lights+0x16>
 8004b70:	b185      	cbz	r5, 8004b94 <update_pwm_lights+0x38>
 8004b72:	2000      	movs	r0, #0
 8004b74:	f7ff fc04 	bl	8004380 <get_reg>
 8004b78:	f240 4334 	movw	r3, #1076	; 0x434
 8004b7c:	4358      	muls	r0, r3
 8004b7e:	23ff      	movs	r3, #255	; 0xff
 8004b80:	fbb0 f0f3 	udiv	r0, r0, r3
 8004b84:	4b94      	ldr	r3, [pc, #592]	; (8004dd8 <update_pwm_lights+0x27c>)
 8004b86:	6825      	ldr	r5, [r4, #0]
 8004b88:	8018      	strh	r0, [r3, #0]
 8004b8a:	2000      	movs	r0, #0
 8004b8c:	f7ff fbf8 	bl	8004380 <get_reg>
 8004b90:	7028      	strb	r0, [r5, #0]
 8004b92:	2501      	movs	r5, #1
 8004b94:	6823      	ldr	r3, [r4, #0]
 8004b96:	2001      	movs	r0, #1
 8004b98:	785e      	ldrb	r6, [r3, #1]
 8004b9a:	f7ff fbf1 	bl	8004380 <get_reg>
 8004b9e:	4286      	cmp	r6, r0
 8004ba0:	d100      	bne.n	8004ba4 <update_pwm_lights+0x48>
 8004ba2:	b1a5      	cbz	r5, 8004bce <update_pwm_lights+0x72>
 8004ba4:	2001      	movs	r0, #1
 8004ba6:	f7ff fbeb 	bl	8004380 <get_reg>
 8004baa:	498c      	ldr	r1, [pc, #560]	; (8004ddc <update_pwm_lights+0x280>)
 8004bac:	2300      	movs	r3, #0
 8004bae:	f9b1 203c 	ldrsh.w	r2, [r1, #60]	; 0x3c
 8004bb2:	f9b1 103a 	ldrsh.w	r1, [r1, #58]	; 0x3a
 8004bb6:	f7ff ff9d 	bl	8004af4 <scale_value>
 8004bba:	2100      	movs	r1, #0
 8004bbc:	4602      	mov	r2, r0
 8004bbe:	4608      	mov	r0, r1
 8004bc0:	f000 fcf8 	bl	80055b4 <configPWM>
 8004bc4:	2001      	movs	r0, #1
 8004bc6:	6826      	ldr	r6, [r4, #0]
 8004bc8:	f7ff fbda 	bl	8004380 <get_reg>
 8004bcc:	7070      	strb	r0, [r6, #1]
 8004bce:	6823      	ldr	r3, [r4, #0]
 8004bd0:	2002      	movs	r0, #2
 8004bd2:	789e      	ldrb	r6, [r3, #2]
 8004bd4:	f7ff fbd4 	bl	8004380 <get_reg>
 8004bd8:	4286      	cmp	r6, r0
 8004bda:	d100      	bne.n	8004bde <update_pwm_lights+0x82>
 8004bdc:	b1a5      	cbz	r5, 8004c08 <update_pwm_lights+0xac>
 8004bde:	2002      	movs	r0, #2
 8004be0:	f7ff fbce 	bl	8004380 <get_reg>
 8004be4:	497d      	ldr	r1, [pc, #500]	; (8004ddc <update_pwm_lights+0x280>)
 8004be6:	2301      	movs	r3, #1
 8004be8:	f9b1 2042 	ldrsh.w	r2, [r1, #66]	; 0x42
 8004bec:	f9b1 1040 	ldrsh.w	r1, [r1, #64]	; 0x40
 8004bf0:	f7ff ff80 	bl	8004af4 <scale_value>
 8004bf4:	2101      	movs	r1, #1
 8004bf6:	4602      	mov	r2, r0
 8004bf8:	2000      	movs	r0, #0
 8004bfa:	f000 fcdb 	bl	80055b4 <configPWM>
 8004bfe:	2002      	movs	r0, #2
 8004c00:	6826      	ldr	r6, [r4, #0]
 8004c02:	f7ff fbbd 	bl	8004380 <get_reg>
 8004c06:	70b0      	strb	r0, [r6, #2]
 8004c08:	6823      	ldr	r3, [r4, #0]
 8004c0a:	2003      	movs	r0, #3
 8004c0c:	78de      	ldrb	r6, [r3, #3]
 8004c0e:	f7ff fbb7 	bl	8004380 <get_reg>
 8004c12:	4286      	cmp	r6, r0
 8004c14:	d100      	bne.n	8004c18 <update_pwm_lights+0xbc>
 8004c16:	b1a5      	cbz	r5, 8004c42 <update_pwm_lights+0xe6>
 8004c18:	2003      	movs	r0, #3
 8004c1a:	f7ff fbb1 	bl	8004380 <get_reg>
 8004c1e:	496f      	ldr	r1, [pc, #444]	; (8004ddc <update_pwm_lights+0x280>)
 8004c20:	2302      	movs	r3, #2
 8004c22:	f9b1 2048 	ldrsh.w	r2, [r1, #72]	; 0x48
 8004c26:	f9b1 1046 	ldrsh.w	r1, [r1, #70]	; 0x46
 8004c2a:	f7ff ff63 	bl	8004af4 <scale_value>
 8004c2e:	2102      	movs	r1, #2
 8004c30:	4602      	mov	r2, r0
 8004c32:	2000      	movs	r0, #0
 8004c34:	f000 fcbe 	bl	80055b4 <configPWM>
 8004c38:	2003      	movs	r0, #3
 8004c3a:	6826      	ldr	r6, [r4, #0]
 8004c3c:	f7ff fba0 	bl	8004380 <get_reg>
 8004c40:	70f0      	strb	r0, [r6, #3]
 8004c42:	6823      	ldr	r3, [r4, #0]
 8004c44:	2004      	movs	r0, #4
 8004c46:	791e      	ldrb	r6, [r3, #4]
 8004c48:	f7ff fb9a 	bl	8004380 <get_reg>
 8004c4c:	4286      	cmp	r6, r0
 8004c4e:	d100      	bne.n	8004c52 <update_pwm_lights+0xf6>
 8004c50:	b1a5      	cbz	r5, 8004c7c <update_pwm_lights+0x120>
 8004c52:	2004      	movs	r0, #4
 8004c54:	f7ff fb94 	bl	8004380 <get_reg>
 8004c58:	4960      	ldr	r1, [pc, #384]	; (8004ddc <update_pwm_lights+0x280>)
 8004c5a:	2300      	movs	r3, #0
 8004c5c:	f9b1 203c 	ldrsh.w	r2, [r1, #60]	; 0x3c
 8004c60:	f9b1 103a 	ldrsh.w	r1, [r1, #58]	; 0x3a
 8004c64:	f7ff ff46 	bl	8004af4 <scale_value>
 8004c68:	2100      	movs	r1, #0
 8004c6a:	4602      	mov	r2, r0
 8004c6c:	2001      	movs	r0, #1
 8004c6e:	f000 fca1 	bl	80055b4 <configPWM>
 8004c72:	2004      	movs	r0, #4
 8004c74:	6826      	ldr	r6, [r4, #0]
 8004c76:	f7ff fb83 	bl	8004380 <get_reg>
 8004c7a:	7130      	strb	r0, [r6, #4]
 8004c7c:	6823      	ldr	r3, [r4, #0]
 8004c7e:	2005      	movs	r0, #5
 8004c80:	795e      	ldrb	r6, [r3, #5]
 8004c82:	f7ff fb7d 	bl	8004380 <get_reg>
 8004c86:	4286      	cmp	r6, r0
 8004c88:	d100      	bne.n	8004c8c <update_pwm_lights+0x130>
 8004c8a:	b1a5      	cbz	r5, 8004cb6 <update_pwm_lights+0x15a>
 8004c8c:	2005      	movs	r0, #5
 8004c8e:	f7ff fb77 	bl	8004380 <get_reg>
 8004c92:	4952      	ldr	r1, [pc, #328]	; (8004ddc <update_pwm_lights+0x280>)
 8004c94:	2301      	movs	r3, #1
 8004c96:	f9b1 2042 	ldrsh.w	r2, [r1, #66]	; 0x42
 8004c9a:	f9b1 1040 	ldrsh.w	r1, [r1, #64]	; 0x40
 8004c9e:	f7ff ff29 	bl	8004af4 <scale_value>
 8004ca2:	2101      	movs	r1, #1
 8004ca4:	4602      	mov	r2, r0
 8004ca6:	4608      	mov	r0, r1
 8004ca8:	f000 fc84 	bl	80055b4 <configPWM>
 8004cac:	2005      	movs	r0, #5
 8004cae:	6826      	ldr	r6, [r4, #0]
 8004cb0:	f7ff fb66 	bl	8004380 <get_reg>
 8004cb4:	7170      	strb	r0, [r6, #5]
 8004cb6:	6823      	ldr	r3, [r4, #0]
 8004cb8:	2006      	movs	r0, #6
 8004cba:	799e      	ldrb	r6, [r3, #6]
 8004cbc:	f7ff fb60 	bl	8004380 <get_reg>
 8004cc0:	4286      	cmp	r6, r0
 8004cc2:	d100      	bne.n	8004cc6 <update_pwm_lights+0x16a>
 8004cc4:	b1a5      	cbz	r5, 8004cf0 <update_pwm_lights+0x194>
 8004cc6:	2006      	movs	r0, #6
 8004cc8:	f7ff fb5a 	bl	8004380 <get_reg>
 8004ccc:	4943      	ldr	r1, [pc, #268]	; (8004ddc <update_pwm_lights+0x280>)
 8004cce:	2302      	movs	r3, #2
 8004cd0:	f9b1 2048 	ldrsh.w	r2, [r1, #72]	; 0x48
 8004cd4:	f9b1 1046 	ldrsh.w	r1, [r1, #70]	; 0x46
 8004cd8:	f7ff ff0c 	bl	8004af4 <scale_value>
 8004cdc:	2102      	movs	r1, #2
 8004cde:	4602      	mov	r2, r0
 8004ce0:	2001      	movs	r0, #1
 8004ce2:	f000 fc67 	bl	80055b4 <configPWM>
 8004ce6:	2006      	movs	r0, #6
 8004ce8:	6826      	ldr	r6, [r4, #0]
 8004cea:	f7ff fb49 	bl	8004380 <get_reg>
 8004cee:	71b0      	strb	r0, [r6, #6]
 8004cf0:	6823      	ldr	r3, [r4, #0]
 8004cf2:	2007      	movs	r0, #7
 8004cf4:	79de      	ldrb	r6, [r3, #7]
 8004cf6:	f7ff fb43 	bl	8004380 <get_reg>
 8004cfa:	4286      	cmp	r6, r0
 8004cfc:	d100      	bne.n	8004d00 <update_pwm_lights+0x1a4>
 8004cfe:	b1a5      	cbz	r5, 8004d2a <update_pwm_lights+0x1ce>
 8004d00:	2007      	movs	r0, #7
 8004d02:	f7ff fb3d 	bl	8004380 <get_reg>
 8004d06:	4935      	ldr	r1, [pc, #212]	; (8004ddc <update_pwm_lights+0x280>)
 8004d08:	2300      	movs	r3, #0
 8004d0a:	f9b1 203c 	ldrsh.w	r2, [r1, #60]	; 0x3c
 8004d0e:	f9b1 103a 	ldrsh.w	r1, [r1, #58]	; 0x3a
 8004d12:	f7ff feef 	bl	8004af4 <scale_value>
 8004d16:	2100      	movs	r1, #0
 8004d18:	4602      	mov	r2, r0
 8004d1a:	2002      	movs	r0, #2
 8004d1c:	f000 fc4a 	bl	80055b4 <configPWM>
 8004d20:	2007      	movs	r0, #7
 8004d22:	6826      	ldr	r6, [r4, #0]
 8004d24:	f7ff fb2c 	bl	8004380 <get_reg>
 8004d28:	71f0      	strb	r0, [r6, #7]
 8004d2a:	6823      	ldr	r3, [r4, #0]
 8004d2c:	2008      	movs	r0, #8
 8004d2e:	7a1e      	ldrb	r6, [r3, #8]
 8004d30:	f7ff fb26 	bl	8004380 <get_reg>
 8004d34:	4286      	cmp	r6, r0
 8004d36:	d100      	bne.n	8004d3a <update_pwm_lights+0x1de>
 8004d38:	b1a5      	cbz	r5, 8004d64 <update_pwm_lights+0x208>
 8004d3a:	2008      	movs	r0, #8
 8004d3c:	f7ff fb20 	bl	8004380 <get_reg>
 8004d40:	4926      	ldr	r1, [pc, #152]	; (8004ddc <update_pwm_lights+0x280>)
 8004d42:	2301      	movs	r3, #1
 8004d44:	f9b1 2042 	ldrsh.w	r2, [r1, #66]	; 0x42
 8004d48:	f9b1 1040 	ldrsh.w	r1, [r1, #64]	; 0x40
 8004d4c:	f7ff fed2 	bl	8004af4 <scale_value>
 8004d50:	2101      	movs	r1, #1
 8004d52:	4602      	mov	r2, r0
 8004d54:	2002      	movs	r0, #2
 8004d56:	f000 fc2d 	bl	80055b4 <configPWM>
 8004d5a:	2008      	movs	r0, #8
 8004d5c:	6826      	ldr	r6, [r4, #0]
 8004d5e:	f7ff fb0f 	bl	8004380 <get_reg>
 8004d62:	7230      	strb	r0, [r6, #8]
 8004d64:	6823      	ldr	r3, [r4, #0]
 8004d66:	2009      	movs	r0, #9
 8004d68:	7a5e      	ldrb	r6, [r3, #9]
 8004d6a:	f7ff fb09 	bl	8004380 <get_reg>
 8004d6e:	4286      	cmp	r6, r0
 8004d70:	d100      	bne.n	8004d74 <update_pwm_lights+0x218>
 8004d72:	b1a5      	cbz	r5, 8004d9e <update_pwm_lights+0x242>
 8004d74:	2009      	movs	r0, #9
 8004d76:	f7ff fb03 	bl	8004380 <get_reg>
 8004d7a:	4918      	ldr	r1, [pc, #96]	; (8004ddc <update_pwm_lights+0x280>)
 8004d7c:	2302      	movs	r3, #2
 8004d7e:	f9b1 2048 	ldrsh.w	r2, [r1, #72]	; 0x48
 8004d82:	f9b1 1046 	ldrsh.w	r1, [r1, #70]	; 0x46
 8004d86:	f7ff feb5 	bl	8004af4 <scale_value>
 8004d8a:	2102      	movs	r1, #2
 8004d8c:	4602      	mov	r2, r0
 8004d8e:	4608      	mov	r0, r1
 8004d90:	f000 fc10 	bl	80055b4 <configPWM>
 8004d94:	2009      	movs	r0, #9
 8004d96:	6826      	ldr	r6, [r4, #0]
 8004d98:	f7ff faf2 	bl	8004380 <get_reg>
 8004d9c:	7270      	strb	r0, [r6, #9]
 8004d9e:	6823      	ldr	r3, [r4, #0]
 8004da0:	200a      	movs	r0, #10
 8004da2:	7a9e      	ldrb	r6, [r3, #10]
 8004da4:	f7ff faec 	bl	8004380 <get_reg>
 8004da8:	4286      	cmp	r6, r0
 8004daa:	d100      	bne.n	8004dae <update_pwm_lights+0x252>
 8004dac:	b18d      	cbz	r5, 8004dd2 <update_pwm_lights+0x276>
 8004dae:	200a      	movs	r0, #10
 8004db0:	f7ff fae6 	bl	8004380 <get_reg>
 8004db4:	2303      	movs	r3, #3
 8004db6:	2264      	movs	r2, #100	; 0x64
 8004db8:	2100      	movs	r1, #0
 8004dba:	f7ff fe9b 	bl	8004af4 <scale_value>
 8004dbe:	2103      	movs	r1, #3
 8004dc0:	4602      	mov	r2, r0
 8004dc2:	2002      	movs	r0, #2
 8004dc4:	f000 fbf6 	bl	80055b4 <configPWM>
 8004dc8:	200a      	movs	r0, #10
 8004dca:	6824      	ldr	r4, [r4, #0]
 8004dcc:	f7ff fad8 	bl	8004380 <get_reg>
 8004dd0:	72a0      	strb	r0, [r4, #10]
 8004dd2:	bd70      	pop	{r4, r5, r6, pc}
 8004dd4:	200002ac 	.word	0x200002ac
 8004dd8:	200002aa 	.word	0x200002aa
 8004ddc:	20000730 	.word	0x20000730

08004de0 <init_update_lights>:
 8004de0:	b510      	push	{r4, lr}
 8004de2:	4c09      	ldr	r4, [pc, #36]	; (8004e08 <init_update_lights+0x28>)
 8004de4:	6820      	ldr	r0, [r4, #0]
 8004de6:	b108      	cbz	r0, 8004dec <init_update_lights+0xc>
 8004de8:	f002 fbf6 	bl	80075d8 <free>
 8004dec:	f7ff fa8a 	bl	8004304 <get_reg_length>
 8004df0:	2101      	movs	r1, #1
 8004df2:	4408      	add	r0, r1
 8004df4:	f002 fbb6 	bl	8007564 <calloc>
 8004df8:	23ff      	movs	r3, #255	; 0xff
 8004dfa:	7003      	strb	r3, [r0, #0]
 8004dfc:	6020      	str	r0, [r4, #0]
 8004dfe:	2001      	movs	r0, #1
 8004e00:	e8bd 4010 	ldmia.w	sp!, {r4, lr}
 8004e04:	f7ff beaa 	b.w	8004b5c <update_pwm_lights>
 8004e08:	200002ac 	.word	0x200002ac

08004e0c <update_fx>:
 8004e0c:	b538      	push	{r3, r4, r5, lr}
 8004e0e:	f7ff fa73 	bl	80042f8 <get_mode>
 8004e12:	2801      	cmp	r0, #1
 8004e14:	d116      	bne.n	8004e44 <update_fx+0x38>
 8004e16:	200b      	movs	r0, #11
 8004e18:	f7ff fab2 	bl	8004380 <get_reg>
 8004e1c:	4b0a      	ldr	r3, [pc, #40]	; (8004e48 <update_fx+0x3c>)
 8004e1e:	4d0b      	ldr	r5, [pc, #44]	; (8004e4c <update_fx+0x40>)
 8004e20:	f893 3025 	ldrb.w	r3, [r3, #37]	; 0x25
 8004e24:	fbb0 f0f3 	udiv	r0, r0, r3
 8004e28:	682b      	ldr	r3, [r5, #0]
 8004e2a:	b2c0      	uxtb	r0, r0
 8004e2c:	7adb      	ldrb	r3, [r3, #11]
 8004e2e:	4283      	cmp	r3, r0
 8004e30:	d008      	beq.n	8004e44 <update_fx+0x38>
 8004e32:	f7ff fc61 	bl	80046f8 <start_fx>
 8004e36:	4604      	mov	r4, r0
 8004e38:	4601      	mov	r1, r0
 8004e3a:	200b      	movs	r0, #11
 8004e3c:	f7ff fa92 	bl	8004364 <set_reg>
 8004e40:	682b      	ldr	r3, [r5, #0]
 8004e42:	72dc      	strb	r4, [r3, #11]
 8004e44:	bd38      	pop	{r3, r4, r5, pc}
 8004e46:	bf00      	nop
 8004e48:	20000730 	.word	0x20000730
 8004e4c:	200002ac 	.word	0x200002ac

08004e50 <SystemClock_Config>:
/**
  * @brief System Clock Configuration
  * @retval None
  */
void SystemClock_Config(void)
{
 8004e50:	b530      	push	{r4, r5, lr}
  RCC_OscInitTypeDef RCC_OscInitStruct = {0};
 8004e52:	2410      	movs	r4, #16
{
 8004e54:	b095      	sub	sp, #84	; 0x54
  RCC_OscInitTypeDef RCC_OscInitStruct = {0};
 8004e56:	4622      	mov	r2, r4
 8004e58:	2100      	movs	r1, #0
 8004e5a:	a80c      	add	r0, sp, #48	; 0x30
 8004e5c:	f002 fbcf 	bl	80075fe <memset>
  RCC_ClkInitTypeDef RCC_ClkInitStruct = {0};
 8004e60:	2214      	movs	r2, #20
 8004e62:	2100      	movs	r1, #0
 8004e64:	eb0d 0002 	add.w	r0, sp, r2
 8004e68:	f002 fbc9 	bl	80075fe <memset>
  RCC_PeriphCLKInitTypeDef PeriphClkInit = {0};
 8004e6c:	4622      	mov	r2, r4
 8004e6e:	2100      	movs	r1, #0
 8004e70:	a801      	add	r0, sp, #4
 8004e72:	f002 fbc4 	bl	80075fe <memset>
  RCC_OscInitStruct.OscillatorType = RCC_OSCILLATORTYPE_LSI|RCC_OSCILLATORTYPE_HSE;
  RCC_OscInitStruct.HSEState = RCC_HSE_ON;
  RCC_OscInitStruct.HSEPredivValue = RCC_HSE_PREDIV_DIV1;
  RCC_OscInitStruct.HSIState = RCC_HSI_ON;
  RCC_OscInitStruct.LSIState = RCC_LSI_ON;
  RCC_OscInitStruct.PLL.PLLState = RCC_PLL_ON;
 8004e76:	2502      	movs	r5, #2
  RCC_OscInitStruct.HSEState = RCC_HSE_ON;
 8004e78:	f44f 3380 	mov.w	r3, #65536	; 0x10000
 8004e7c:	2209      	movs	r2, #9
  RCC_OscInitStruct.PLL.PLLSource = RCC_PLLSOURCE_HSE;
 8004e7e:	e9cd 5311 	strd	r5, r3, [sp, #68]	; 0x44
  RCC_OscInitStruct.HSEState = RCC_HSE_ON;
 8004e82:	e9cd 230a 	strd	r2, r3, [sp, #40]	; 0x28
  RCC_OscInitStruct.HSIState = RCC_HSI_ON;
 8004e86:	2201      	movs	r2, #1
  RCC_OscInitStruct.PLL.PLLMUL = RCC_PLL_MUL9;
 8004e88:	f44f 13e0 	mov.w	r3, #1835008	; 0x1c0000
  if (HAL_RCC_OscConfig(&RCC_OscInitStruct) != HAL_OK)
 8004e8c:	a80a      	add	r0, sp, #40	; 0x28
  RCC_OscInitStruct.HSIState = RCC_HSI_ON;
 8004e8e:	920e      	str	r2, [sp, #56]	; 0x38
  RCC_OscInitStruct.LSIState = RCC_LSI_ON;
 8004e90:	9210      	str	r2, [sp, #64]	; 0x40
  RCC_OscInitStruct.PLL.PLLMUL = RCC_PLL_MUL9;
 8004e92:	9313      	str	r3, [sp, #76]	; 0x4c
  if (HAL_RCC_OscConfig(&RCC_OscInitStruct) != HAL_OK)
 8004e94:	f7fd faa4 	bl	80023e0 <HAL_RCC_OscConfig>
  {
    Error_Handler();
  }
  /** Initializes the CPU, AHB and APB busses clocks 
  */
  RCC_ClkInitStruct.ClockType = RCC_CLOCKTYPE_HCLK|RCC_CLOCKTYPE_SYSCLK
 8004e98:	230f      	movs	r3, #15
                              |RCC_CLOCKTYPE_PCLK1|RCC_CLOCKTYPE_PCLK2;
  RCC_ClkInitStruct.SYSCLKSource = RCC_SYSCLKSOURCE_PLLCLK;
  RCC_ClkInitStruct.AHBCLKDivider = RCC_SYSCLK_DIV1;
  RCC_ClkInitStruct.APB1CLKDivider = RCC_HCLK_DIV2;
 8004e9a:	2400      	movs	r4, #0
  RCC_ClkInitStruct.SYSCLKSource = RCC_SYSCLKSOURCE_PLLCLK;
 8004e9c:	e9cd 3505 	strd	r3, r5, [sp, #20]
  RCC_ClkInitStruct.APB1CLKDivider = RCC_HCLK_DIV2;
 8004ea0:	f44f 6380 	mov.w	r3, #1024	; 0x400
  RCC_ClkInitStruct.APB2CLKDivider = RCC_HCLK_DIV1;

  if (HAL_RCC_ClockConfig(&RCC_ClkInitStruct, FLASH_LATENCY_2) != HAL_OK)
 8004ea4:	4629      	mov	r1, r5
 8004ea6:	a805      	add	r0, sp, #20
  RCC_ClkInitStruct.APB1CLKDivider = RCC_HCLK_DIV2;
 8004ea8:	e9cd 4307 	strd	r4, r3, [sp, #28]
  RCC_ClkInitStruct.APB2CLKDivider = RCC_HCLK_DIV1;
 8004eac:	9409      	str	r4, [sp, #36]	; 0x24
  if (HAL_RCC_ClockConfig(&RCC_ClkInitStruct, FLASH_LATENCY_2) != HAL_OK)
 8004eae:	f7fd fc6f 	bl	8002790 <HAL_RCC_ClockConfig>
  {
    Error_Handler();
  }
  PeriphClkInit.PeriphClockSelection = RCC_PERIPHCLK_ADC|RCC_PERIPHCLK_USB;
 8004eb2:	2312      	movs	r3, #18
 8004eb4:	9301      	str	r3, [sp, #4]
  PeriphClkInit.AdcClockSelection = RCC_ADCPCLK2_DIV6;
 8004eb6:	f44f 4300 	mov.w	r3, #32768	; 0x8000
  PeriphClkInit.UsbClockSelection = RCC_USBCLKSOURCE_PLL_DIV1_5;
  if (HAL_RCCEx_PeriphCLKConfig(&PeriphClkInit) != HAL_OK)
 8004eba:	a801      	add	r0, sp, #4
  PeriphClkInit.UsbClockSelection = RCC_USBCLKSOURCE_PLL_DIV1_5;
 8004ebc:	e9cd 3403 	strd	r3, r4, [sp, #12]
  if (HAL_RCCEx_PeriphCLKConfig(&PeriphClkInit) != HAL_OK)
 8004ec0:	f7fd fd22 	bl	8002908 <HAL_RCCEx_PeriphCLKConfig>
  {
    Error_Handler();
  }
}
 8004ec4:	b015      	add	sp, #84	; 0x54
 8004ec6:	bd30      	pop	{r4, r5, pc}

08004ec8 <main>:
{
 8004ec8:	e92d 4ff0 	stmdb	sp!, {r4, r5, r6, r7, r8, r9, sl, fp, lr}
  * @param None
  * @retval None
  */
static void MX_GPIO_Init(void)
{
  GPIO_InitTypeDef GPIO_InitStruct = {0};
 8004ecc:	2400      	movs	r4, #0
{
 8004ece:	b08b      	sub	sp, #44	; 0x2c

  /* GPIO Ports Clock Enable */
  __HAL_RCC_GPIOC_CLK_ENABLE();
 8004ed0:	4dc3      	ldr	r5, [pc, #780]	; (80051e0 <main+0x318>)
  HAL_Init();
 8004ed2:	f7fc f967 	bl	80011a4 <HAL_Init>
  SystemClock_Config();
 8004ed6:	f7ff ffbb 	bl	8004e50 <SystemClock_Config>
  GPIO_InitTypeDef GPIO_InitStruct = {0};
 8004eda:	9408      	str	r4, [sp, #32]
  __HAL_RCC_GPIOC_CLK_ENABLE();
 8004edc:	69ab      	ldr	r3, [r5, #24]
  __HAL_RCC_GPIOA_CLK_ENABLE();
  __HAL_RCC_GPIOB_CLK_ENABLE();

  /*Configure GPIO pin Output Level */
  GPIO_InitStruct.Pin = RS485_DIR_Pin;
  GPIO_InitStruct.Mode = GPIO_MODE_OUTPUT_PP;
 8004ede:	2701      	movs	r7, #1
  GPIO_InitStruct.Speed = GPIO_SPEED_FREQ_LOW;
 8004ee0:	2602      	movs	r6, #2
  GPIO_InitStruct.Mode = GPIO_MODE_OUTPUT_PP;
 8004ee2:	f04f 0880 	mov.w	r8, #128	; 0x80
  __HAL_RCC_GPIOC_CLK_ENABLE();
 8004ee6:	f043 0310 	orr.w	r3, r3, #16
 8004eea:	61ab      	str	r3, [r5, #24]
 8004eec:	69ab      	ldr	r3, [r5, #24]
  HAL_GPIO_Init(RS485_DIR_GPIO_Port, &GPIO_InitStruct);
 8004eee:	a906      	add	r1, sp, #24
  __HAL_RCC_GPIOC_CLK_ENABLE();
 8004ef0:	f003 0310 	and.w	r3, r3, #16
 8004ef4:	9302      	str	r3, [sp, #8]
 8004ef6:	9b02      	ldr	r3, [sp, #8]
  __HAL_RCC_GPIOD_CLK_ENABLE();
 8004ef8:	69ab      	ldr	r3, [r5, #24]
  HAL_GPIO_Init(RS485_DIR_GPIO_Port, &GPIO_InitStruct);
 8004efa:	48ba      	ldr	r0, [pc, #744]	; (80051e4 <main+0x31c>)
  __HAL_RCC_GPIOD_CLK_ENABLE();
 8004efc:	f043 0320 	orr.w	r3, r3, #32
 8004f00:	61ab      	str	r3, [r5, #24]
 8004f02:	69ab      	ldr	r3, [r5, #24]
  GPIO_InitStruct.Pin = MODE_0_Pin|MODE_1_Pin;
  GPIO_InitStruct.Mode = GPIO_MODE_INPUT;
  GPIO_InitStruct.Pull = GPIO_NOPULL;
  HAL_GPIO_Init(GPIOC, &GPIO_InitStruct);

  GPIO_InitStruct.Pin = LED_Pin;
 8004f04:	f44f 5900 	mov.w	r9, #8192	; 0x2000
  __HAL_RCC_GPIOD_CLK_ENABLE();
 8004f08:	f003 0320 	and.w	r3, r3, #32
 8004f0c:	9303      	str	r3, [sp, #12]
 8004f0e:	9b03      	ldr	r3, [sp, #12]
  __HAL_RCC_GPIOA_CLK_ENABLE();
 8004f10:	69ab      	ldr	r3, [r5, #24]
  /*Configure GPIO pins : CH1_R_Pin CH1_G_Pin CH1_B_Pin CH2_R_Pin 
                           CH2_G_Pin CH3_R_Pin CH3_G_Pin CH3_B_Pin */
  GPIO_InitStruct.Pin = CH1_R_Pin|CH1_G_Pin|CH1_B_Pin|CH2_R_Pin 
                          |CH2_G_Pin|CH3_R_Pin|CH3_G_Pin|CH3_B_Pin;
  GPIO_InitStruct.Mode = GPIO_MODE_AF_PP;
  GPIO_InitStruct.Speed = GPIO_SPEED_FREQ_HIGH;
 8004f12:	f04f 0a03 	mov.w	sl, #3
  __HAL_RCC_GPIOA_CLK_ENABLE();
 8004f16:	f043 0304 	orr.w	r3, r3, #4
 8004f1a:	61ab      	str	r3, [r5, #24]
 8004f1c:	69ab      	ldr	r3, [r5, #24]
  GPIO_InitStruct.Mode = GPIO_MODE_AF_PP;
  GPIO_InitStruct.Speed = GPIO_SPEED_FREQ_HIGH;
  HAL_GPIO_Init(GPIOB, &GPIO_InitStruct);

  /*Configure GPIO pins : BUTTON_Pin ADDR_0_Pin */
  GPIO_InitStruct.Pin = BUTTON_Pin|ADDR_0_Pin;
 8004f1e:	f248 0b20 	movw	fp, #32800	; 0x8020
  __HAL_RCC_GPIOA_CLK_ENABLE();
 8004f22:	f003 0304 	and.w	r3, r3, #4
 8004f26:	9304      	str	r3, [sp, #16]
 8004f28:	9b04      	ldr	r3, [sp, #16]
  __HAL_RCC_GPIOB_CLK_ENABLE();
 8004f2a:	69ab      	ldr	r3, [r5, #24]
 8004f2c:	f043 0308 	orr.w	r3, r3, #8
 8004f30:	61ab      	str	r3, [r5, #24]
 8004f32:	69ab      	ldr	r3, [r5, #24]
  GPIO_InitStruct.Mode = GPIO_MODE_OUTPUT_PP;
 8004f34:	e9cd 8706 	strd	r8, r7, [sp, #24]
  __HAL_RCC_GPIOB_CLK_ENABLE();
 8004f38:	f003 0308 	and.w	r3, r3, #8
 8004f3c:	9305      	str	r3, [sp, #20]
 8004f3e:	9b05      	ldr	r3, [sp, #20]
  GPIO_InitStruct.Speed = GPIO_SPEED_FREQ_LOW;
 8004f40:	9609      	str	r6, [sp, #36]	; 0x24
  HAL_GPIO_Init(RS485_DIR_GPIO_Port, &GPIO_InitStruct);
 8004f42:	f7fc fe6f 	bl	8001c24 <HAL_GPIO_Init>
  HAL_GPIO_WritePin(RS485_DIR_GPIO_Port, RS485_DIR_Pin, GPIO_PIN_RESET);
 8004f46:	4622      	mov	r2, r4
 8004f48:	4641      	mov	r1, r8
 8004f4a:	48a6      	ldr	r0, [pc, #664]	; (80051e4 <main+0x31c>)
 8004f4c:	f7fc ff50 	bl	8001df0 <HAL_GPIO_WritePin>
  GPIO_InitStruct.Pin = MODE_0_Pin|MODE_1_Pin;
 8004f50:	f44f 4340 	mov.w	r3, #49152	; 0xc000
  HAL_GPIO_Init(GPIOC, &GPIO_InitStruct);
 8004f54:	a906      	add	r1, sp, #24
 8004f56:	48a4      	ldr	r0, [pc, #656]	; (80051e8 <main+0x320>)
  GPIO_InitStruct.Mode = GPIO_MODE_INPUT;
 8004f58:	e9cd 3406 	strd	r3, r4, [sp, #24]
  GPIO_InitStruct.Pull = GPIO_NOPULL;
 8004f5c:	9408      	str	r4, [sp, #32]
  HAL_GPIO_Init(GPIOC, &GPIO_InitStruct);
 8004f5e:	f7fc fe61 	bl	8001c24 <HAL_GPIO_Init>
  HAL_GPIO_Init(GPIOC, &GPIO_InitStruct);
 8004f62:	a906      	add	r1, sp, #24
 8004f64:	48a0      	ldr	r0, [pc, #640]	; (80051e8 <main+0x320>)
  GPIO_InitStruct.Mode = GPIO_MODE_OUTPUT_PP;
 8004f66:	e9cd 9706 	strd	r9, r7, [sp, #24]
  GPIO_InitStruct.Speed = GPIO_SPEED_FREQ_LOW;
 8004f6a:	9609      	str	r6, [sp, #36]	; 0x24
  HAL_GPIO_Init(GPIOC, &GPIO_InitStruct);
 8004f6c:	f7fc fe5a 	bl	8001c24 <HAL_GPIO_Init>
  GPIO_InitStruct.Pin = CH1_R_Pin|CH1_G_Pin|CH1_B_Pin|CH2_R_Pin 
 8004f70:	f240 73ce 	movw	r3, #1998	; 0x7ce
  HAL_GPIO_Init(GPIOA, &GPIO_InitStruct);
 8004f74:	a906      	add	r1, sp, #24
 8004f76:	489d      	ldr	r0, [pc, #628]	; (80051ec <main+0x324>)
  GPIO_InitStruct.Mode = GPIO_MODE_AF_PP;
 8004f78:	e9cd 3606 	strd	r3, r6, [sp, #24]
  GPIO_InitStruct.Speed = GPIO_SPEED_FREQ_HIGH;
 8004f7c:	f8cd a024 	str.w	sl, [sp, #36]	; 0x24
  HAL_GPIO_Init(GPIOA, &GPIO_InitStruct);
 8004f80:	f7fc fe50 	bl	8001c24 <HAL_GPIO_Init>
  HAL_GPIO_Init(GPIOB, &GPIO_InitStruct);
 8004f84:	a906      	add	r1, sp, #24
 8004f86:	4897      	ldr	r0, [pc, #604]	; (80051e4 <main+0x31c>)
  GPIO_InitStruct.Mode = GPIO_MODE_AF_PP;
 8004f88:	e9cd a606 	strd	sl, r6, [sp, #24]
  GPIO_InitStruct.Speed = GPIO_SPEED_FREQ_HIGH;
 8004f8c:	f8cd a024 	str.w	sl, [sp, #36]	; 0x24
  HAL_GPIO_Init(GPIOB, &GPIO_InitStruct);
 8004f90:	f7fc fe48 	bl	8001c24 <HAL_GPIO_Init>
  GPIO_InitStruct.Mode = GPIO_MODE_INPUT;
  GPIO_InitStruct.Pull = GPIO_PULLUP;
  HAL_GPIO_Init(GPIOA, &GPIO_InitStruct);
 8004f94:	a906      	add	r1, sp, #24
 8004f96:	4895      	ldr	r0, [pc, #596]	; (80051ec <main+0x324>)
  GPIO_InitStruct.Mode = GPIO_MODE_INPUT;
 8004f98:	e9cd b406 	strd	fp, r4, [sp, #24]
  GPIO_InitStruct.Pull = GPIO_PULLUP;
 8004f9c:	9708      	str	r7, [sp, #32]
  HAL_GPIO_Init(GPIOA, &GPIO_InitStruct);
 8004f9e:	f7fc fe41 	bl	8001c24 <HAL_GPIO_Init>

  /*Configure GPIO pins : ADDR_5_Pin ADDR_6_Pin ADDR_7_Pin ADDR_1_Pin 
                           ADDR_2_Pin ADDR_3_Pin ADDR_4_Pin */
  GPIO_InitStruct.Pin = ADDR_5_Pin|ADDR_6_Pin|ADDR_7_Pin|ADDR_1_Pin 
 8004fa2:	f247 3318 	movw	r3, #29464	; 0x7318
                          |ADDR_2_Pin|ADDR_3_Pin|ADDR_4_Pin;
  GPIO_InitStruct.Mode = GPIO_MODE_INPUT;
  GPIO_InitStruct.Pull = GPIO_PULLUP;
  HAL_GPIO_Init(GPIOB, &GPIO_InitStruct);
 8004fa6:	a906      	add	r1, sp, #24
 8004fa8:	488e      	ldr	r0, [pc, #568]	; (80051e4 <main+0x31c>)
  GPIO_InitStruct.Mode = GPIO_MODE_INPUT;
 8004faa:	e9cd 3406 	strd	r3, r4, [sp, #24]
  GPIO_InitStruct.Pull = GPIO_PULLUP;
 8004fae:	9708      	str	r7, [sp, #32]
  HAL_GPIO_Init(GPIOB, &GPIO_InitStruct);
 8004fb0:	f7fc fe38 	bl	8001c24 <HAL_GPIO_Init>

  /*Configure GPIO pins : WS8212_CH2_Pin WS8212_CH1_Pin */
  GPIO_InitStruct.Pin = WS8212_CH2_Pin|WS8212_CH1_Pin;
  GPIO_InitStruct.Mode = GPIO_MODE_AF_PP;
  GPIO_InitStruct.Speed = GPIO_SPEED_FREQ_HIGH;
  HAL_GPIO_Init(GPIOB, &GPIO_InitStruct);
 8004fb4:	a906      	add	r1, sp, #24
 8004fb6:	488b      	ldr	r0, [pc, #556]	; (80051e4 <main+0x31c>)
  GPIO_InitStruct.Mode = GPIO_MODE_AF_PP;
 8004fb8:	e9cd b606 	strd	fp, r6, [sp, #24]
  GPIO_InitStruct.Speed = GPIO_SPEED_FREQ_HIGH;
 8004fbc:	f8cd a024 	str.w	sl, [sp, #36]	; 0x24
  HAL_GPIO_Init(GPIOB, &GPIO_InitStruct);
 8004fc0:	f7fc fe30 	bl	8001c24 <HAL_GPIO_Init>

  /*Configure GPIO pin : RS485_DIR_Pin */
  GPIO_InitStruct.Pin = RS232_TX_Pin;
 8004fc4:	f44f 6380 	mov.w	r3, #1024	; 0x400
  hadc1.Init.ExternalTrigConv = ADC_SOFTWARE_START;
 8004fc8:	f44f 2a60 	mov.w	sl, #917504	; 0xe0000
  GPIO_InitStruct.Mode = GPIO_MODE_OUTPUT_PP;
  GPIO_InitStruct.Pull = GPIO_NOPULL;
  GPIO_InitStruct.Speed = GPIO_SPEED_FREQ_LOW;
  HAL_GPIO_Init(RS485_DIR_GPIO_Port, &GPIO_InitStruct);
 8004fcc:	a906      	add	r1, sp, #24
 8004fce:	4885      	ldr	r0, [pc, #532]	; (80051e4 <main+0x31c>)
  GPIO_InitStruct.Mode = GPIO_MODE_OUTPUT_PP;
 8004fd0:	e9cd 3706 	strd	r3, r7, [sp, #24]
  GPIO_InitStruct.Speed = GPIO_SPEED_FREQ_LOW;
 8004fd4:	e9cd 4608 	strd	r4, r6, [sp, #32]
  HAL_GPIO_Init(RS485_DIR_GPIO_Port, &GPIO_InitStruct);
 8004fd8:	f7fc fe24 	bl	8001c24 <HAL_GPIO_Init>

  /*Configure peripheral I/O remapping */
  __HAL_AFIO_REMAP_SPI1_ENABLE();
 8004fdc:	4a84      	ldr	r2, [pc, #528]	; (80051f0 <main+0x328>)
  hadc1.Instance = ADC1;
 8004fde:	4e85      	ldr	r6, [pc, #532]	; (80051f4 <main+0x32c>)
  __HAL_AFIO_REMAP_SPI1_ENABLE();
 8004fe0:	6853      	ldr	r3, [r2, #4]
  HAL_GPIO_WritePin(LED_GPIO_Port, LED_Pin, GPIO_PIN_RESET);
 8004fe2:	4649      	mov	r1, r9
  __HAL_AFIO_REMAP_SPI1_ENABLE();
 8004fe4:	f043 63e0 	orr.w	r3, r3, #117440512	; 0x7000000
 8004fe8:	433b      	orrs	r3, r7
 8004fea:	6053      	str	r3, [r2, #4]
  HAL_GPIO_WritePin(LED_GPIO_Port, LED_Pin, GPIO_PIN_RESET);
 8004fec:	487e      	ldr	r0, [pc, #504]	; (80051e8 <main+0x320>)
 8004fee:	4622      	mov	r2, r4
 8004ff0:	f7fc fefe 	bl	8001df0 <HAL_GPIO_WritePin>
  hadc1.Instance = ADC1;
 8004ff4:	4b80      	ldr	r3, [pc, #512]	; (80051f8 <main+0x330>)
  if (HAL_ADC_Init(&hadc1) != HAL_OK)
 8004ff6:	4630      	mov	r0, r6
  hadc1.Instance = ADC1;
 8004ff8:	6033      	str	r3, [r6, #0]
  hadc1.Init.ScanConvMode = ADC_SCAN_DISABLE;
 8004ffa:	60b4      	str	r4, [r6, #8]
  hadc1.Init.ContinuousConvMode = DISABLE;
 8004ffc:	7334      	strb	r4, [r6, #12]
  hadc1.Init.DiscontinuousConvMode = DISABLE;
 8004ffe:	7534      	strb	r4, [r6, #20]
  hadc1.Init.DataAlign = ADC_DATAALIGN_RIGHT;
 8005000:	6074      	str	r4, [r6, #4]
  hadc1.Init.NbrOfConversion = 1;
 8005002:	6137      	str	r7, [r6, #16]
  ADC_ChannelConfTypeDef sConfig = {0};
 8005004:	e9cd 4406 	strd	r4, r4, [sp, #24]
 8005008:	9408      	str	r4, [sp, #32]
  hadc1.Init.ExternalTrigConv = ADC_SOFTWARE_START;
 800500a:	f8c6 a01c 	str.w	sl, [r6, #28]
  if (HAL_ADC_Init(&hadc1) != HAL_OK)
 800500e:	f7fc faa5 	bl	800155c <HAL_ADC_Init>
  if (HAL_ADC_ConfigChannel(&hadc1, &sConfig) != HAL_OK)
 8005012:	a906      	add	r1, sp, #24
 8005014:	4630      	mov	r0, r6
  hadc2.Instance = ADC2;
 8005016:	4e79      	ldr	r6, [pc, #484]	; (80051fc <main+0x334>)
  sConfig.Rank = ADC_REGULAR_RANK_1;
 8005018:	e9cd 4706 	strd	r4, r7, [sp, #24]
  sConfig.SamplingTime = ADC_SAMPLETIME_1CYCLE_5;
 800501c:	9408      	str	r4, [sp, #32]
  if (HAL_ADC_ConfigChannel(&hadc1, &sConfig) != HAL_OK)
 800501e:	f7fc f95f 	bl	80012e0 <HAL_ADC_ConfigChannel>
  hadc2.Instance = ADC2;
 8005022:	4b77      	ldr	r3, [pc, #476]	; (8005200 <main+0x338>)
  if (HAL_ADC_Init(&hadc2) != HAL_OK)
 8005024:	4630      	mov	r0, r6
  hadc2.Instance = ADC2;
 8005026:	6033      	str	r3, [r6, #0]
  hadc2.Init.ScanConvMode = ADC_SCAN_DISABLE;
 8005028:	60b4      	str	r4, [r6, #8]
  hadc2.Init.ContinuousConvMode = DISABLE;
 800502a:	7334      	strb	r4, [r6, #12]
  hadc2.Init.DiscontinuousConvMode = DISABLE;
 800502c:	7534      	strb	r4, [r6, #20]
  hadc2.Init.DataAlign = ADC_DATAALIGN_RIGHT;
 800502e:	6074      	str	r4, [r6, #4]
  hadc2.Init.NbrOfConversion = 1;
 8005030:	6137      	str	r7, [r6, #16]
  ADC_ChannelConfTypeDef sConfig = {0};
 8005032:	e9cd 4406 	strd	r4, r4, [sp, #24]
 8005036:	9408      	str	r4, [sp, #32]
  hadc2.Init.ExternalTrigConv = ADC_SOFTWARE_START;
 8005038:	f8c6 a01c 	str.w	sl, [r6, #28]
  if (HAL_ADC_Init(&hadc2) != HAL_OK)
 800503c:	f7fc fa8e 	bl	800155c <HAL_ADC_Init>
  sConfig.Channel = ADC_CHANNEL_4;
 8005040:	2304      	movs	r3, #4
  if (HAL_ADC_ConfigChannel(&hadc2, &sConfig) != HAL_OK)
 8005042:	4630      	mov	r0, r6
  huart1.Init.Mode = UART_MODE_TX_RX;
 8005044:	260c      	movs	r6, #12
  if (HAL_ADC_ConfigChannel(&hadc2, &sConfig) != HAL_OK)
 8005046:	a906      	add	r1, sp, #24
  sConfig.Rank = ADC_REGULAR_RANK_1;
 8005048:	e9cd 3706 	strd	r3, r7, [sp, #24]
  sConfig.SamplingTime = ADC_SAMPLETIME_1CYCLE_5;
 800504c:	9408      	str	r4, [sp, #32]
  if (HAL_ADC_ConfigChannel(&hadc2, &sConfig) != HAL_OK)
 800504e:	f7fc f947 	bl	80012e0 <HAL_ADC_ConfigChannel>
  huart1.Instance = USART1;
 8005052:	486c      	ldr	r0, [pc, #432]	; (8005204 <main+0x33c>)
  huart1.Init.BaudRate = 250000;
 8005054:	4b6c      	ldr	r3, [pc, #432]	; (8005208 <main+0x340>)
 8005056:	4a6d      	ldr	r2, [pc, #436]	; (800520c <main+0x344>)
  huart1.Init.StopBits = UART_STOPBITS_2;
 8005058:	e9c0 4902 	strd	r4, r9, [r0, #8]
  huart1.Init.BaudRate = 250000;
 800505c:	e9c0 2300 	strd	r2, r3, [r0]
  huart1.Init.HwFlowCtl = UART_HWCONTROL_NONE;
 8005060:	e9c0 6405 	strd	r6, r4, [r0, #20]
  huart1.Init.Parity = UART_PARITY_NONE;
 8005064:	6104      	str	r4, [r0, #16]
  huart1.Init.OverSampling = UART_OVERSAMPLING_16;
 8005066:	61c4      	str	r4, [r0, #28]
  if (HAL_HalfDuplex_Init(&huart1) != HAL_OK)
 8005068:	f7fe f98a 	bl	8003380 <HAL_HalfDuplex_Init>
  HAL_NVIC_SetPriority(USART1_IRQn, 0, 0);
 800506c:	4622      	mov	r2, r4
 800506e:	4621      	mov	r1, r4
 8005070:	2025      	movs	r0, #37	; 0x25
 8005072:	f7fc fb07 	bl	8001684 <HAL_NVIC_SetPriority>
  HAL_NVIC_EnableIRQ(USART1_IRQn);
 8005076:	2025      	movs	r0, #37	; 0x25
 8005078:	f7fc fb38 	bl	80016ec <HAL_NVIC_EnableIRQ>
  huart3.Init.BaudRate = 115200;
 800507c:	f44f 33e1 	mov.w	r3, #115200	; 0x1c200
  huart3.Instance = USART3;
 8005080:	4863      	ldr	r0, [pc, #396]	; (8005210 <main+0x348>)
  huart3.Init.BaudRate = 115200;
 8005082:	4964      	ldr	r1, [pc, #400]	; (8005214 <main+0x34c>)
  huart3.Init.Mode = UART_MODE_TX_RX;
 8005084:	e9c0 4604 	strd	r4, r6, [r0, #16]
  huart3.Init.BaudRate = 115200;
 8005088:	e9c0 1300 	strd	r1, r3, [r0]
  huart3.Init.StopBits = UART_STOPBITS_1;
 800508c:	e9c0 4402 	strd	r4, r4, [r0, #8]
  huart3.Init.OverSampling = UART_OVERSAMPLING_16;
 8005090:	e9c0 4406 	strd	r4, r4, [r0, #24]
  if (HAL_UART_Init(&huart3) != HAL_OK)
 8005094:	f7fe f946 	bl	8003324 <HAL_UART_Init>
 */
__STATIC_INLINE void __NVIC_EnableIRQ(IRQn_Type IRQn)
{
  if ((int32_t)(IRQn) >= 0)
  {
    NVIC->ISER[(((uint32_t)IRQn) >> 5UL)] = (uint32_t)(1UL << (((uint32_t)IRQn) & 0x1FUL));
 8005098:	4b5f      	ldr	r3, [pc, #380]	; (8005218 <main+0x350>)
  hspi1.Init.CRCPolynomial = 10;
 800509a:	260a      	movs	r6, #10
 800509c:	f8c3 8004 	str.w	r8, [r3, #4]
  hspi1.Init.Mode = SPI_MODE_MASTER;
 80050a0:	f44f 7982 	mov.w	r9, #260	; 0x104
  hspi1.Init.BaudRatePrescaler = SPI_BAUDRATEPRESCALER_32;
 80050a4:	f44f 7800 	mov.w	r8, #512	; 0x200
 80050a8:	2720      	movs	r7, #32
  __HAL_RCC_SPI1_CLK_ENABLE();
 80050aa:	69ab      	ldr	r3, [r5, #24]
  hspi1.Instance = SPI1;
 80050ac:	485b      	ldr	r0, [pc, #364]	; (800521c <main+0x354>)
  __HAL_RCC_SPI1_CLK_ENABLE();
 80050ae:	f443 5380 	orr.w	r3, r3, #4096	; 0x1000
 80050b2:	61ab      	str	r3, [r5, #24]
 80050b4:	69ab      	ldr	r3, [r5, #24]
  hspi1.Init.DataSize = SPI_DATASIZE_8BIT;
 80050b6:	e9c0 4402 	strd	r4, r4, [r0, #8]
  __HAL_RCC_SPI1_CLK_ENABLE();
 80050ba:	f403 5380 	and.w	r3, r3, #4096	; 0x1000
 80050be:	9306      	str	r3, [sp, #24]
 80050c0:	9b06      	ldr	r3, [sp, #24]
  hspi1.Init.Mode = SPI_MODE_MASTER;
 80050c2:	4b57      	ldr	r3, [pc, #348]	; (8005220 <main+0x358>)
  hspi1.Init.CLKPhase = SPI_PHASE_1EDGE;
 80050c4:	e9c0 4404 	strd	r4, r4, [r0, #16]
  hspi1.Init.Mode = SPI_MODE_MASTER;
 80050c8:	e9c0 3900 	strd	r3, r9, [r0]
  hspi1.Init.TIMode = SPI_TIMODE_DISABLE;
 80050cc:	e9c0 4408 	strd	r4, r4, [r0, #32]
  hspi1.Init.CRCCalculation = SPI_CRCCALCULATION_DISABLE;
 80050d0:	6284      	str	r4, [r0, #40]	; 0x28
  hspi1.Init.CRCPolynomial = 10;
 80050d2:	62c6      	str	r6, [r0, #44]	; 0x2c
  hspi1.Init.BaudRatePrescaler = SPI_BAUDRATEPRESCALER_32;
 80050d4:	e9c0 8706 	strd	r8, r7, [r0, #24]
  if (HAL_SPI_Init(&hspi1) != HAL_OK)
 80050d8:	f7fd fcd8 	bl	8002a8c <HAL_SPI_Init>
  __HAL_RCC_SPI2_CLK_ENABLE();
 80050dc:	69eb      	ldr	r3, [r5, #28]
  hspi2.Instance = SPI2;
 80050de:	4851      	ldr	r0, [pc, #324]	; (8005224 <main+0x35c>)
  __HAL_RCC_SPI2_CLK_ENABLE();
 80050e0:	f443 4380 	orr.w	r3, r3, #16384	; 0x4000
 80050e4:	61eb      	str	r3, [r5, #28]
 80050e6:	69eb      	ldr	r3, [r5, #28]
  hspi2.Init.CRCPolynomial = 10;
 80050e8:	e9c0 460a 	strd	r4, r6, [r0, #40]	; 0x28
  __HAL_RCC_SPI2_CLK_ENABLE();
 80050ec:	f403 4380 	and.w	r3, r3, #16384	; 0x4000
 80050f0:	9301      	str	r3, [sp, #4]
 80050f2:	9b01      	ldr	r3, [sp, #4]
  hspi2.Instance = SPI2;
 80050f4:	4b4c      	ldr	r3, [pc, #304]	; (8005228 <main+0x360>)
  hspi2.Init.DataSize = SPI_DATASIZE_8BIT;
 80050f6:	e9c0 4402 	strd	r4, r4, [r0, #8]
  hspi2.Init.Mode = SPI_MODE_MASTER;
 80050fa:	e9c0 3900 	strd	r3, r9, [r0]
  hspi2.Init.CLKPhase = SPI_PHASE_1EDGE;
 80050fe:	e9c0 4404 	strd	r4, r4, [r0, #16]
  hspi2.Init.TIMode = SPI_TIMODE_DISABLE;
 8005102:	e9c0 4408 	strd	r4, r4, [r0, #32]
  hspi2.Init.BaudRatePrescaler = SPI_BAUDRATEPRESCALER_32;
 8005106:	e9c0 8706 	strd	r8, r7, [r0, #24]
  if (HAL_SPI_Init(&hspi2) != HAL_OK)
 800510a:	f7fd fcbf 	bl	8002a8c <HAL_SPI_Init>
  __HAL_RCC_DMA1_CLK_ENABLE();
 800510e:	696b      	ldr	r3, [r5, #20]
  HAL_NVIC_SetPriority(DMA1_Channel3_IRQn, 0, 0);
 8005110:	4622      	mov	r2, r4
  __HAL_RCC_DMA1_CLK_ENABLE();
 8005112:	f043 0301 	orr.w	r3, r3, #1
 8005116:	616b      	str	r3, [r5, #20]
 8005118:	696b      	ldr	r3, [r5, #20]
  HAL_NVIC_SetPriority(DMA1_Channel3_IRQn, 0, 0);
 800511a:	4621      	mov	r1, r4
  __HAL_RCC_DMA1_CLK_ENABLE();
 800511c:	f003 0301 	and.w	r3, r3, #1
 8005120:	9300      	str	r3, [sp, #0]
  HAL_NVIC_SetPriority(DMA1_Channel3_IRQn, 0, 0);
 8005122:	200d      	movs	r0, #13
  __HAL_RCC_DMA1_CLK_ENABLE();
 8005124:	9b00      	ldr	r3, [sp, #0]
  HAL_NVIC_SetPriority(DMA1_Channel3_IRQn, 0, 0);
 8005126:	f7fc faad 	bl	8001684 <HAL_NVIC_SetPriority>
  HAL_NVIC_EnableIRQ(DMA1_Channel3_IRQn);
 800512a:	200d      	movs	r0, #13
 800512c:	f7fc fade 	bl	80016ec <HAL_NVIC_EnableIRQ>
  HAL_NVIC_SetPriority(DMA1_Channel4_IRQn, 0, 0);
 8005130:	4622      	mov	r2, r4
 8005132:	4621      	mov	r1, r4
 8005134:	200e      	movs	r0, #14
 8005136:	f7fc faa5 	bl	8001684 <HAL_NVIC_SetPriority>
  HAL_NVIC_EnableIRQ(DMA1_Channel4_IRQn);
 800513a:	200e      	movs	r0, #14
 800513c:	f7fc fad6 	bl	80016ec <HAL_NVIC_EnableIRQ>
 8005140:	f241 3488 	movw	r4, #5000	; 0x1388
      print_no_newline(" ");
 8005144:	4e39      	ldr	r6, [pc, #228]	; (800522c <main+0x364>)
 8005146:	4630      	mov	r0, r6
 8005148:	f000 fe5c 	bl	8005e04 <print_no_newline>
  for (uint32_t w = 0;w<5000;w++)
 800514c:	3c01      	subs	r4, #1
 800514e:	d1fa      	bne.n	8005146 <main+0x27e>
  print("");
 8005150:	4837      	ldr	r0, [pc, #220]	; (8005230 <main+0x368>)
 8005152:	f000 fe37 	bl	8005dc4 <print>
  print("-------------");
 8005156:	4837      	ldr	r0, [pc, #220]	; (8005234 <main+0x36c>)
 8005158:	f000 fe34 	bl	8005dc4 <print>
  print("DMX CTRL V1.0");
 800515c:	4836      	ldr	r0, [pc, #216]	; (8005238 <main+0x370>)
 800515e:	f000 fe31 	bl	8005dc4 <print>
  print("-------------");
 8005162:	4834      	ldr	r0, [pc, #208]	; (8005234 <main+0x36c>)
 8005164:	f000 fe2e 	bl	8005dc4 <print>
  print("");
 8005168:	4831      	ldr	r0, [pc, #196]	; (8005230 <main+0x368>)
 800516a:	f000 fe2b 	bl	8005dc4 <print>
 if(__HAL_RCC_GET_FLAG(RCC_FLAG_IWDGRST) == SET)
 800516e:	6a6b      	ldr	r3, [r5, #36]	; 0x24
 dmx512_init(get_mode_from_pins(),get_addr_from_pins()*2);  //Address x2 so we can spread out the 8 Jumpers over 512 Addresses
 8005170:	f7ff fc58 	bl	8004a24 <get_mode_from_pins>
 8005174:	4604      	mov	r4, r0
 8005176:	f7ff fc6b 	bl	8004a50 <get_addr_from_pins>
 800517a:	0041      	lsls	r1, r0, #1
 800517c:	4620      	mov	r0, r4
 800517e:	f7ff f8d9 	bl	8004334 <dmx512_init>
 print("DMX512 Config complete");
 8005182:	482e      	ldr	r0, [pc, #184]	; (800523c <main+0x374>)
 8005184:	f000 fe1e 	bl	8005dc4 <print>
 if(ring_buffer_init(&rx_buff_shell, RX_BUFF_SIZE) != RB_OK)
 8005188:	2180      	movs	r1, #128	; 0x80
 800518a:	482d      	ldr	r0, [pc, #180]	; (8005240 <main+0x378>)
 800518c:	f000 fa2e 	bl	80055ec <ring_buffer_init>
 8005190:	2800      	cmp	r0, #0
 8005192:	f000 80e0 	beq.w	8005356 <main+0x48e>
	 print("Shell Ring Buffer Init FAILED");
 8005196:	482b      	ldr	r0, [pc, #172]	; (8005244 <main+0x37c>)
	 print("Shell Ring Buffer Init Complete");
 8005198:	f000 fe14 	bl	8005dc4 <print>
 if(ring_buffer_init(&rx_buff_dmx, RX_BUFF_SIZE) != RB_OK)
 800519c:	2180      	movs	r1, #128	; 0x80
 800519e:	482a      	ldr	r0, [pc, #168]	; (8005248 <main+0x380>)
 80051a0:	f000 fa24 	bl	80055ec <ring_buffer_init>
 80051a4:	2800      	cmp	r0, #0
 80051a6:	f000 80d8 	beq.w	800535a <main+0x492>
	 print("Serial DMX Ring Buffer Init FAILED");
 80051aa:	4828      	ldr	r0, [pc, #160]	; (800524c <main+0x384>)
	 print("Serial DMX Ring Buffer Init Complete");
 80051ac:	f000 fe0a 	bl	8005dc4 <print>
 dmx512_rec_init();
 80051b0:	f7ff f9d8 	bl	8004564 <dmx512_rec_init>
 print("DMX512 Init complete");
 80051b4:	4826      	ldr	r0, [pc, #152]	; (8005250 <main+0x388>)
 80051b6:	f000 fe05 	bl	8005dc4 <print>
  init_timers();
 80051ba:	f000 f9cf 	bl	800555c <init_timers>
  print("Timer Init complete");
 80051be:	4825      	ldr	r0, [pc, #148]	; (8005254 <main+0x38c>)
 80051c0:	f000 fe00 	bl	8005dc4 <print>
  init_settings();
 80051c4:	f000 fb38 	bl	8005838 <init_settings>
  print("Default Settings Initialized");
 80051c8:	4823      	ldr	r0, [pc, #140]	; (8005258 <main+0x390>)
 80051ca:	f000 fdfb 	bl	8005dc4 <print>
  print("Loading Settings...");
 80051ce:	4823      	ldr	r0, [pc, #140]	; (800525c <main+0x394>)
 80051d0:	f000 fdf8 	bl	8005dc4 <print>
  if (0 == check_button())
 80051d4:	f7ff fc82 	bl	8004adc <check_button>
 80051d8:	2800      	cmp	r0, #0
 80051da:	f040 80c0 	bne.w	800535e <main+0x496>
 80051de:	e03f      	b.n	8005260 <main+0x398>
 80051e0:	40021000 	.word	0x40021000
 80051e4:	40010c00 	.word	0x40010c00
 80051e8:	40011000 	.word	0x40011000
 80051ec:	40010800 	.word	0x40010800
 80051f0:	40010000 	.word	0x40010000
 80051f4:	20000884 	.word	0x20000884
 80051f8:	40012400 	.word	0x40012400
 80051fc:	20000818 	.word	0x20000818
 8005200:	40012800 	.word	0x40012800
 8005204:	200008b4 	.word	0x200008b4
 8005208:	0003d090 	.word	0x0003d090
 800520c:	40013800 	.word	0x40013800
 8005210:	200007d8 	.word	0x200007d8
 8005214:	40004800 	.word	0x40004800
 8005218:	e000e100 	.word	0xe000e100
 800521c:	200008f4 	.word	0x200008f4
 8005220:	40013000 	.word	0x40013000
 8005224:	20000780 	.word	0x20000780
 8005228:	40003800 	.word	0x40003800
 800522c:	0800b3ae 	.word	0x0800b3ae
 8005230:	0800a92f 	.word	0x0800a92f
 8005234:	0800a972 	.word	0x0800a972
 8005238:	0800a270 	.word	0x0800a270
 800523c:	0800a27e 	.word	0x0800a27e
 8005240:	20000618 	.word	0x20000618
 8005244:	0800a295 	.word	0x0800a295
 8005248:	20000600 	.word	0x20000600
 800524c:	0800a2d3 	.word	0x0800a2d3
 8005250:	0800a31b 	.word	0x0800a31b
 8005254:	0800a330 	.word	0x0800a330
 8005258:	0800a344 	.word	0x0800a344
 800525c:	0800a361 	.word	0x0800a361
	  load_settings();
 8005260:	f000 fb8c 	bl	800597c <load_settings>
	  UART_mode_SERIAL = settings.UART_Mode_UART;
 8005264:	4b5b      	ldr	r3, [pc, #364]	; (80053d4 <main+0x50c>)
 8005266:	4a5c      	ldr	r2, [pc, #368]	; (80053d8 <main+0x510>)
 8005268:	f893 102a 	ldrb.w	r1, [r3, #42]	; 0x2a
	  print("Setting loaded");
 800526c:	485b      	ldr	r0, [pc, #364]	; (80053dc <main+0x514>)
	  UART_mode_SERIAL = settings.UART_Mode_UART;
 800526e:	7011      	strb	r1, [r2, #0]
	  UART_mode_USB = settings.UART_Mode_USB;
 8005270:	f893 202b 	ldrb.w	r2, [r3, #43]	; 0x2b
 8005274:	4b5a      	ldr	r3, [pc, #360]	; (80053e0 <main+0x518>)
 8005276:	701a      	strb	r2, [r3, #0]
	  print("Defaults restored");
 8005278:	f000 fda4 	bl	8005dc4 <print>
  apply_settings();
 800527c:	f000 fb06 	bl	800588c <apply_settings>
  print("Settings complete");
 8005280:	4858      	ldr	r0, [pc, #352]	; (80053e4 <main+0x51c>)
 8005282:	f000 fd9f 	bl	8005dc4 <print>
  if (DMX_MODE2 == get_mode())
 8005286:	f7ff f837 	bl	80042f8 <get_mode>
 800528a:	2801      	cmp	r0, #1
 800528c:	d175      	bne.n	800537a <main+0x4b2>
	  print("FX Installation Start");
 800528e:	4856      	ldr	r0, [pc, #344]	; (80053e8 <main+0x520>)
     if (WS2812B_init(CH1,settings.strip1_length))
 8005290:	4c50      	ldr	r4, [pc, #320]	; (80053d4 <main+0x50c>)
	  print("FX Installation Start");
 8005292:	f000 fd97 	bl	8005dc4 <print>
	  init_fx_list();
 8005296:	f7ff f9e3 	bl	8004660 <init_fx_list>
	  install_fx();
 800529a:	f7ff fa2b 	bl	80046f4 <install_fx>
	  print("FX Installation Finished");
 800529e:	4853      	ldr	r0, [pc, #332]	; (80053ec <main+0x524>)
 80052a0:	f000 fd90 	bl	8005dc4 <print>
     if (WS2812B_init(CH1,settings.strip1_length))
 80052a4:	8ce1      	ldrh	r1, [r4, #38]	; 0x26
 80052a6:	2000      	movs	r0, #0
 80052a8:	f002 f864 	bl	8007374 <WS2812B_init>
 80052ac:	2800      	cmp	r0, #0
 80052ae:	d05c      	beq.n	800536a <main+0x4a2>
	   print("WS2812B CH1 Init complete");
 80052b0:	484f      	ldr	r0, [pc, #316]	; (80053f0 <main+0x528>)
 80052b2:	f000 fd87 	bl	8005dc4 <print>
	   WS2812B_clear(CH1);
 80052b6:	2000      	movs	r0, #0
 80052b8:	f002 f840 	bl	800733c <WS2812B_clear>
	   WS2812B_show(CH1);
 80052bc:	2000      	movs	r0, #0
 80052be:	f001 ffc3 	bl	8007248 <WS2812B_show>
     if (WS2812B_init(CH2,settings.strip1_length))
 80052c2:	8ce1      	ldrh	r1, [r4, #38]	; 0x26
 80052c4:	2001      	movs	r0, #1
 80052c6:	f002 f855 	bl	8007374 <WS2812B_init>
 80052ca:	2800      	cmp	r0, #0
 80052cc:	d051      	beq.n	8005372 <main+0x4aa>
	   print("WS2812B CH2 Init complete");
 80052ce:	4849      	ldr	r0, [pc, #292]	; (80053f4 <main+0x52c>)
 80052d0:	f000 fd78 	bl	8005dc4 <print>
	   WS2812B_clear(CH2);
 80052d4:	2001      	movs	r0, #1
 80052d6:	f002 f831 	bl	800733c <WS2812B_clear>
	   WS2812B_show(CH2);
 80052da:	2001      	movs	r0, #1
 80052dc:	f001 ffb4 	bl	8007248 <WS2812B_show>
     print("DMX Mode 2 Active");
 80052e0:	4845      	ldr	r0, [pc, #276]	; (80053f8 <main+0x530>)
	  print("DMX Mode 1 Active");
 80052e2:	f000 fd6f 	bl	8005dc4 <print>
  init_update_lights();
 80052e6:	f7ff fd7b 	bl	8004de0 <init_update_lights>
  print("PWM Update Init complete");
 80052ea:	4844      	ldr	r0, [pc, #272]	; (80053fc <main+0x534>)
 80052ec:	f000 fd6a 	bl	8005dc4 <print>
  init_trigger();
 80052f0:	f001 fb12 	bl	8006918 <init_trigger>
  print("Trigger Init complete");
 80052f4:	4842      	ldr	r0, [pc, #264]	; (8005400 <main+0x538>)
 80052f6:	f000 fd65 	bl	8005dc4 <print>
  print("Shell Active");
 80052fa:	4842      	ldr	r0, [pc, #264]	; (8005404 <main+0x53c>)
 80052fc:	f000 fd62 	bl	8005dc4 <print>
  print_no_newline("DBG>");
 8005300:	4841      	ldr	r0, [pc, #260]	; (8005408 <main+0x540>)
 8005302:	f000 fd7f 	bl	8005e04 <print_no_newline>
  HAL_GPIO_WritePin(LED_GPIO_Port, LED_Pin, GPIO_PIN_SET);
 8005306:	2201      	movs	r2, #1
 8005308:	f44f 5100 	mov.w	r1, #8192	; 0x2000
 800530c:	483f      	ldr	r0, [pc, #252]	; (800540c <main+0x544>)
 800530e:	f7fc fd6f 	bl	8001df0 <HAL_GPIO_WritePin>
	if (testmode)
 8005312:	4d3f      	ldr	r5, [pc, #252]	; (8005410 <main+0x548>)
	shell_process();
 8005314:	f000 fd90 	bl	8005e38 <shell_process>
	dmx_serial_process();
 8005318:	f000 f9ec 	bl	80056f4 <dmx_serial_process>
	if (testmode)
 800531c:	782b      	ldrb	r3, [r5, #0]
 800531e:	2b00      	cmp	r3, #0
 8005320:	d03d      	beq.n	800539e <main+0x4d6>
		testmode = process_testmode();
 8005322:	f001 fa5f 	bl	80067e4 <process_testmode>
 8005326:	4604      	mov	r4, r0
 8005328:	7028      	strb	r0, [r5, #0]
		if (testmode == 0)
 800532a:	bb40      	cbnz	r0, 800537e <main+0x4b6>
			update_pwm_lights(1);
 800532c:	2001      	movs	r0, #1
 800532e:	f7ff fc15 	bl	8004b5c <update_pwm_lights>
			if (DMX_MODE2 == get_mode())
 8005332:	f7fe ffe1 	bl	80042f8 <get_mode>
 8005336:	2801      	cmp	r0, #1
 8005338:	4606      	mov	r6, r0
 800533a:	d1eb      	bne.n	8005314 <main+0x44c>
				WS2812B_clear(CH1);
 800533c:	4620      	mov	r0, r4
 800533e:	f001 fffd 	bl	800733c <WS2812B_clear>
				WS2812B_show(CH1);
 8005342:	4620      	mov	r0, r4
 8005344:	f001 ff80 	bl	8007248 <WS2812B_show>
				WS2812B_clear(CH2);
 8005348:	4630      	mov	r0, r6
 800534a:	f001 fff7 	bl	800733c <WS2812B_clear>
				WS2812B_show(CH2);
 800534e:	4630      	mov	r0, r6
				WS2812B_show(CH2);
 8005350:	f001 ff7a 	bl	8007248 <WS2812B_show>
 8005354:	e7de      	b.n	8005314 <main+0x44c>
	 print("Shell Ring Buffer Init Complete");
 8005356:	482f      	ldr	r0, [pc, #188]	; (8005414 <main+0x54c>)
 8005358:	e71e      	b.n	8005198 <main+0x2d0>
	 print("Serial DMX Ring Buffer Init Complete");
 800535a:	482f      	ldr	r0, [pc, #188]	; (8005418 <main+0x550>)
 800535c:	e726      	b.n	80051ac <main+0x2e4>
	  recalcGamma();
 800535e:	f7ff fad1 	bl	8004904 <recalcGamma>
	  save_settings();
 8005362:	f000 fb1d 	bl	80059a0 <save_settings>
	  print("Defaults restored");
 8005366:	482d      	ldr	r0, [pc, #180]	; (800541c <main+0x554>)
 8005368:	e786      	b.n	8005278 <main+0x3b0>
	   print("WS2812B CH1 Init FAILED");
 800536a:	482d      	ldr	r0, [pc, #180]	; (8005420 <main+0x558>)
 800536c:	f000 fd2a 	bl	8005dc4 <print>
 8005370:	e7a7      	b.n	80052c2 <main+0x3fa>
	   print("WS2812B CH2 Init FAILED");
 8005372:	482c      	ldr	r0, [pc, #176]	; (8005424 <main+0x55c>)
 8005374:	f000 fd26 	bl	8005dc4 <print>
 8005378:	e7b2      	b.n	80052e0 <main+0x418>
	  print("DMX Mode 1 Active");
 800537a:	482b      	ldr	r0, [pc, #172]	; (8005428 <main+0x560>)
 800537c:	e7b1      	b.n	80052e2 <main+0x41a>
			if (DMX_MODE2 == get_mode())
 800537e:	f7fe ffbb 	bl	80042f8 <get_mode>
 8005382:	2801      	cmp	r0, #1
 8005384:	4604      	mov	r4, r0
 8005386:	d1c5      	bne.n	8005314 <main+0x44c>
				WS2812B_test(CH1);
 8005388:	2000      	movs	r0, #0
 800538a:	f002 f8a5 	bl	80074d8 <WS2812B_test>
				WS2812B_show(CH1);
 800538e:	2000      	movs	r0, #0
 8005390:	f001 ff5a 	bl	8007248 <WS2812B_show>
				WS2812B_test(CH2);
 8005394:	4620      	mov	r0, r4
 8005396:	f002 f89f 	bl	80074d8 <WS2812B_test>
				WS2812B_show(CH2);
 800539a:	4620      	mov	r0, r4
 800539c:	e7d8      	b.n	8005350 <main+0x488>
		if (1 == check_button())
 800539e:	f7ff fb9d 	bl	8004adc <check_button>
 80053a2:	2801      	cmp	r0, #1
			testmode = 1;
 80053a4:	bf08      	it	eq
 80053a6:	7028      	strbeq	r0, [r5, #0]
		process_trigger();
 80053a8:	f001 fad6 	bl	8006958 <process_trigger>
		if (DMX_MODE2 == get_mode())
 80053ac:	f7fe ffa4 	bl	80042f8 <get_mode>
 80053b0:	2801      	cmp	r0, #1
 80053b2:	4604      	mov	r4, r0
 80053b4:	d107      	bne.n	80053c6 <main+0x4fe>
			run_fx();
 80053b6:	f7ff fa23 	bl	8004800 <run_fx>
			WS2812B_show(CH1);
 80053ba:	2000      	movs	r0, #0
 80053bc:	f001 ff44 	bl	8007248 <WS2812B_show>
			WS2812B_show(CH2);
 80053c0:	4620      	mov	r0, r4
 80053c2:	f001 ff41 	bl	8007248 <WS2812B_show>
		update_pwm_lights(0);
 80053c6:	2000      	movs	r0, #0
 80053c8:	f7ff fbc8 	bl	8004b5c <update_pwm_lights>
		update_fx();
 80053cc:	f7ff fd1e 	bl	8004e0c <update_fx>
 80053d0:	e7a0      	b.n	8005314 <main+0x44c>
 80053d2:	bf00      	nop
 80053d4:	20000730 	.word	0x20000730
 80053d8:	200002b0 	.word	0x200002b0
 80053dc:	0800a375 	.word	0x0800a375
 80053e0:	200002b1 	.word	0x200002b1
 80053e4:	0800a396 	.word	0x0800a396
 80053e8:	0800a3a8 	.word	0x0800a3a8
 80053ec:	0800a3be 	.word	0x0800a3be
 80053f0:	0800a3d7 	.word	0x0800a3d7
 80053f4:	0800a409 	.word	0x0800a409
 80053f8:	0800a43b 	.word	0x0800a43b
 80053fc:	0800a45f 	.word	0x0800a45f
 8005400:	0800a478 	.word	0x0800a478
 8005404:	0800a48e 	.word	0x0800a48e
 8005408:	0800a49b 	.word	0x0800a49b
 800540c:	40011000 	.word	0x40011000
 8005410:	200002b2 	.word	0x200002b2
 8005414:	0800a2b3 	.word	0x0800a2b3
 8005418:	0800a2f6 	.word	0x0800a2f6
 800541c:	0800a384 	.word	0x0800a384
 8005420:	0800a3f1 	.word	0x0800a3f1
 8005424:	0800a423 	.word	0x0800a423
 8005428:	0800a44d 	.word	0x0800a44d

0800542c <Error_Handler>:
{
  /* USER CODE BEGIN Error_Handler_Debug */
  /* User can add his own implementation to report the HAL error return state */

  /* USER CODE END Error_Handler_Debug */
}
 800542c:	4770      	bx	lr
	...

08005430 <PWM_Timer_Init>:
 8005430:	221c      	movs	r2, #28
 8005432:	e92d 41f0 	stmdb	sp!, {r4, r5, r6, r7, r8, lr}
 8005436:	b08e      	sub	sp, #56	; 0x38
 8005438:	4606      	mov	r6, r0
 800543a:	2100      	movs	r1, #0
 800543c:	eb0d 0002 	add.w	r0, sp, r2
 8005440:	f002 f8dd 	bl	80075fe <memset>
 8005444:	2100      	movs	r1, #0
 8005446:	2210      	movs	r2, #16
 8005448:	a803      	add	r0, sp, #12
 800544a:	e9cd 1101 	strd	r1, r1, [sp, #4]
 800544e:	f002 f8d6 	bl	80075fe <memset>
 8005452:	2e01      	cmp	r6, #1
 8005454:	4c38      	ldr	r4, [pc, #224]	; (8005538 <PWM_Timer_Init+0x108>)
 8005456:	d067      	beq.n	8005528 <PWM_Timer_Init+0xf8>
 8005458:	d362      	bcc.n	8005520 <PWM_Timer_Init+0xf0>
 800545a:	2e02      	cmp	r6, #2
 800545c:	d067      	beq.n	800552e <PWM_Timer_Init+0xfe>
 800545e:	2300      	movs	r3, #0
 8005460:	f240 422a 	movw	r2, #1066	; 0x42a
 8005464:	eb04 1486 	add.w	r4, r4, r6, lsl #6
 8005468:	e9c4 3301 	strd	r3, r3, [r4, #4]
 800546c:	e9c4 2303 	strd	r2, r3, [r4, #12]
 8005470:	6163      	str	r3, [r4, #20]
 8005472:	4620      	mov	r0, r4
 8005474:	f7fd fd5a 	bl	8002f2c <HAL_TIM_Base_Init>
 8005478:	b110      	cbz	r0, 8005480 <PWM_Timer_Init+0x50>
 800547a:	4830      	ldr	r0, [pc, #192]	; (800553c <PWM_Timer_Init+0x10c>)
 800547c:	f000 fca2 	bl	8005dc4 <print>
 8005480:	f44f 5380 	mov.w	r3, #4096	; 0x1000
 8005484:	a903      	add	r1, sp, #12
 8005486:	4620      	mov	r0, r4
 8005488:	9303      	str	r3, [sp, #12]
 800548a:	f7fd fe1b 	bl	80030c4 <HAL_TIM_ConfigClockSource>
 800548e:	b110      	cbz	r0, 8005496 <PWM_Timer_Init+0x66>
 8005490:	482b      	ldr	r0, [pc, #172]	; (8005540 <PWM_Timer_Init+0x110>)
 8005492:	f000 fc97 	bl	8005dc4 <print>
 8005496:	4620      	mov	r0, r4
 8005498:	f7fd fd62 	bl	8002f60 <HAL_TIM_PWM_Init>
 800549c:	b110      	cbz	r0, 80054a4 <PWM_Timer_Init+0x74>
 800549e:	4829      	ldr	r0, [pc, #164]	; (8005544 <PWM_Timer_Init+0x114>)
 80054a0:	f000 fc90 	bl	8005dc4 <print>
 80054a4:	f240 231a 	movw	r3, #538	; 0x21a
 80054a8:	2260      	movs	r2, #96	; 0x60
 80054aa:	2500      	movs	r5, #0
 80054ac:	e9cd 2307 	strd	r2, r3, [sp, #28]
 80054b0:	2304      	movs	r3, #4
 80054b2:	e9cd 350b 	strd	r3, r5, [sp, #44]	; 0x2c
 80054b6:	4b24      	ldr	r3, [pc, #144]	; (8005548 <PWM_Timer_Init+0x118>)
 80054b8:	e9cd 5509 	strd	r5, r5, [sp, #36]	; 0x24
 80054bc:	eb03 1706 	add.w	r7, r3, r6, lsl #4
 80054c0:	f8df 8090 	ldr.w	r8, [pc, #144]	; 8005554 <PWM_Timer_Init+0x124>
 80054c4:	b276      	sxtb	r6, r6
 80054c6:	950d      	str	r5, [sp, #52]	; 0x34
 80054c8:	eb03 1606 	add.w	r6, r3, r6, lsl #4
 80054cc:	f857 3025 	ldr.w	r3, [r7, r5, lsl #2]
 80054d0:	2bff      	cmp	r3, #255	; 0xff
 80054d2:	d009      	beq.n	80054e8 <PWM_Timer_Init+0xb8>
 80054d4:	f856 2025 	ldr.w	r2, [r6, r5, lsl #2]
 80054d8:	a907      	add	r1, sp, #28
 80054da:	4620      	mov	r0, r4
 80054dc:	f7fd fd86 	bl	8002fec <HAL_TIM_PWM_ConfigChannel>
 80054e0:	b110      	cbz	r0, 80054e8 <PWM_Timer_Init+0xb8>
 80054e2:	4640      	mov	r0, r8
 80054e4:	f000 fc6e 	bl	8005dc4 <print>
 80054e8:	3501      	adds	r5, #1
 80054ea:	2d04      	cmp	r5, #4
 80054ec:	d1ee      	bne.n	80054cc <PWM_Timer_Init+0x9c>
 80054ee:	4620      	mov	r0, r4
 80054f0:	f7fd fcd1 	bl	8002e96 <HAL_TIM_Base_Start>
 80054f4:	2500      	movs	r5, #0
 80054f6:	f8df 8060 	ldr.w	r8, [pc, #96]	; 8005558 <PWM_Timer_Init+0x128>
 80054fa:	f857 3025 	ldr.w	r3, [r7, r5, lsl #2]
 80054fe:	2bff      	cmp	r3, #255	; 0xff
 8005500:	d008      	beq.n	8005514 <PWM_Timer_Init+0xe4>
 8005502:	f856 1025 	ldr.w	r1, [r6, r5, lsl #2]
 8005506:	4620      	mov	r0, r4
 8005508:	f7fd fe9a 	bl	8003240 <HAL_TIM_PWM_Start>
 800550c:	b110      	cbz	r0, 8005514 <PWM_Timer_Init+0xe4>
 800550e:	4640      	mov	r0, r8
 8005510:	f000 fc58 	bl	8005dc4 <print>
 8005514:	3501      	adds	r5, #1
 8005516:	2d04      	cmp	r5, #4
 8005518:	d1ef      	bne.n	80054fa <PWM_Timer_Init+0xca>
 800551a:	b00e      	add	sp, #56	; 0x38
 800551c:	e8bd 81f0 	ldmia.w	sp!, {r4, r5, r6, r7, r8, pc}
 8005520:	f04f 4380 	mov.w	r3, #1073741824	; 0x40000000
 8005524:	6023      	str	r3, [r4, #0]
 8005526:	e79a      	b.n	800545e <PWM_Timer_Init+0x2e>
 8005528:	4b08      	ldr	r3, [pc, #32]	; (800554c <PWM_Timer_Init+0x11c>)
 800552a:	6423      	str	r3, [r4, #64]	; 0x40
 800552c:	e797      	b.n	800545e <PWM_Timer_Init+0x2e>
 800552e:	4b08      	ldr	r3, [pc, #32]	; (8005550 <PWM_Timer_Init+0x120>)
 8005530:	f8c4 3080 	str.w	r3, [r4, #128]	; 0x80
 8005534:	e793      	b.n	800545e <PWM_Timer_Init+0x2e>
 8005536:	bf00      	nop
 8005538:	200009d4 	.word	0x200009d4
 800553c:	0800a4a0 	.word	0x0800a4a0
 8005540:	0800a4b3 	.word	0x0800a4b3
 8005544:	0800a4c6 	.word	0x0800a4c6
 8005548:	0800a500 	.word	0x0800a500
 800554c:	40000400 	.word	0x40000400
 8005550:	40012c00 	.word	0x40012c00
 8005554:	0800a4d9 	.word	0x0800a4d9
 8005558:	0800a4ec 	.word	0x0800a4ec

0800555c <init_timers>:
 800555c:	b51f      	push	{r0, r1, r2, r3, r4, lr}
 800555e:	4b14      	ldr	r3, [pc, #80]	; (80055b0 <init_timers+0x54>)
 8005560:	2000      	movs	r0, #0
 8005562:	699a      	ldr	r2, [r3, #24]
 8005564:	f442 6200 	orr.w	r2, r2, #2048	; 0x800
 8005568:	619a      	str	r2, [r3, #24]
 800556a:	699a      	ldr	r2, [r3, #24]
 800556c:	f402 6200 	and.w	r2, r2, #2048	; 0x800
 8005570:	9201      	str	r2, [sp, #4]
 8005572:	9a01      	ldr	r2, [sp, #4]
 8005574:	69da      	ldr	r2, [r3, #28]
 8005576:	f042 0201 	orr.w	r2, r2, #1
 800557a:	61da      	str	r2, [r3, #28]
 800557c:	69da      	ldr	r2, [r3, #28]
 800557e:	f002 0201 	and.w	r2, r2, #1
 8005582:	9202      	str	r2, [sp, #8]
 8005584:	9a02      	ldr	r2, [sp, #8]
 8005586:	69da      	ldr	r2, [r3, #28]
 8005588:	f042 0202 	orr.w	r2, r2, #2
 800558c:	61da      	str	r2, [r3, #28]
 800558e:	69db      	ldr	r3, [r3, #28]
 8005590:	f003 0302 	and.w	r3, r3, #2
 8005594:	9303      	str	r3, [sp, #12]
 8005596:	9b03      	ldr	r3, [sp, #12]
 8005598:	f7ff ff4a 	bl	8005430 <PWM_Timer_Init>
 800559c:	2001      	movs	r0, #1
 800559e:	f7ff ff47 	bl	8005430 <PWM_Timer_Init>
 80055a2:	2002      	movs	r0, #2
 80055a4:	b005      	add	sp, #20
 80055a6:	f85d eb04 	ldr.w	lr, [sp], #4
 80055aa:	f7ff bf41 	b.w	8005430 <PWM_Timer_Init>
 80055ae:	bf00      	nop
 80055b0:	40021000 	.word	0x40021000

080055b4 <configPWM>:
 80055b4:	4b0b      	ldr	r3, [pc, #44]	; (80055e4 <configPWM+0x30>)
 80055b6:	eb01 0180 	add.w	r1, r1, r0, lsl #2
 80055ba:	f853 1021 	ldr.w	r1, [r3, r1, lsl #2]
 80055be:	29ff      	cmp	r1, #255	; 0xff
 80055c0:	d00e      	beq.n	80055e0 <configPWM+0x2c>
 80055c2:	4b09      	ldr	r3, [pc, #36]	; (80055e8 <configPWM+0x34>)
 80055c4:	0180      	lsls	r0, r0, #6
 80055c6:	581b      	ldr	r3, [r3, r0]
 80055c8:	b909      	cbnz	r1, 80055ce <configPWM+0x1a>
 80055ca:	635a      	str	r2, [r3, #52]	; 0x34
 80055cc:	4770      	bx	lr
 80055ce:	2904      	cmp	r1, #4
 80055d0:	d101      	bne.n	80055d6 <configPWM+0x22>
 80055d2:	639a      	str	r2, [r3, #56]	; 0x38
 80055d4:	4770      	bx	lr
 80055d6:	2908      	cmp	r1, #8
 80055d8:	d101      	bne.n	80055de <configPWM+0x2a>
 80055da:	63da      	str	r2, [r3, #60]	; 0x3c
 80055dc:	4770      	bx	lr
 80055de:	641a      	str	r2, [r3, #64]	; 0x40
 80055e0:	4770      	bx	lr
 80055e2:	bf00      	nop
 80055e4:	0800a500 	.word	0x0800a500
 80055e8:	200009d4 	.word	0x200009d4

080055ec <ring_buffer_init>:
 80055ec:	b538      	push	{r3, r4, r5, lr}
 80055ee:	460d      	mov	r5, r1
 80055f0:	2101      	movs	r1, #1
 80055f2:	4604      	mov	r4, r0
 80055f4:	7501      	strb	r1, [r0, #20]
 80055f6:	4628      	mov	r0, r5
 80055f8:	f001 ffb4 	bl	8007564 <calloc>
 80055fc:	6020      	str	r0, [r4, #0]
 80055fe:	6823      	ldr	r3, [r4, #0]
 8005600:	b12b      	cbz	r3, 800560e <ring_buffer_init+0x22>
 8005602:	2300      	movs	r3, #0
 8005604:	6065      	str	r5, [r4, #4]
 8005606:	60a3      	str	r3, [r4, #8]
 8005608:	60e3      	str	r3, [r4, #12]
 800560a:	6123      	str	r3, [r4, #16]
 800560c:	7523      	strb	r3, [r4, #20]
 800560e:	7d20      	ldrb	r0, [r4, #20]
 8005610:	bd38      	pop	{r3, r4, r5, pc}

08005612 <ring_buffer_get>:
 8005612:	b5f8      	push	{r3, r4, r5, r6, r7, lr}
 8005614:	460b      	mov	r3, r1
 8005616:	4615      	mov	r5, r2
 8005618:	4604      	mov	r4, r0
 800561a:	b350      	cbz	r0, 8005672 <ring_buffer_get+0x60>
 800561c:	6902      	ldr	r2, [r0, #16]
 800561e:	4295      	cmp	r5, r2
 8005620:	d829      	bhi.n	8005676 <ring_buffer_get+0x64>
 8005622:	68c1      	ldr	r1, [r0, #12]
 8005624:	6842      	ldr	r2, [r0, #4]
 8005626:	4291      	cmp	r1, r2
 8005628:	bf24      	itt	cs
 800562a:	2200      	movcs	r2, #0
 800562c:	60c2      	strcs	r2, [r0, #12]
 800562e:	6846      	ldr	r6, [r0, #4]
 8005630:	68c2      	ldr	r2, [r0, #12]
 8005632:	6800      	ldr	r0, [r0, #0]
 8005634:	1ab6      	subs	r6, r6, r2
 8005636:	42b5      	cmp	r5, r6
 8005638:	68e1      	ldr	r1, [r4, #12]
 800563a:	d311      	bcc.n	8005660 <ring_buffer_get+0x4e>
 800563c:	4401      	add	r1, r0
 800563e:	4632      	mov	r2, r6
 8005640:	4618      	mov	r0, r3
 8005642:	f001 ffd1 	bl	80075e8 <memcpy>
 8005646:	1baf      	subs	r7, r5, r6
 8005648:	6821      	ldr	r1, [r4, #0]
 800564a:	463a      	mov	r2, r7
 800564c:	4430      	add	r0, r6
 800564e:	f001 ffcb 	bl	80075e8 <memcpy>
 8005652:	60e7      	str	r7, [r4, #12]
 8005654:	2000      	movs	r0, #0
 8005656:	6923      	ldr	r3, [r4, #16]
 8005658:	1b5d      	subs	r5, r3, r5
 800565a:	6125      	str	r5, [r4, #16]
 800565c:	7520      	strb	r0, [r4, #20]
 800565e:	bdf8      	pop	{r3, r4, r5, r6, r7, pc}
 8005660:	4401      	add	r1, r0
 8005662:	462a      	mov	r2, r5
 8005664:	4618      	mov	r0, r3
 8005666:	f001 ffbf 	bl	80075e8 <memcpy>
 800566a:	68e3      	ldr	r3, [r4, #12]
 800566c:	442b      	add	r3, r5
 800566e:	60e3      	str	r3, [r4, #12]
 8005670:	e7f0      	b.n	8005654 <ring_buffer_get+0x42>
 8005672:	2001      	movs	r0, #1
 8005674:	e7f2      	b.n	800565c <ring_buffer_get+0x4a>
 8005676:	2005      	movs	r0, #5
 8005678:	e7f0      	b.n	800565c <ring_buffer_get+0x4a>

0800567a <ring_buffer_free_elements>:
 800567a:	b110      	cbz	r0, 8005682 <ring_buffer_free_elements+0x8>
 800567c:	6843      	ldr	r3, [r0, #4]
 800567e:	6900      	ldr	r0, [r0, #16]
 8005680:	1a18      	subs	r0, r3, r0
 8005682:	4770      	bx	lr

08005684 <ring_buffer_put>:
 8005684:	e92d 41f0 	stmdb	sp!, {r4, r5, r6, r7, r8, lr}
 8005688:	460f      	mov	r7, r1
 800568a:	4615      	mov	r5, r2
 800568c:	4604      	mov	r4, r0
 800568e:	b360      	cbz	r0, 80056ea <ring_buffer_put+0x66>
 8005690:	f7ff fff3 	bl	800567a <ring_buffer_free_elements>
 8005694:	4290      	cmp	r0, r2
 8005696:	d32a      	bcc.n	80056ee <ring_buffer_put+0x6a>
 8005698:	68a2      	ldr	r2, [r4, #8]
 800569a:	6863      	ldr	r3, [r4, #4]
 800569c:	429a      	cmp	r2, r3
 800569e:	bf24      	itt	cs
 80056a0:	2300      	movcs	r3, #0
 80056a2:	60a3      	strcs	r3, [r4, #8]
 80056a4:	6866      	ldr	r6, [r4, #4]
 80056a6:	68a3      	ldr	r3, [r4, #8]
 80056a8:	6820      	ldr	r0, [r4, #0]
 80056aa:	1af6      	subs	r6, r6, r3
 80056ac:	42b5      	cmp	r5, r6
 80056ae:	68a3      	ldr	r3, [r4, #8]
 80056b0:	d913      	bls.n	80056da <ring_buffer_put+0x56>
 80056b2:	4632      	mov	r2, r6
 80056b4:	4418      	add	r0, r3
 80056b6:	eba5 0806 	sub.w	r8, r5, r6
 80056ba:	f001 ff95 	bl	80075e8 <memcpy>
 80056be:	6820      	ldr	r0, [r4, #0]
 80056c0:	4642      	mov	r2, r8
 80056c2:	19b9      	adds	r1, r7, r6
 80056c4:	f001 ff90 	bl	80075e8 <memcpy>
 80056c8:	f8c4 8008 	str.w	r8, [r4, #8]
 80056cc:	2000      	movs	r0, #0
 80056ce:	6923      	ldr	r3, [r4, #16]
 80056d0:	441d      	add	r5, r3
 80056d2:	6125      	str	r5, [r4, #16]
 80056d4:	7520      	strb	r0, [r4, #20]
 80056d6:	e8bd 81f0 	ldmia.w	sp!, {r4, r5, r6, r7, r8, pc}
 80056da:	4418      	add	r0, r3
 80056dc:	462a      	mov	r2, r5
 80056de:	f001 ff83 	bl	80075e8 <memcpy>
 80056e2:	68a3      	ldr	r3, [r4, #8]
 80056e4:	442b      	add	r3, r5
 80056e6:	60a3      	str	r3, [r4, #8]
 80056e8:	e7f0      	b.n	80056cc <ring_buffer_put+0x48>
 80056ea:	2001      	movs	r0, #1
 80056ec:	e7f2      	b.n	80056d4 <ring_buffer_put+0x50>
 80056ee:	2004      	movs	r0, #4
 80056f0:	e7f0      	b.n	80056d4 <ring_buffer_put+0x50>
	...

080056f4 <dmx_serial_process>:
uint8_t escaped = 0;

#define ESC_CHAR 0x5C

void dmx_serial_process(void)
{
 80056f4:	e92d 47f3 	stmdb	sp!, {r0, r1, r4, r5, r6, r7, r8, r9, sl, lr}
	uint8_t data;
	uint32_t regsize =  get_reg_length();
 80056f8:	f7fe fe04 	bl	8004304 <get_reg_length>

	//Both Ports are set to Shell
	if ((UART_mode_SERIAL==0) && (UART_mode_USB==0))
 80056fc:	4d37      	ldr	r5, [pc, #220]	; (80057dc <dmx_serial_process+0xe8>)
	uint32_t regsize =  get_reg_length();
 80056fe:	4606      	mov	r6, r0
	if ((UART_mode_SERIAL==0) && (UART_mode_USB==0))
 8005700:	682b      	ldr	r3, [r5, #0]
 8005702:	b91b      	cbnz	r3, 800570c <dmx_serial_process+0x18>
 8005704:	4b36      	ldr	r3, [pc, #216]	; (80057e0 <dmx_serial_process+0xec>)
 8005706:	681b      	ldr	r3, [r3, #0]
 8005708:	2b00      	cmp	r3, #0
 800570a:	d045      	beq.n	8005798 <dmx_serial_process+0xa4>
		return;

	while ((RB_OK == ring_buffer_get(&rx_buff_dmx, &data, 1)) && (reg_count<regsize) && (syncstart == 1))
 800570c:	f8df 80e0 	ldr.w	r8, [pc, #224]	; 80057f0 <dmx_serial_process+0xfc>
 8005710:	4f34      	ldr	r7, [pc, #208]	; (80057e4 <dmx_serial_process+0xf0>)
 8005712:	2201      	movs	r2, #1
 8005714:	f10d 0107 	add.w	r1, sp, #7
 8005718:	4640      	mov	r0, r8
 800571a:	f7ff ff7a 	bl	8005612 <ring_buffer_get>
 800571e:	4c32      	ldr	r4, [pc, #200]	; (80057e8 <dmx_serial_process+0xf4>)
 8005720:	b990      	cbnz	r0, 8005748 <dmx_serial_process+0x54>
 8005722:	8820      	ldrh	r0, [r4, #0]
 8005724:	42b0      	cmp	r0, r6
 8005726:	d20f      	bcs.n	8005748 <dmx_serial_process+0x54>
 8005728:	f8df 90c0 	ldr.w	r9, [pc, #192]	; 80057ec <dmx_serial_process+0xf8>
 800572c:	f899 3000 	ldrb.w	r3, [r9]
 8005730:	2b01      	cmp	r3, #1
 8005732:	d109      	bne.n	8005748 <dmx_serial_process+0x54>
	{
		if ((data == ESC_CHAR) && (escaped == 0))
 8005734:	f89d 1007 	ldrb.w	r1, [sp, #7]
 8005738:	f897 a000 	ldrb.w	sl, [r7]
 800573c:	295c      	cmp	r1, #92	; 0x5c
 800573e:	d11b      	bne.n	8005778 <dmx_serial_process+0x84>
 8005740:	f1ba 0f00 	cmp.w	sl, #0
 8005744:	d12b      	bne.n	800579e <dmx_serial_process+0xaa>
					reg_count++;
					break;
				default:			//Everything else we just ignore
					break;
			}
			escaped = 0;
 8005746:	703b      	strb	r3, [r7, #0]
			return;
		}
	}

	//If we have exceeded the number of registers or haven't synced yet just pull a byte
	if ((reg_count>=regsize) || (syncstart == 0))
 8005748:	8823      	ldrh	r3, [r4, #0]
 800574a:	42b3      	cmp	r3, r6
 800574c:	d202      	bcs.n	8005754 <dmx_serial_process+0x60>
 800574e:	4b27      	ldr	r3, [pc, #156]	; (80057ec <dmx_serial_process+0xf8>)
 8005750:	781b      	ldrb	r3, [r3, #0]
 8005752:	bb0b      	cbnz	r3, 8005798 <dmx_serial_process+0xa4>
	{
		if (RB_OK == ring_buffer_get(&rx_buff_dmx, &data, 1))
 8005754:	2201      	movs	r2, #1
 8005756:	f10d 0107 	add.w	r1, sp, #7
 800575a:	4825      	ldr	r0, [pc, #148]	; (80057f0 <dmx_serial_process+0xfc>)
 800575c:	f7ff ff59 	bl	8005612 <ring_buffer_get>
 8005760:	b9d0      	cbnz	r0, 8005798 <dmx_serial_process+0xa4>
		{
			//If it happens to be the escape byte we go into escape mode
			if ((data == ESC_CHAR) && (escaped == 0))
 8005762:	f89d 3007 	ldrb.w	r3, [sp, #7]
 8005766:	4a1f      	ldr	r2, [pc, #124]	; (80057e4 <dmx_serial_process+0xf0>)
 8005768:	2b5c      	cmp	r3, #92	; 0x5c
 800576a:	7811      	ldrb	r1, [r2, #0]
 800576c:	4610      	mov	r0, r2
 800576e:	d127      	bne.n	80057c0 <dmx_serial_process+0xcc>
 8005770:	bb59      	cbnz	r1, 80057ca <dmx_serial_process+0xd6>
			{
				escaped = 1;
 8005772:	2301      	movs	r3, #1
 8005774:	7013      	strb	r3, [r2, #0]
				return;
 8005776:	e00f      	b.n	8005798 <dmx_serial_process+0xa4>
		if (escaped)
 8005778:	f1ba 0f00 	cmp.w	sl, #0
 800577c:	d015      	beq.n	80057aa <dmx_serial_process+0xb6>
			switch (data)
 800577e:	296d      	cmp	r1, #109	; 0x6d
 8005780:	d005      	beq.n	800578e <dmx_serial_process+0x9a>
 8005782:	b911      	cbnz	r1, 800578a <dmx_serial_process+0x96>
					reg_count = 0;
 8005784:	8021      	strh	r1, [r4, #0]
					syncstart = 1;
 8005786:	f889 3000 	strb.w	r3, [r9]
			escaped = 0;
 800578a:	2300      	movs	r3, #0
 800578c:	e7db      	b.n	8005746 <dmx_serial_process+0x52>
					UART_mode_SERIAL = (int)UART_MODE_SHELL;
 800578e:	2300      	movs	r3, #0
					syncstart = 0;
 8005790:	4a16      	ldr	r2, [pc, #88]	; (80057ec <dmx_serial_process+0xf8>)
					UART_mode_SERIAL = (int)UART_MODE_SHELL;
 8005792:	602b      	str	r3, [r5, #0]
					syncstart = 0;
 8005794:	7013      	strb	r3, [r2, #0]
					reg_count = 0;
 8005796:	8023      	strh	r3, [r4, #0]
		else
		{
			return;
		}
	}
}
 8005798:	b002      	add	sp, #8
 800579a:	e8bd 87f0 	ldmia.w	sp!, {r4, r5, r6, r7, r8, r9, sl, pc}
					set_reg(reg_count, ESC_CHAR);
 800579e:	f7fe fde1 	bl	8004364 <set_reg>
					reg_count++;
 80057a2:	8823      	ldrh	r3, [r4, #0]
 80057a4:	3301      	adds	r3, #1
 80057a6:	8023      	strh	r3, [r4, #0]
					break;
 80057a8:	e7ef      	b.n	800578a <dmx_serial_process+0x96>
		set_reg(reg_count, data);
 80057aa:	f7fe fddb 	bl	8004364 <set_reg>
		reg_count++;
 80057ae:	8823      	ldrh	r3, [r4, #0]
 80057b0:	3301      	adds	r3, #1
 80057b2:	b29b      	uxth	r3, r3
		if (reg_count >=regsize)
 80057b4:	42b3      	cmp	r3, r6
		reg_count++;
 80057b6:	8023      	strh	r3, [r4, #0]
		if (reg_count >=regsize)
 80057b8:	d3ab      	bcc.n	8005712 <dmx_serial_process+0x1e>
			syncstart = 0;
 80057ba:	f889 a000 	strb.w	sl, [r9]
			return;
 80057be:	e7eb      	b.n	8005798 <dmx_serial_process+0xa4>
			if (escaped)
 80057c0:	2900      	cmp	r1, #0
 80057c2:	d0e9      	beq.n	8005798 <dmx_serial_process+0xa4>
				switch (data)
 80057c4:	b123      	cbz	r3, 80057d0 <dmx_serial_process+0xdc>
 80057c6:	2b6d      	cmp	r3, #109	; 0x6d
 80057c8:	d0e1      	beq.n	800578e <dmx_serial_process+0x9a>
				escaped = 0;
 80057ca:	2300      	movs	r3, #0
 80057cc:	7003      	strb	r3, [r0, #0]
 80057ce:	e7e3      	b.n	8005798 <dmx_serial_process+0xa4>
						syncstart = 1;
 80057d0:	2201      	movs	r2, #1
						reg_count = 0;
 80057d2:	8023      	strh	r3, [r4, #0]
						syncstart = 1;
 80057d4:	4b05      	ldr	r3, [pc, #20]	; (80057ec <dmx_serial_process+0xf8>)
 80057d6:	701a      	strb	r2, [r3, #0]
						break;
 80057d8:	e7f7      	b.n	80057ca <dmx_serial_process+0xd6>
 80057da:	bf00      	nop
 80057dc:	200002b0 	.word	0x200002b0
 80057e0:	200002b1 	.word	0x200002b1
 80057e4:	200002b3 	.word	0x200002b3
 80057e8:	200002b4 	.word	0x200002b4
 80057ec:	200002b6 	.word	0x200002b6
 80057f0:	20000600 	.word	0x20000600

080057f4 <tracer_puts>:
	{
		if (UART_mode_USB == 0)
			CDC_Transmit_FS(str,size);
	}
#endif
	if (UART_mode_SERIAL == 0)
 80057f4:	4b05      	ldr	r3, [pc, #20]	; (800580c <tracer_puts+0x18>)
{
 80057f6:	460a      	mov	r2, r1
	if (UART_mode_SERIAL == 0)
 80057f8:	781b      	ldrb	r3, [r3, #0]
 80057fa:	b92b      	cbnz	r3, 8005808 <tracer_puts+0x14>
		HAL_UART_Transmit(&huart3,str,size, 5000);
 80057fc:	4601      	mov	r1, r0
 80057fe:	f241 3388 	movw	r3, #5000	; 0x1388
 8005802:	4803      	ldr	r0, [pc, #12]	; (8005810 <tracer_puts+0x1c>)
 8005804:	f7fd bdee 	b.w	80033e4 <HAL_UART_Transmit>
}
 8005808:	4770      	bx	lr
 800580a:	bf00      	nop
 800580c:	200002b0 	.word	0x200002b0
 8005810:	200007d8 	.word	0x200007d8

08005814 <tracer_getchar>:

#ifdef USE_UART_IRQ
uint8_t tracer_getchar(void)
{
 8005814:	b507      	push	{r0, r1, r2, lr}
	uint8_t data;
	if (RB_OK == ring_buffer_get(&rx_buff_shell, &data, 1))
 8005816:	2201      	movs	r2, #1
 8005818:	f10d 0107 	add.w	r1, sp, #7
 800581c:	4805      	ldr	r0, [pc, #20]	; (8005834 <tracer_getchar+0x20>)
 800581e:	f7ff fef8 	bl	8005612 <ring_buffer_get>
 8005822:	b920      	cbnz	r0, 800582e <tracer_getchar+0x1a>
		return data;
 8005824:	f89d 0007 	ldrb.w	r0, [sp, #7]
	else
		return 0;
}
 8005828:	b003      	add	sp, #12
 800582a:	f85d fb04 	ldr.w	pc, [sp], #4
		return 0;
 800582e:	2000      	movs	r0, #0
 8005830:	e7fa      	b.n	8005828 <tracer_getchar+0x14>
 8005832:	bf00      	nop
 8005834:	20000618 	.word	0x20000618

08005838 <init_settings>:
 8005838:	b510      	push	{r4, lr}
 800583a:	4c13      	ldr	r4, [pc, #76]	; (8005888 <init_settings+0x50>)
 800583c:	2238      	movs	r2, #56	; 0x38
 800583e:	2100      	movs	r1, #0
 8005840:	4620      	mov	r0, r4
 8005842:	f001 fedc 	bl	80075fe <memset>
 8005846:	22ff      	movs	r2, #255	; 0xff
 8005848:	f824 2c02 	strh.w	r2, [r4, #-2]
 800584c:	2209      	movs	r2, #9
 800584e:	84a2      	strh	r2, [r4, #36]	; 0x24
 8005850:	84e2      	strh	r2, [r4, #38]	; 0x26
 8005852:	f64f 729c 	movw	r2, #65436	; 0xff9c
 8005856:	8722      	strh	r2, [r4, #56]	; 0x38
 8005858:	22dc      	movs	r2, #220	; 0xdc
 800585a:	2164      	movs	r1, #100	; 0x64
 800585c:	f64f 70b0 	movw	r0, #65456	; 0xffb0
 8005860:	87a2      	strh	r2, [r4, #60]	; 0x3c
 8005862:	f8a4 2042 	strh.w	r2, [r4, #66]	; 0x42
 8005866:	f8a4 2048 	strh.w	r2, [r4, #72]	; 0x48
 800586a:	f8a4 204a 	strh.w	r2, [r4, #74]	; 0x4a
 800586e:	2201      	movs	r2, #1
 8005870:	8761      	strh	r1, [r4, #58]	; 0x3a
 8005872:	87e0      	strh	r0, [r4, #62]	; 0x3e
 8005874:	f8a4 1040 	strh.w	r1, [r4, #64]	; 0x40
 8005878:	f8a4 0044 	strh.w	r0, [r4, #68]	; 0x44
 800587c:	f8a4 1046 	strh.w	r1, [r4, #70]	; 0x46
 8005880:	f884 2023 	strb.w	r2, [r4, #35]	; 0x23
 8005884:	bd10      	pop	{r4, pc}
 8005886:	bf00      	nop
 8005888:	20000732 	.word	0x20000732

0800588c <apply_settings>:
 800588c:	b510      	push	{r4, lr}
 800588e:	4c3a      	ldr	r4, [pc, #232]	; (8005978 <apply_settings+0xec>)
 8005890:	2000      	movs	r0, #0
 8005892:	7821      	ldrb	r1, [r4, #0]
 8005894:	f7fe fd66 	bl	8004364 <set_reg>
 8005898:	78a1      	ldrb	r1, [r4, #2]
 800589a:	2001      	movs	r0, #1
 800589c:	f7fe fd62 	bl	8004364 <set_reg>
 80058a0:	7921      	ldrb	r1, [r4, #4]
 80058a2:	2002      	movs	r0, #2
 80058a4:	f7fe fd5e 	bl	8004364 <set_reg>
 80058a8:	79a1      	ldrb	r1, [r4, #6]
 80058aa:	2003      	movs	r0, #3
 80058ac:	f7fe fd5a 	bl	8004364 <set_reg>
 80058b0:	7a21      	ldrb	r1, [r4, #8]
 80058b2:	2004      	movs	r0, #4
 80058b4:	f7fe fd56 	bl	8004364 <set_reg>
 80058b8:	7aa1      	ldrb	r1, [r4, #10]
 80058ba:	2005      	movs	r0, #5
 80058bc:	f7fe fd52 	bl	8004364 <set_reg>
 80058c0:	7b21      	ldrb	r1, [r4, #12]
 80058c2:	2006      	movs	r0, #6
 80058c4:	f7fe fd4e 	bl	8004364 <set_reg>
 80058c8:	7ba1      	ldrb	r1, [r4, #14]
 80058ca:	2007      	movs	r0, #7
 80058cc:	f7fe fd4a 	bl	8004364 <set_reg>
 80058d0:	7c21      	ldrb	r1, [r4, #16]
 80058d2:	2008      	movs	r0, #8
 80058d4:	f7fe fd46 	bl	8004364 <set_reg>
 80058d8:	7ca1      	ldrb	r1, [r4, #18]
 80058da:	2009      	movs	r0, #9
 80058dc:	f7fe fd42 	bl	8004364 <set_reg>
 80058e0:	7d21      	ldrb	r1, [r4, #20]
 80058e2:	200a      	movs	r0, #10
 80058e4:	f7fe fd3e 	bl	8004364 <set_reg>
 80058e8:	f7fe fd06 	bl	80042f8 <get_mode>
 80058ec:	2801      	cmp	r0, #1
 80058ee:	d142      	bne.n	8005976 <apply_settings+0xea>
 80058f0:	7da1      	ldrb	r1, [r4, #22]
 80058f2:	200b      	movs	r0, #11
 80058f4:	f7fe fd36 	bl	8004364 <set_reg>
 80058f8:	7de1      	ldrb	r1, [r4, #23]
 80058fa:	200c      	movs	r0, #12
 80058fc:	f7fe fd32 	bl	8004364 <set_reg>
 8005900:	7e21      	ldrb	r1, [r4, #24]
 8005902:	200d      	movs	r0, #13
 8005904:	f7fe fd2e 	bl	8004364 <set_reg>
 8005908:	7e61      	ldrb	r1, [r4, #25]
 800590a:	200e      	movs	r0, #14
 800590c:	f7fe fd2a 	bl	8004364 <set_reg>
 8005910:	7ea1      	ldrb	r1, [r4, #26]
 8005912:	200f      	movs	r0, #15
 8005914:	f7fe fd26 	bl	8004364 <set_reg>
 8005918:	7ee1      	ldrb	r1, [r4, #27]
 800591a:	2010      	movs	r0, #16
 800591c:	f7fe fd22 	bl	8004364 <set_reg>
 8005920:	7f21      	ldrb	r1, [r4, #28]
 8005922:	2011      	movs	r0, #17
 8005924:	f7fe fd1e 	bl	8004364 <set_reg>
 8005928:	7f61      	ldrb	r1, [r4, #29]
 800592a:	2012      	movs	r0, #18
 800592c:	f7fe fd1a 	bl	8004364 <set_reg>
 8005930:	7fa1      	ldrb	r1, [r4, #30]
 8005932:	2013      	movs	r0, #19
 8005934:	f7fe fd16 	bl	8004364 <set_reg>
 8005938:	7fe1      	ldrb	r1, [r4, #31]
 800593a:	2014      	movs	r0, #20
 800593c:	f7fe fd12 	bl	8004364 <set_reg>
 8005940:	f894 1020 	ldrb.w	r1, [r4, #32]
 8005944:	2015      	movs	r0, #21
 8005946:	f7fe fd0d 	bl	8004364 <set_reg>
 800594a:	f894 1021 	ldrb.w	r1, [r4, #33]	; 0x21
 800594e:	2016      	movs	r0, #22
 8005950:	f7fe fd08 	bl	8004364 <set_reg>
 8005954:	f894 1022 	ldrb.w	r1, [r4, #34]	; 0x22
 8005958:	2017      	movs	r0, #23
 800595a:	f7fe fd03 	bl	8004364 <set_reg>
 800595e:	f894 1023 	ldrb.w	r1, [r4, #35]	; 0x23
 8005962:	2018      	movs	r0, #24
 8005964:	f7fe fcfe 	bl	8004364 <set_reg>
 8005968:	f894 1024 	ldrb.w	r1, [r4, #36]	; 0x24
 800596c:	2019      	movs	r0, #25
 800596e:	e8bd 4010 	ldmia.w	sp!, {r4, lr}
 8005972:	f7fe bcf7 	b.w	8004364 <set_reg>
 8005976:	bd10      	pop	{r4, pc}
 8005978:	20000730 	.word	0x20000730

0800597c <load_settings>:
 800597c:	b508      	push	{r3, lr}
 800597e:	4a06      	ldr	r2, [pc, #24]	; (8005998 <load_settings+0x1c>)
 8005980:	214e      	movs	r1, #78	; 0x4e
 8005982:	2000      	movs	r0, #0
 8005984:	f7fe fe30 	bl	80045e8 <EE_Reads>
 8005988:	b920      	cbnz	r0, 8005994 <load_settings+0x18>
 800598a:	e8bd 4008 	ldmia.w	sp!, {r3, lr}
 800598e:	4803      	ldr	r0, [pc, #12]	; (800599c <load_settings+0x20>)
 8005990:	f000 ba18 	b.w	8005dc4 <print>
 8005994:	bd08      	pop	{r3, pc}
 8005996:	bf00      	nop
 8005998:	20000730 	.word	0x20000730
 800599c:	0800a530 	.word	0x0800a530

080059a0 <save_settings>:
 80059a0:	b508      	push	{r3, lr}
 80059a2:	4a06      	ldr	r2, [pc, #24]	; (80059bc <save_settings+0x1c>)
 80059a4:	214e      	movs	r1, #78	; 0x4e
 80059a6:	2000      	movs	r0, #0
 80059a8:	f7fe fe32 	bl	8004610 <EE_Writes>
 80059ac:	b920      	cbnz	r0, 80059b8 <save_settings+0x18>
 80059ae:	e8bd 4008 	ldmia.w	sp!, {r3, lr}
 80059b2:	4803      	ldr	r0, [pc, #12]	; (80059c0 <save_settings+0x20>)
 80059b4:	f000 ba06 	b.w	8005dc4 <print>
 80059b8:	bd08      	pop	{r3, pc}
 80059ba:	bf00      	nop
 80059bc:	20000730 	.word	0x20000730
 80059c0:	0800a919 	.word	0x0800a919

080059c4 <print_settings>:
 80059c4:	b570      	push	{r4, r5, r6, lr}
 80059c6:	4d90      	ldr	r5, [pc, #576]	; (8005c08 <print_settings+0x244>)
 80059c8:	4e90      	ldr	r6, [pc, #576]	; (8005c0c <print_settings+0x248>)
 80059ca:	4628      	mov	r0, r5
 80059cc:	4c90      	ldr	r4, [pc, #576]	; (8005c10 <print_settings+0x24c>)
 80059ce:	f000 f9f9 	bl	8005dc4 <print>
 80059d2:	4890      	ldr	r0, [pc, #576]	; (8005c14 <print_settings+0x250>)
 80059d4:	f000 f9f6 	bl	8005dc4 <print>
 80059d8:	4630      	mov	r0, r6
 80059da:	f000 f9f3 	bl	8005dc4 <print>
 80059de:	8821      	ldrh	r1, [r4, #0]
 80059e0:	488d      	ldr	r0, [pc, #564]	; (8005c18 <print_settings+0x254>)
 80059e2:	f000 f9ef 	bl	8005dc4 <print>
 80059e6:	8861      	ldrh	r1, [r4, #2]
 80059e8:	488c      	ldr	r0, [pc, #560]	; (8005c1c <print_settings+0x258>)
 80059ea:	f000 f9eb 	bl	8005dc4 <print>
 80059ee:	88a1      	ldrh	r1, [r4, #4]
 80059f0:	488b      	ldr	r0, [pc, #556]	; (8005c20 <print_settings+0x25c>)
 80059f2:	f000 f9e7 	bl	8005dc4 <print>
 80059f6:	88e1      	ldrh	r1, [r4, #6]
 80059f8:	488a      	ldr	r0, [pc, #552]	; (8005c24 <print_settings+0x260>)
 80059fa:	f000 f9e3 	bl	8005dc4 <print>
 80059fe:	8921      	ldrh	r1, [r4, #8]
 8005a00:	4889      	ldr	r0, [pc, #548]	; (8005c28 <print_settings+0x264>)
 8005a02:	f000 f9df 	bl	8005dc4 <print>
 8005a06:	8961      	ldrh	r1, [r4, #10]
 8005a08:	4888      	ldr	r0, [pc, #544]	; (8005c2c <print_settings+0x268>)
 8005a0a:	f000 f9db 	bl	8005dc4 <print>
 8005a0e:	89a1      	ldrh	r1, [r4, #12]
 8005a10:	4887      	ldr	r0, [pc, #540]	; (8005c30 <print_settings+0x26c>)
 8005a12:	f000 f9d7 	bl	8005dc4 <print>
 8005a16:	89e1      	ldrh	r1, [r4, #14]
 8005a18:	4886      	ldr	r0, [pc, #536]	; (8005c34 <print_settings+0x270>)
 8005a1a:	f000 f9d3 	bl	8005dc4 <print>
 8005a1e:	8a21      	ldrh	r1, [r4, #16]
 8005a20:	4885      	ldr	r0, [pc, #532]	; (8005c38 <print_settings+0x274>)
 8005a22:	f000 f9cf 	bl	8005dc4 <print>
 8005a26:	8a61      	ldrh	r1, [r4, #18]
 8005a28:	4884      	ldr	r0, [pc, #528]	; (8005c3c <print_settings+0x278>)
 8005a2a:	f000 f9cb 	bl	8005dc4 <print>
 8005a2e:	8aa1      	ldrh	r1, [r4, #20]
 8005a30:	4883      	ldr	r0, [pc, #524]	; (8005c40 <print_settings+0x27c>)
 8005a32:	f000 f9c7 	bl	8005dc4 <print>
 8005a36:	7da1      	ldrb	r1, [r4, #22]
 8005a38:	4882      	ldr	r0, [pc, #520]	; (8005c44 <print_settings+0x280>)
 8005a3a:	f000 f9c3 	bl	8005dc4 <print>
 8005a3e:	7de1      	ldrb	r1, [r4, #23]
 8005a40:	4881      	ldr	r0, [pc, #516]	; (8005c48 <print_settings+0x284>)
 8005a42:	f000 f9bf 	bl	8005dc4 <print>
 8005a46:	7e21      	ldrb	r1, [r4, #24]
 8005a48:	4880      	ldr	r0, [pc, #512]	; (8005c4c <print_settings+0x288>)
 8005a4a:	f000 f9bb 	bl	8005dc4 <print>
 8005a4e:	7e61      	ldrb	r1, [r4, #25]
 8005a50:	487f      	ldr	r0, [pc, #508]	; (8005c50 <print_settings+0x28c>)
 8005a52:	f000 f9b7 	bl	8005dc4 <print>
 8005a56:	7ea1      	ldrb	r1, [r4, #26]
 8005a58:	487e      	ldr	r0, [pc, #504]	; (8005c54 <print_settings+0x290>)
 8005a5a:	f000 f9b3 	bl	8005dc4 <print>
 8005a5e:	7ee1      	ldrb	r1, [r4, #27]
 8005a60:	487d      	ldr	r0, [pc, #500]	; (8005c58 <print_settings+0x294>)
 8005a62:	f000 f9af 	bl	8005dc4 <print>
 8005a66:	7f21      	ldrb	r1, [r4, #28]
 8005a68:	487c      	ldr	r0, [pc, #496]	; (8005c5c <print_settings+0x298>)
 8005a6a:	f000 f9ab 	bl	8005dc4 <print>
 8005a6e:	7f61      	ldrb	r1, [r4, #29]
 8005a70:	487b      	ldr	r0, [pc, #492]	; (8005c60 <print_settings+0x29c>)
 8005a72:	f000 f9a7 	bl	8005dc4 <print>
 8005a76:	7fa1      	ldrb	r1, [r4, #30]
 8005a78:	487a      	ldr	r0, [pc, #488]	; (8005c64 <print_settings+0x2a0>)
 8005a7a:	f000 f9a3 	bl	8005dc4 <print>
 8005a7e:	7fe1      	ldrb	r1, [r4, #31]
 8005a80:	4879      	ldr	r0, [pc, #484]	; (8005c68 <print_settings+0x2a4>)
 8005a82:	f000 f99f 	bl	8005dc4 <print>
 8005a86:	f894 1020 	ldrb.w	r1, [r4, #32]
 8005a8a:	4878      	ldr	r0, [pc, #480]	; (8005c6c <print_settings+0x2a8>)
 8005a8c:	f000 f99a 	bl	8005dc4 <print>
 8005a90:	f894 1021 	ldrb.w	r1, [r4, #33]	; 0x21
 8005a94:	4876      	ldr	r0, [pc, #472]	; (8005c70 <print_settings+0x2ac>)
 8005a96:	f000 f995 	bl	8005dc4 <print>
 8005a9a:	f894 1022 	ldrb.w	r1, [r4, #34]	; 0x22
 8005a9e:	4875      	ldr	r0, [pc, #468]	; (8005c74 <print_settings+0x2b0>)
 8005aa0:	f000 f990 	bl	8005dc4 <print>
 8005aa4:	f894 1023 	ldrb.w	r1, [r4, #35]	; 0x23
 8005aa8:	4873      	ldr	r0, [pc, #460]	; (8005c78 <print_settings+0x2b4>)
 8005aaa:	f000 f98b 	bl	8005dc4 <print>
 8005aae:	f894 1024 	ldrb.w	r1, [r4, #36]	; 0x24
 8005ab2:	4872      	ldr	r0, [pc, #456]	; (8005c7c <print_settings+0x2b8>)
 8005ab4:	f000 f986 	bl	8005dc4 <print>
 8005ab8:	4628      	mov	r0, r5
 8005aba:	f000 f983 	bl	8005dc4 <print>
 8005abe:	4870      	ldr	r0, [pc, #448]	; (8005c80 <print_settings+0x2bc>)
 8005ac0:	f000 f980 	bl	8005dc4 <print>
 8005ac4:	4630      	mov	r0, r6
 8005ac6:	f000 f97d 	bl	8005dc4 <print>
 8005aca:	f894 1025 	ldrb.w	r1, [r4, #37]	; 0x25
 8005ace:	486d      	ldr	r0, [pc, #436]	; (8005c84 <print_settings+0x2c0>)
 8005ad0:	f000 f978 	bl	8005dc4 <print>
 8005ad4:	8ce1      	ldrh	r1, [r4, #38]	; 0x26
 8005ad6:	486c      	ldr	r0, [pc, #432]	; (8005c88 <print_settings+0x2c4>)
 8005ad8:	f000 f974 	bl	8005dc4 <print>
 8005adc:	8d21      	ldrh	r1, [r4, #40]	; 0x28
 8005ade:	486b      	ldr	r0, [pc, #428]	; (8005c8c <print_settings+0x2c8>)
 8005ae0:	f000 f970 	bl	8005dc4 <print>
 8005ae4:	f894 102a 	ldrb.w	r1, [r4, #42]	; 0x2a
 8005ae8:	4869      	ldr	r0, [pc, #420]	; (8005c90 <print_settings+0x2cc>)
 8005aea:	f000 f96b 	bl	8005dc4 <print>
 8005aee:	f894 102b 	ldrb.w	r1, [r4, #43]	; 0x2b
 8005af2:	4868      	ldr	r0, [pc, #416]	; (8005c94 <print_settings+0x2d0>)
 8005af4:	f000 f966 	bl	8005dc4 <print>
 8005af8:	4628      	mov	r0, r5
 8005afa:	f000 f963 	bl	8005dc4 <print>
 8005afe:	4866      	ldr	r0, [pc, #408]	; (8005c98 <print_settings+0x2d4>)
 8005b00:	f000 f960 	bl	8005dc4 <print>
 8005b04:	4865      	ldr	r0, [pc, #404]	; (8005c9c <print_settings+0x2d8>)
 8005b06:	f000 f95d 	bl	8005dc4 <print>
 8005b0a:	f894 102c 	ldrb.w	r1, [r4, #44]	; 0x2c
 8005b0e:	4864      	ldr	r0, [pc, #400]	; (8005ca0 <print_settings+0x2dc>)
 8005b10:	f000 f958 	bl	8005dc4 <print>
 8005b14:	f894 102d 	ldrb.w	r1, [r4, #45]	; 0x2d
 8005b18:	4862      	ldr	r0, [pc, #392]	; (8005ca4 <print_settings+0x2e0>)
 8005b1a:	f000 f953 	bl	8005dc4 <print>
 8005b1e:	f894 102e 	ldrb.w	r1, [r4, #46]	; 0x2e
 8005b22:	4861      	ldr	r0, [pc, #388]	; (8005ca8 <print_settings+0x2e4>)
 8005b24:	f000 f94e 	bl	8005dc4 <print>
 8005b28:	f894 102f 	ldrb.w	r1, [r4, #47]	; 0x2f
 8005b2c:	485f      	ldr	r0, [pc, #380]	; (8005cac <print_settings+0x2e8>)
 8005b2e:	f000 f949 	bl	8005dc4 <print>
 8005b32:	f894 1030 	ldrb.w	r1, [r4, #48]	; 0x30
 8005b36:	485e      	ldr	r0, [pc, #376]	; (8005cb0 <print_settings+0x2ec>)
 8005b38:	f000 f944 	bl	8005dc4 <print>
 8005b3c:	f894 1031 	ldrb.w	r1, [r4, #49]	; 0x31
 8005b40:	485c      	ldr	r0, [pc, #368]	; (8005cb4 <print_settings+0x2f0>)
 8005b42:	f000 f93f 	bl	8005dc4 <print>
 8005b46:	f894 1032 	ldrb.w	r1, [r4, #50]	; 0x32
 8005b4a:	485b      	ldr	r0, [pc, #364]	; (8005cb8 <print_settings+0x2f4>)
 8005b4c:	f000 f93a 	bl	8005dc4 <print>
 8005b50:	f894 1033 	ldrb.w	r1, [r4, #51]	; 0x33
 8005b54:	4859      	ldr	r0, [pc, #356]	; (8005cbc <print_settings+0x2f8>)
 8005b56:	f000 f935 	bl	8005dc4 <print>
 8005b5a:	f894 1034 	ldrb.w	r1, [r4, #52]	; 0x34
 8005b5e:	4858      	ldr	r0, [pc, #352]	; (8005cc0 <print_settings+0x2fc>)
 8005b60:	f000 f930 	bl	8005dc4 <print>
 8005b64:	f894 1035 	ldrb.w	r1, [r4, #53]	; 0x35
 8005b68:	4856      	ldr	r0, [pc, #344]	; (8005cc4 <print_settings+0x300>)
 8005b6a:	f000 f92b 	bl	8005dc4 <print>
 8005b6e:	f894 1036 	ldrb.w	r1, [r4, #54]	; 0x36
 8005b72:	4855      	ldr	r0, [pc, #340]	; (8005cc8 <print_settings+0x304>)
 8005b74:	f000 f926 	bl	8005dc4 <print>
 8005b78:	f894 1037 	ldrb.w	r1, [r4, #55]	; 0x37
 8005b7c:	4853      	ldr	r0, [pc, #332]	; (8005ccc <print_settings+0x308>)
 8005b7e:	f000 f921 	bl	8005dc4 <print>
 8005b82:	f894 1038 	ldrb.w	r1, [r4, #56]	; 0x38
 8005b86:	4852      	ldr	r0, [pc, #328]	; (8005cd0 <print_settings+0x30c>)
 8005b88:	f000 f91c 	bl	8005dc4 <print>
 8005b8c:	f894 1039 	ldrb.w	r1, [r4, #57]	; 0x39
 8005b90:	4850      	ldr	r0, [pc, #320]	; (8005cd4 <print_settings+0x310>)
 8005b92:	f000 f917 	bl	8005dc4 <print>
 8005b96:	4628      	mov	r0, r5
 8005b98:	f000 f914 	bl	8005dc4 <print>
 8005b9c:	484e      	ldr	r0, [pc, #312]	; (8005cd8 <print_settings+0x314>)
 8005b9e:	f000 f911 	bl	8005dc4 <print>
 8005ba2:	484e      	ldr	r0, [pc, #312]	; (8005cdc <print_settings+0x318>)
 8005ba4:	f000 f90e 	bl	8005dc4 <print>
 8005ba8:	f9b4 103a 	ldrsh.w	r1, [r4, #58]	; 0x3a
 8005bac:	484c      	ldr	r0, [pc, #304]	; (8005ce0 <print_settings+0x31c>)
 8005bae:	f000 f909 	bl	8005dc4 <print>
 8005bb2:	f9b4 103c 	ldrsh.w	r1, [r4, #60]	; 0x3c
 8005bb6:	484b      	ldr	r0, [pc, #300]	; (8005ce4 <print_settings+0x320>)
 8005bb8:	f000 f904 	bl	8005dc4 <print>
 8005bbc:	f9b4 103e 	ldrsh.w	r1, [r4, #62]	; 0x3e
 8005bc0:	4849      	ldr	r0, [pc, #292]	; (8005ce8 <print_settings+0x324>)
 8005bc2:	f000 f8ff 	bl	8005dc4 <print>
 8005bc6:	f9b4 1040 	ldrsh.w	r1, [r4, #64]	; 0x40
 8005bca:	4848      	ldr	r0, [pc, #288]	; (8005cec <print_settings+0x328>)
 8005bcc:	f000 f8fa 	bl	8005dc4 <print>
 8005bd0:	f9b4 1042 	ldrsh.w	r1, [r4, #66]	; 0x42
 8005bd4:	4846      	ldr	r0, [pc, #280]	; (8005cf0 <print_settings+0x32c>)
 8005bd6:	f000 f8f5 	bl	8005dc4 <print>
 8005bda:	f9b4 1044 	ldrsh.w	r1, [r4, #68]	; 0x44
 8005bde:	4845      	ldr	r0, [pc, #276]	; (8005cf4 <print_settings+0x330>)
 8005be0:	f000 f8f0 	bl	8005dc4 <print>
 8005be4:	f9b4 1046 	ldrsh.w	r1, [r4, #70]	; 0x46
 8005be8:	4843      	ldr	r0, [pc, #268]	; (8005cf8 <print_settings+0x334>)
 8005bea:	f000 f8eb 	bl	8005dc4 <print>
 8005bee:	f9b4 1048 	ldrsh.w	r1, [r4, #72]	; 0x48
 8005bf2:	4842      	ldr	r0, [pc, #264]	; (8005cfc <print_settings+0x338>)
 8005bf4:	f000 f8e6 	bl	8005dc4 <print>
 8005bf8:	f9b4 104a 	ldrsh.w	r1, [r4, #74]	; 0x4a
 8005bfc:	4840      	ldr	r0, [pc, #256]	; (8005d00 <print_settings+0x33c>)
 8005bfe:	e8bd 4070 	ldmia.w	sp!, {r4, r5, r6, lr}
 8005c02:	f000 b8df 	b.w	8005dc4 <print>
 8005c06:	bf00      	nop
 8005c08:	0800a92f 	.word	0x0800a92f
 8005c0c:	0800a978 	.word	0x0800a978
 8005c10:	20000730 	.word	0x20000730
 8005c14:	0800a543 	.word	0x0800a543
 8005c18:	0800a54c 	.word	0x0800a54c
 8005c1c:	0800a55c 	.word	0x0800a55c
 8005c20:	0800a568 	.word	0x0800a568
 8005c24:	0800a576 	.word	0x0800a576
 8005c28:	0800a583 	.word	0x0800a583
 8005c2c:	0800a58f 	.word	0x0800a58f
 8005c30:	0800a59d 	.word	0x0800a59d
 8005c34:	0800a5aa 	.word	0x0800a5aa
 8005c38:	0800a5b6 	.word	0x0800a5b6
 8005c3c:	0800a5c4 	.word	0x0800a5c4
 8005c40:	0800a5d1 	.word	0x0800a5d1
 8005c44:	0800a5df 	.word	0x0800a5df
 8005c48:	0800a5ed 	.word	0x0800a5ed
 8005c4c:	0800a600 	.word	0x0800a600
 8005c50:	0800a611 	.word	0x0800a611
 8005c54:	0800a621 	.word	0x0800a621
 8005c58:	0800a634 	.word	0x0800a634
 8005c5c:	0800a642 	.word	0x0800a642
 8005c60:	0800a650 	.word	0x0800a650
 8005c64:	0800a65e 	.word	0x0800a65e
 8005c68:	0800a671 	.word	0x0800a671
 8005c6c:	0800a682 	.word	0x0800a682
 8005c70:	0800a692 	.word	0x0800a692
 8005c74:	0800a6a5 	.word	0x0800a6a5
 8005c78:	0800a6b3 	.word	0x0800a6b3
 8005c7c:	0800a6c1 	.word	0x0800a6c1
 8005c80:	0800a6cf 	.word	0x0800a6cf
 8005c84:	0800a6d8 	.word	0x0800a6d8
 8005c88:	0800a6ea 	.word	0x0800a6ea
 8005c8c:	0800a6fd 	.word	0x0800a6fd
 8005c90:	0800a710 	.word	0x0800a710
 8005c94:	0800a725 	.word	0x0800a725
 8005c98:	0800a737 	.word	0x0800a737
 8005c9c:	0800a977 	.word	0x0800a977
 8005ca0:	0800a740 	.word	0x0800a740
 8005ca4:	0800a750 	.word	0x0800a750
 8005ca8:	0800a763 	.word	0x0800a763
 8005cac:	0800a77e 	.word	0x0800a77e
 8005cb0:	0800a799 	.word	0x0800a799
 8005cb4:	0800a7b4 	.word	0x0800a7b4
 8005cb8:	0800a7ce 	.word	0x0800a7ce
 8005cbc:	0800a7e3 	.word	0x0800a7e3
 8005cc0:	0800a7f3 	.word	0x0800a7f3
 8005cc4:	0800a806 	.word	0x0800a806
 8005cc8:	0800a821 	.word	0x0800a821
 8005ccc:	0800a83c 	.word	0x0800a83c
 8005cd0:	0800a857 	.word	0x0800a857
 8005cd4:	0800a871 	.word	0x0800a871
 8005cd8:	0800a886 	.word	0x0800a886
 8005cdc:	0800a974 	.word	0x0800a974
 8005ce0:	0800a892 	.word	0x0800a892
 8005ce4:	0800a8a1 	.word	0x0800a8a1
 8005ce8:	0800a8ae 	.word	0x0800a8ae
 8005cec:	0800a8bc 	.word	0x0800a8bc
 8005cf0:	0800a8cd 	.word	0x0800a8cd
 8005cf4:	0800a8dc 	.word	0x0800a8dc
 8005cf8:	0800a8ec 	.word	0x0800a8ec
 8005cfc:	0800a8fc 	.word	0x0800a8fc
 8005d00:	0800a90a 	.word	0x0800a90a

08005d04 <cmd_buf_reset>:
 8005d04:	2100      	movs	r1, #0
 8005d06:	4b03      	ldr	r3, [pc, #12]	; (8005d14 <cmd_buf_reset+0x10>)
 8005d08:	2240      	movs	r2, #64	; 0x40
 8005d0a:	4803      	ldr	r0, [pc, #12]	; (8005d18 <cmd_buf_reset+0x14>)
 8005d0c:	6019      	str	r1, [r3, #0]
 8005d0e:	f001 bc76 	b.w	80075fe <memset>
 8005d12:	bf00      	nop
 8005d14:	200002f8 	.word	0x200002f8
 8005d18:	200002b7 	.word	0x200002b7

08005d1c <send_vt100_key>:
 8005d1c:	b508      	push	{r3, lr}
 8005d1e:	f000 ff91 	bl	8006c44 <vt100_get_keycode>
 8005d22:	b128      	cbz	r0, 8005d30 <send_vt100_key+0x14>
 8005d24:	e8bd 4008 	ldmia.w	sp!, {r3, lr}
 8005d28:	7a01      	ldrb	r1, [r0, #8]
 8005d2a:	6840      	ldr	r0, [r0, #4]
 8005d2c:	f7ff bd62 	b.w	80057f4 <tracer_puts>
 8005d30:	bd08      	pop	{r3, pc}
	...

08005d34 <load_command_from_command_history>:
 8005d34:	4919      	ldr	r1, [pc, #100]	; (8005d9c <load_command_from_command_history+0x68>)
 8005d36:	4a1a      	ldr	r2, [pc, #104]	; (8005da0 <load_command_from_command_history+0x6c>)
 8005d38:	b510      	push	{r4, lr}
 8005d3a:	680b      	ldr	r3, [r1, #0]
 8005d3c:	6812      	ldr	r2, [r2, #0]
 8005d3e:	460c      	mov	r4, r1
 8005d40:	b9c0      	cbnz	r0, 8005d74 <load_command_from_command_history+0x40>
 8005d42:	b99b      	cbnz	r3, 8005d6c <load_command_from_command_history+0x38>
 8005d44:	2a07      	cmp	r2, #7
 8005d46:	d014      	beq.n	8005d72 <load_command_from_command_history+0x3e>
 8005d48:	2307      	movs	r3, #7
 8005d4a:	6023      	str	r3, [r4, #0]
 8005d4c:	f7ff ffda 	bl	8005d04 <cmd_buf_reset>
 8005d50:	4b14      	ldr	r3, [pc, #80]	; (8005da4 <load_command_from_command_history+0x70>)
 8005d52:	6821      	ldr	r1, [r4, #0]
 8005d54:	2240      	movs	r2, #64	; 0x40
 8005d56:	eb03 1181 	add.w	r1, r3, r1, lsl #6
 8005d5a:	4813      	ldr	r0, [pc, #76]	; (8005da8 <load_command_from_command_history+0x74>)
 8005d5c:	f001 fd3d 	bl	80077da <strncpy>
 8005d60:	4811      	ldr	r0, [pc, #68]	; (8005da8 <load_command_from_command_history+0x74>)
 8005d62:	f7fa f9f5 	bl	8000150 <strlen>
 8005d66:	4b11      	ldr	r3, [pc, #68]	; (8005dac <load_command_from_command_history+0x78>)
 8005d68:	6018      	str	r0, [r3, #0]
 8005d6a:	e002      	b.n	8005d72 <load_command_from_command_history+0x3e>
 8005d6c:	3b01      	subs	r3, #1
 8005d6e:	4293      	cmp	r3, r2
 8005d70:	d1eb      	bne.n	8005d4a <load_command_from_command_history+0x16>
 8005d72:	bd10      	pop	{r4, pc}
 8005d74:	4293      	cmp	r3, r2
 8005d76:	d0fc      	beq.n	8005d72 <load_command_from_command_history+0x3e>
 8005d78:	2b07      	cmp	r3, #7
 8005d7a:	d105      	bne.n	8005d88 <load_command_from_command_history+0x54>
 8005d7c:	b94a      	cbnz	r2, 8005d92 <load_command_from_command_history+0x5e>
 8005d7e:	600a      	str	r2, [r1, #0]
 8005d80:	e8bd 4010 	ldmia.w	sp!, {r4, lr}
 8005d84:	f7ff bfbe 	b.w	8005d04 <cmd_buf_reset>
 8005d88:	1c58      	adds	r0, r3, #1
 8005d8a:	4290      	cmp	r0, r2
 8005d8c:	d101      	bne.n	8005d92 <load_command_from_command_history+0x5e>
 8005d8e:	6008      	str	r0, [r1, #0]
 8005d90:	e7f6      	b.n	8005d80 <load_command_from_command_history+0x4c>
 8005d92:	3301      	adds	r3, #1
 8005d94:	2b08      	cmp	r3, #8
 8005d96:	bf08      	it	eq
 8005d98:	2300      	moveq	r3, #0
 8005d9a:	e7d6      	b.n	8005d4a <load_command_from_command_history+0x16>
 8005d9c:	200004fc 	.word	0x200004fc
 8005da0:	20000500 	.word	0x20000500
 8005da4:	200002fc 	.word	0x200002fc
 8005da8:	200002b7 	.word	0x200002b7
 8005dac:	200002f8 	.word	0x200002f8

08005db0 <uart_receive_byte>:
 8005db0:	b510      	push	{r4, lr}
 8005db2:	4604      	mov	r4, r0
 8005db4:	f7ff fd2e 	bl	8005814 <tracer_getchar>
 8005db8:	7020      	strb	r0, [r4, #0]
 8005dba:	b900      	cbnz	r0, 8005dbe <uart_receive_byte+0xe>
 8005dbc:	bd10      	pop	{r4, pc}
 8005dbe:	2001      	movs	r0, #1
 8005dc0:	e7fc      	b.n	8005dbc <uart_receive_byte+0xc>
	...

08005dc4 <print>:
 8005dc4:	b40f      	push	{r0, r1, r2, r3}
 8005dc6:	b513      	push	{r0, r1, r4, lr}
 8005dc8:	4c0c      	ldr	r4, [pc, #48]	; (8005dfc <print+0x38>)
 8005dca:	ab04      	add	r3, sp, #16
 8005dcc:	f853 2b04 	ldr.w	r2, [r3], #4
 8005dd0:	217c      	movs	r1, #124	; 0x7c
 8005dd2:	4620      	mov	r0, r4
 8005dd4:	9301      	str	r3, [sp, #4]
 8005dd6:	f001 fe27 	bl	8007a28 <vsniprintf>
 8005dda:	4909      	ldr	r1, [pc, #36]	; (8005e00 <print+0x3c>)
 8005ddc:	4620      	mov	r0, r4
 8005dde:	f001 fcdb 	bl	8007798 <strcat>
 8005de2:	4620      	mov	r0, r4
 8005de4:	f7fa f9b4 	bl	8000150 <strlen>
 8005de8:	b281      	uxth	r1, r0
 8005dea:	4620      	mov	r0, r4
 8005dec:	f7ff fd02 	bl	80057f4 <tracer_puts>
 8005df0:	b002      	add	sp, #8
 8005df2:	e8bd 4010 	ldmia.w	sp!, {r4, lr}
 8005df6:	b004      	add	sp, #16
 8005df8:	4770      	bx	lr
 8005dfa:	bf00      	nop
 8005dfc:	20000504 	.word	0x20000504
 8005e00:	0800a92d 	.word	0x0800a92d

08005e04 <print_no_newline>:
 8005e04:	b40f      	push	{r0, r1, r2, r3}
 8005e06:	b513      	push	{r0, r1, r4, lr}
 8005e08:	4c0a      	ldr	r4, [pc, #40]	; (8005e34 <print_no_newline+0x30>)
 8005e0a:	ab04      	add	r3, sp, #16
 8005e0c:	f853 2b04 	ldr.w	r2, [r3], #4
 8005e10:	217c      	movs	r1, #124	; 0x7c
 8005e12:	4620      	mov	r0, r4
 8005e14:	9301      	str	r3, [sp, #4]
 8005e16:	f001 fe07 	bl	8007a28 <vsniprintf>
 8005e1a:	4620      	mov	r0, r4
 8005e1c:	f7fa f998 	bl	8000150 <strlen>
 8005e20:	b281      	uxth	r1, r0
 8005e22:	4620      	mov	r0, r4
 8005e24:	f7ff fce6 	bl	80057f4 <tracer_puts>
 8005e28:	b002      	add	sp, #8
 8005e2a:	e8bd 4010 	ldmia.w	sp!, {r4, lr}
 8005e2e:	b004      	add	sp, #16
 8005e30:	4770      	bx	lr
 8005e32:	bf00      	nop
 8005e34:	20000504 	.word	0x20000504

08005e38 <shell_process>:
 8005e38:	e92d 4ff0 	stmdb	sp!, {r4, r5, r6, r7, r8, r9, sl, fp, lr}
 8005e3c:	4b75      	ldr	r3, [pc, #468]	; (8006014 <shell_process+0x1dc>)
 8005e3e:	b08f      	sub	sp, #60	; 0x3c
 8005e40:	6818      	ldr	r0, [r3, #0]
 8005e42:	791b      	ldrb	r3, [r3, #4]
 8005e44:	9003      	str	r0, [sp, #12]
 8005e46:	f88d 3010 	strb.w	r3, [sp, #16]
 8005e4a:	4b73      	ldr	r3, [pc, #460]	; (8006018 <shell_process+0x1e0>)
 8005e4c:	781b      	ldrb	r3, [r3, #0]
 8005e4e:	b113      	cbz	r3, 8005e56 <shell_process+0x1e>
 8005e50:	4b72      	ldr	r3, [pc, #456]	; (800601c <shell_process+0x1e4>)
 8005e52:	781b      	ldrb	r3, [r3, #0]
 8005e54:	b9e3      	cbnz	r3, 8005e90 <shell_process+0x58>
 8005e56:	4c72      	ldr	r4, [pc, #456]	; (8006020 <shell_process+0x1e8>)
 8005e58:	4e72      	ldr	r6, [pc, #456]	; (8006024 <shell_process+0x1ec>)
 8005e5a:	e013      	b.n	8005e84 <shell_process+0x4c>
 8005e5c:	f89d 000b 	ldrb.w	r0, [sp, #11]
 8005e60:	f000 feae 	bl	8006bc0 <vt100_process_byte>
 8005e64:	2801      	cmp	r0, #1
 8005e66:	d116      	bne.n	8005e96 <shell_process+0x5e>
 8005e68:	6823      	ldr	r3, [r4, #0]
 8005e6a:	2b3f      	cmp	r3, #63	; 0x3f
 8005e6c:	d805      	bhi.n	8005e7a <shell_process+0x42>
 8005e6e:	1c5a      	adds	r2, r3, #1
 8005e70:	f89d 100b 	ldrb.w	r1, [sp, #11]
 8005e74:	6022      	str	r2, [r4, #0]
 8005e76:	4a6c      	ldr	r2, [pc, #432]	; (8006028 <shell_process+0x1f0>)
 8005e78:	54d1      	strb	r1, [r2, r3]
 8005e7a:	2101      	movs	r1, #1
 8005e7c:	f10d 000b 	add.w	r0, sp, #11
 8005e80:	f7ff fcb8 	bl	80057f4 <tracer_puts>
 8005e84:	f10d 000b 	add.w	r0, sp, #11
 8005e88:	f7ff ff92 	bl	8005db0 <uart_receive_byte>
 8005e8c:	2801      	cmp	r0, #1
 8005e8e:	d0e5      	beq.n	8005e5c <shell_process+0x24>
 8005e90:	b00f      	add	sp, #60	; 0x3c
 8005e92:	e8bd 8ff0 	ldmia.w	sp!, {r4, r5, r6, r7, r8, r9, sl, fp, pc}
 8005e96:	2808      	cmp	r0, #8
 8005e98:	d17e      	bne.n	8005f98 <shell_process+0x160>
 8005e9a:	4864      	ldr	r0, [pc, #400]	; (800602c <shell_process+0x1f4>)
 8005e9c:	f7ff ff92 	bl	8005dc4 <print>
 8005ea0:	4961      	ldr	r1, [pc, #388]	; (8006028 <shell_process+0x1f0>)
 8005ea2:	780b      	ldrb	r3, [r1, #0]
 8005ea4:	b183      	cbz	r3, 8005ec8 <shell_process+0x90>
 8005ea6:	4f62      	ldr	r7, [pc, #392]	; (8006030 <shell_process+0x1f8>)
 8005ea8:	4862      	ldr	r0, [pc, #392]	; (8006034 <shell_process+0x1fc>)
 8005eaa:	683d      	ldr	r5, [r7, #0]
 8005eac:	2240      	movs	r2, #64	; 0x40
 8005eae:	eb00 1085 	add.w	r0, r0, r5, lsl #6
 8005eb2:	3501      	adds	r5, #1
 8005eb4:	f001 fc91 	bl	80077da <strncpy>
 8005eb8:	2d07      	cmp	r5, #7
 8005eba:	bfca      	itet	gt
 8005ebc:	2300      	movgt	r3, #0
 8005ebe:	603d      	strle	r5, [r7, #0]
 8005ec0:	603b      	strgt	r3, [r7, #0]
 8005ec2:	683a      	ldr	r2, [r7, #0]
 8005ec4:	4b5c      	ldr	r3, [pc, #368]	; (8006038 <shell_process+0x200>)
 8005ec6:	601a      	str	r2, [r3, #0]
 8005ec8:	495c      	ldr	r1, [pc, #368]	; (800603c <shell_process+0x204>)
 8005eca:	4857      	ldr	r0, [pc, #348]	; (8006028 <shell_process+0x1f0>)
 8005ecc:	f001 fc9a 	bl	8007804 <strtok>
 8005ed0:	2500      	movs	r5, #0
 8005ed2:	f10d 0838 	add.w	r8, sp, #56	; 0x38
 8005ed6:	4f59      	ldr	r7, [pc, #356]	; (800603c <shell_process+0x204>)
 8005ed8:	f848 0d24 	str.w	r0, [r8, #-36]!
 8005edc:	f858 3025 	ldr.w	r3, [r8, r5, lsl #2]
 8005ee0:	b10b      	cbz	r3, 8005ee6 <shell_process+0xae>
 8005ee2:	2d07      	cmp	r5, #7
 8005ee4:	d12c      	bne.n	8005f40 <shell_process+0x108>
 8005ee6:	2240      	movs	r2, #64	; 0x40
 8005ee8:	4955      	ldr	r1, [pc, #340]	; (8006040 <shell_process+0x208>)
 8005eea:	9805      	ldr	r0, [sp, #20]
 8005eec:	f001 fc63 	bl	80077b6 <strncmp>
 8005ef0:	4607      	mov	r7, r0
 8005ef2:	b368      	cbz	r0, 8005f50 <shell_process+0x118>
 8005ef4:	2240      	movs	r2, #64	; 0x40
 8005ef6:	4953      	ldr	r1, [pc, #332]	; (8006044 <shell_process+0x20c>)
 8005ef8:	9805      	ldr	r0, [sp, #20]
 8005efa:	f001 fc5c 	bl	80077b6 <strncmp>
 8005efe:	2800      	cmp	r0, #0
 8005f00:	d038      	beq.n	8005f74 <shell_process+0x13c>
 8005f02:	f04f 0900 	mov.w	r9, #0
 8005f06:	f04f 0b0c 	mov.w	fp, #12
 8005f0a:	4b4f      	ldr	r3, [pc, #316]	; (8006048 <shell_process+0x210>)
 8005f0c:	681f      	ldr	r7, [r3, #0]
 8005f0e:	45b9      	cmp	r9, r7
 8005f10:	da36      	bge.n	8005f80 <shell_process+0x148>
 8005f12:	fb0b f309 	mul.w	r3, fp, r9
 8005f16:	2240      	movs	r2, #64	; 0x40
 8005f18:	5999      	ldr	r1, [r3, r6]
 8005f1a:	9805      	ldr	r0, [sp, #20]
 8005f1c:	eb03 0a06 	add.w	sl, r3, r6
 8005f20:	f001 fc49 	bl	80077b6 <strncmp>
 8005f24:	b948      	cbnz	r0, 8005f3a <shell_process+0x102>
 8005f26:	f8da 3008 	ldr.w	r3, [sl, #8]
 8005f2a:	4641      	mov	r1, r8
 8005f2c:	1e68      	subs	r0, r5, #1
 8005f2e:	4798      	blx	r3
 8005f30:	b918      	cbnz	r0, 8005f3a <shell_process+0x102>
 8005f32:	f8da 0004 	ldr.w	r0, [sl, #4]
 8005f36:	f7ff ff45 	bl	8005dc4 <print>
 8005f3a:	f109 0901 	add.w	r9, r9, #1
 8005f3e:	e7e6      	b.n	8005f0e <shell_process+0xd6>
 8005f40:	4639      	mov	r1, r7
 8005f42:	2000      	movs	r0, #0
 8005f44:	f001 fc5e 	bl	8007804 <strtok>
 8005f48:	3501      	adds	r5, #1
 8005f4a:	f848 0025 	str.w	r0, [r8, r5, lsl #2]
 8005f4e:	e7c5      	b.n	8005edc <shell_process+0xa4>
 8005f50:	f04f 0a0c 	mov.w	sl, #12
 8005f54:	4835      	ldr	r0, [pc, #212]	; (800602c <shell_process+0x1f4>)
 8005f56:	f7ff ff35 	bl	8005dc4 <print>
 8005f5a:	4b3b      	ldr	r3, [pc, #236]	; (8006048 <shell_process+0x210>)
 8005f5c:	681b      	ldr	r3, [r3, #0]
 8005f5e:	9301      	str	r3, [sp, #4]
 8005f60:	9b01      	ldr	r3, [sp, #4]
 8005f62:	429f      	cmp	r7, r3
 8005f64:	dac6      	bge.n	8005ef4 <shell_process+0xbc>
 8005f66:	fb0a f307 	mul.w	r3, sl, r7
 8005f6a:	5998      	ldr	r0, [r3, r6]
 8005f6c:	f7ff ff2a 	bl	8005dc4 <print>
 8005f70:	3701      	adds	r7, #1
 8005f72:	e7f5      	b.n	8005f60 <shell_process+0x128>
 8005f74:	200d      	movs	r0, #13
 8005f76:	f7ff fed1 	bl	8005d1c <send_vt100_key>
 8005f7a:	200e      	movs	r0, #14
 8005f7c:	f7ff fece 	bl	8005d1c <send_vt100_key>
 8005f80:	f7ff fec0 	bl	8005d04 <cmd_buf_reset>
 8005f84:	f10d 000b 	add.w	r0, sp, #11
 8005f88:	2101      	movs	r1, #1
 8005f8a:	f7ff fc33 	bl	80057f4 <tracer_puts>
 8005f8e:	a903      	add	r1, sp, #12
 8005f90:	482e      	ldr	r0, [pc, #184]	; (800604c <shell_process+0x214>)
 8005f92:	f7ff ff37 	bl	8005e04 <print_no_newline>
 8005f96:	e775      	b.n	8005e84 <shell_process+0x4c>
 8005f98:	2800      	cmp	r0, #0
 8005f9a:	f43f af73 	beq.w	8005e84 <shell_process+0x4c>
 8005f9e:	2807      	cmp	r0, #7
 8005fa0:	d10e      	bne.n	8005fc0 <shell_process+0x188>
 8005fa2:	6823      	ldr	r3, [r4, #0]
 8005fa4:	2b00      	cmp	r3, #0
 8005fa6:	dd04      	ble.n	8005fb2 <shell_process+0x17a>
 8005fa8:	2100      	movs	r1, #0
 8005faa:	4a1f      	ldr	r2, [pc, #124]	; (8006028 <shell_process+0x1f0>)
 8005fac:	3b01      	subs	r3, #1
 8005fae:	6023      	str	r3, [r4, #0]
 8005fb0:	54d1      	strb	r1, [r2, r3]
 8005fb2:	2007      	movs	r0, #7
 8005fb4:	f7ff feb2 	bl	8005d1c <send_vt100_key>
 8005fb8:	200a      	movs	r0, #10
 8005fba:	f7ff feaf 	bl	8005d1c <send_vt100_key>
 8005fbe:	e761      	b.n	8005e84 <shell_process+0x4c>
 8005fc0:	2802      	cmp	r0, #2
 8005fc2:	d116      	bne.n	8005ff2 <shell_process+0x1ba>
 8005fc4:	200b      	movs	r0, #11
 8005fc6:	f7ff fea9 	bl	8005d1c <send_vt100_key>
 8005fca:	2500      	movs	r5, #0
 8005fcc:	6823      	ldr	r3, [r4, #0]
 8005fce:	3304      	adds	r3, #4
 8005fd0:	42ab      	cmp	r3, r5
 8005fd2:	d809      	bhi.n	8005fe8 <shell_process+0x1b0>
 8005fd4:	a803      	add	r0, sp, #12
 8005fd6:	f7ff ff15 	bl	8005e04 <print_no_newline>
 8005fda:	2000      	movs	r0, #0
 8005fdc:	f7ff feaa 	bl	8005d34 <load_command_from_command_history>
 8005fe0:	4811      	ldr	r0, [pc, #68]	; (8006028 <shell_process+0x1f0>)
 8005fe2:	f7ff ff0f 	bl	8005e04 <print_no_newline>
 8005fe6:	e74d      	b.n	8005e84 <shell_process+0x4c>
 8005fe8:	200c      	movs	r0, #12
 8005fea:	f7ff fe97 	bl	8005d1c <send_vt100_key>
 8005fee:	3501      	adds	r5, #1
 8005ff0:	e7ec      	b.n	8005fcc <shell_process+0x194>
 8005ff2:	2803      	cmp	r0, #3
 8005ff4:	f47f af46 	bne.w	8005e84 <shell_process+0x4c>
 8005ff8:	200b      	movs	r0, #11
 8005ffa:	f7ff fe8f 	bl	8005d1c <send_vt100_key>
 8005ffe:	2500      	movs	r5, #0
 8006000:	6823      	ldr	r3, [r4, #0]
 8006002:	42ab      	cmp	r3, r5
 8006004:	dc01      	bgt.n	800600a <shell_process+0x1d2>
 8006006:	2001      	movs	r0, #1
 8006008:	e7e8      	b.n	8005fdc <shell_process+0x1a4>
 800600a:	200c      	movs	r0, #12
 800600c:	f7ff fe86 	bl	8005d1c <send_vt100_key>
 8006010:	3501      	adds	r5, #1
 8006012:	e7f5      	b.n	8006000 <shell_process+0x1c8>
 8006014:	0800a49b 	.word	0x0800a49b
 8006018:	200002b0 	.word	0x200002b0
 800601c:	200002b1 	.word	0x200002b1
 8006020:	200002f8 	.word	0x200002f8
 8006024:	0800a9d8 	.word	0x0800a9d8
 8006028:	200002b7 	.word	0x200002b7
 800602c:	0800a92f 	.word	0x0800a92f
 8006030:	20000500 	.word	0x20000500
 8006034:	200002fc 	.word	0x200002fc
 8006038:	200004fc 	.word	0x200004fc
 800603c:	0800b3ae 	.word	0x0800b3ae
 8006040:	0800a930 	.word	0x0800a930
 8006044:	0800a935 	.word	0x0800a935
 8006048:	0800a940 	.word	0x0800a940
 800604c:	0800a939 	.word	0x0800a939

08006050 <shell_cmd_dumpadc>:
 8006050:	b508      	push	{r3, lr}
 8006052:	f000 fcd9 	bl	8006a08 <print_adc_data>
 8006056:	2001      	movs	r0, #1
 8006058:	bd08      	pop	{r3, pc}
	...

0800605c <shell_cmd_storedefaultregs>:
 800605c:	b510      	push	{r4, lr}
 800605e:	2000      	movs	r0, #0
 8006060:	f7fe f98e 	bl	8004380 <get_reg>
 8006064:	4c38      	ldr	r4, [pc, #224]	; (8006148 <shell_cmd_storedefaultregs+0xec>)
 8006066:	8020      	strh	r0, [r4, #0]
 8006068:	2001      	movs	r0, #1
 800606a:	f7fe f989 	bl	8004380 <get_reg>
 800606e:	8060      	strh	r0, [r4, #2]
 8006070:	2002      	movs	r0, #2
 8006072:	f7fe f985 	bl	8004380 <get_reg>
 8006076:	80a0      	strh	r0, [r4, #4]
 8006078:	2003      	movs	r0, #3
 800607a:	f7fe f981 	bl	8004380 <get_reg>
 800607e:	80e0      	strh	r0, [r4, #6]
 8006080:	2004      	movs	r0, #4
 8006082:	f7fe f97d 	bl	8004380 <get_reg>
 8006086:	8120      	strh	r0, [r4, #8]
 8006088:	2005      	movs	r0, #5
 800608a:	f7fe f979 	bl	8004380 <get_reg>
 800608e:	8160      	strh	r0, [r4, #10]
 8006090:	2006      	movs	r0, #6
 8006092:	f7fe f975 	bl	8004380 <get_reg>
 8006096:	81a0      	strh	r0, [r4, #12]
 8006098:	2007      	movs	r0, #7
 800609a:	f7fe f971 	bl	8004380 <get_reg>
 800609e:	81e0      	strh	r0, [r4, #14]
 80060a0:	2008      	movs	r0, #8
 80060a2:	f7fe f96d 	bl	8004380 <get_reg>
 80060a6:	8220      	strh	r0, [r4, #16]
 80060a8:	2009      	movs	r0, #9
 80060aa:	f7fe f969 	bl	8004380 <get_reg>
 80060ae:	8260      	strh	r0, [r4, #18]
 80060b0:	200a      	movs	r0, #10
 80060b2:	f7fe f965 	bl	8004380 <get_reg>
 80060b6:	82a0      	strh	r0, [r4, #20]
 80060b8:	f7fe f91e 	bl	80042f8 <get_mode>
 80060bc:	2801      	cmp	r0, #1
 80060be:	d140      	bne.n	8006142 <shell_cmd_storedefaultregs+0xe6>
 80060c0:	200b      	movs	r0, #11
 80060c2:	f7fe f95d 	bl	8004380 <get_reg>
 80060c6:	75a0      	strb	r0, [r4, #22]
 80060c8:	200c      	movs	r0, #12
 80060ca:	f7fe f959 	bl	8004380 <get_reg>
 80060ce:	75e0      	strb	r0, [r4, #23]
 80060d0:	200d      	movs	r0, #13
 80060d2:	f7fe f955 	bl	8004380 <get_reg>
 80060d6:	7620      	strb	r0, [r4, #24]
 80060d8:	200e      	movs	r0, #14
 80060da:	f7fe f951 	bl	8004380 <get_reg>
 80060de:	7660      	strb	r0, [r4, #25]
 80060e0:	200f      	movs	r0, #15
 80060e2:	f7fe f94d 	bl	8004380 <get_reg>
 80060e6:	76a0      	strb	r0, [r4, #26]
 80060e8:	2010      	movs	r0, #16
 80060ea:	f7fe f949 	bl	8004380 <get_reg>
 80060ee:	76e0      	strb	r0, [r4, #27]
 80060f0:	2011      	movs	r0, #17
 80060f2:	f7fe f945 	bl	8004380 <get_reg>
 80060f6:	7720      	strb	r0, [r4, #28]
 80060f8:	2012      	movs	r0, #18
 80060fa:	f7fe f941 	bl	8004380 <get_reg>
 80060fe:	7760      	strb	r0, [r4, #29]
 8006100:	2013      	movs	r0, #19
 8006102:	f7fe f93d 	bl	8004380 <get_reg>
 8006106:	77a0      	strb	r0, [r4, #30]
 8006108:	2014      	movs	r0, #20
 800610a:	f7fe f939 	bl	8004380 <get_reg>
 800610e:	77e0      	strb	r0, [r4, #31]
 8006110:	2015      	movs	r0, #21
 8006112:	f7fe f935 	bl	8004380 <get_reg>
 8006116:	f884 0020 	strb.w	r0, [r4, #32]
 800611a:	2016      	movs	r0, #22
 800611c:	f7fe f930 	bl	8004380 <get_reg>
 8006120:	f884 0021 	strb.w	r0, [r4, #33]	; 0x21
 8006124:	2017      	movs	r0, #23
 8006126:	f7fe f92b 	bl	8004380 <get_reg>
 800612a:	f884 0022 	strb.w	r0, [r4, #34]	; 0x22
 800612e:	2018      	movs	r0, #24
 8006130:	f7fe f926 	bl	8004380 <get_reg>
 8006134:	f884 0023 	strb.w	r0, [r4, #35]	; 0x23
 8006138:	2019      	movs	r0, #25
 800613a:	f7fe f921 	bl	8004380 <get_reg>
 800613e:	f884 0024 	strb.w	r0, [r4, #36]	; 0x24
 8006142:	2001      	movs	r0, #1
 8006144:	bd10      	pop	{r4, pc}
 8006146:	bf00      	nop
 8006148:	20000730 	.word	0x20000730

0800614c <shell_cmd_getmode>:
 800614c:	b508      	push	{r3, lr}
 800614e:	f7fe f8d3 	bl	80042f8 <get_mode>
 8006152:	b118      	cbz	r0, 800615c <shell_cmd_getmode+0x10>
 8006154:	2801      	cmp	r0, #1
 8006156:	d005      	beq.n	8006164 <shell_cmd_getmode+0x18>
 8006158:	2001      	movs	r0, #1
 800615a:	bd08      	pop	{r3, pc}
 800615c:	4802      	ldr	r0, [pc, #8]	; (8006168 <shell_cmd_getmode+0x1c>)
 800615e:	f7ff fe31 	bl	8005dc4 <print>
 8006162:	e7f9      	b.n	8006158 <shell_cmd_getmode+0xc>
 8006164:	4801      	ldr	r0, [pc, #4]	; (800616c <shell_cmd_getmode+0x20>)
 8006166:	e7fa      	b.n	800615e <shell_cmd_getmode+0x12>
 8006168:	0800a9b5 	.word	0x0800a9b5
 800616c:	0800a9c2 	.word	0x0800a9c2

08006170 <shell_cmd_savesettings>:
 8006170:	b508      	push	{r3, lr}
 8006172:	f7ff fc15 	bl	80059a0 <save_settings>
 8006176:	2001      	movs	r0, #1
 8006178:	bd08      	pop	{r3, pc}

0800617a <shell_cmd_dumpsettings>:
 800617a:	b508      	push	{r3, lr}
 800617c:	f7ff fc22 	bl	80059c4 <print_settings>
 8006180:	2001      	movs	r0, #1
 8006182:	bd08      	pop	{r3, pc}

08006184 <shell_cmd_getaddr>:
 8006184:	b508      	push	{r3, lr}
 8006186:	f7fe f8b1 	bl	80042ec <get_addr>
 800618a:	4601      	mov	r1, r0
 800618c:	4802      	ldr	r0, [pc, #8]	; (8006198 <shell_cmd_getaddr+0x14>)
 800618e:	f7ff fe19 	bl	8005dc4 <print>
 8006192:	2001      	movs	r0, #1
 8006194:	bd08      	pop	{r3, pc}
 8006196:	bf00      	nop
 8006198:	0800a9a2 	.word	0x0800a9a2

0800619c <shell_cmd_dumpregs>:
 800619c:	b5f7      	push	{r0, r1, r2, r4, r5, r6, r7, lr}
 800619e:	f7fe f8a5 	bl	80042ec <get_addr>
 80061a2:	4601      	mov	r1, r0
 80061a4:	4816      	ldr	r0, [pc, #88]	; (8006200 <shell_cmd_dumpregs+0x64>)
 80061a6:	f7ff fe0d 	bl	8005dc4 <print>
 80061aa:	f7fe f8ab 	bl	8004304 <get_reg_length>
 80061ae:	4601      	mov	r1, r0
 80061b0:	4814      	ldr	r0, [pc, #80]	; (8006204 <shell_cmd_dumpregs+0x68>)
 80061b2:	f7ff fe07 	bl	8005dc4 <print>
 80061b6:	f7fe f89f 	bl	80042f8 <get_mode>
 80061ba:	4601      	mov	r1, r0
 80061bc:	4812      	ldr	r0, [pc, #72]	; (8006208 <shell_cmd_dumpregs+0x6c>)
 80061be:	f7ff fe01 	bl	8005dc4 <print>
 80061c2:	4812      	ldr	r0, [pc, #72]	; (800620c <shell_cmd_dumpregs+0x70>)
 80061c4:	f7ff fdfe 	bl	8005dc4 <print>
 80061c8:	2400      	movs	r4, #0
 80061ca:	4d11      	ldr	r5, [pc, #68]	; (8006210 <shell_cmd_dumpregs+0x74>)
 80061cc:	f7fe f89a 	bl	8004304 <get_reg_length>
 80061d0:	42a0      	cmp	r0, r4
 80061d2:	d802      	bhi.n	80061da <shell_cmd_dumpregs+0x3e>
 80061d4:	2001      	movs	r0, #1
 80061d6:	b003      	add	sp, #12
 80061d8:	bdf0      	pop	{r4, r5, r6, r7, pc}
 80061da:	f7fe f887 	bl	80042ec <get_addr>
 80061de:	1906      	adds	r6, r0, r4
 80061e0:	4620      	mov	r0, r4
 80061e2:	f7fe f8dd 	bl	80043a0 <get_reg_name>
 80061e6:	4607      	mov	r7, r0
 80061e8:	4620      	mov	r0, r4
 80061ea:	f7fe f8c9 	bl	8004380 <get_reg>
 80061ee:	4621      	mov	r1, r4
 80061f0:	9000      	str	r0, [sp, #0]
 80061f2:	463b      	mov	r3, r7
 80061f4:	4632      	mov	r2, r6
 80061f6:	4628      	mov	r0, r5
 80061f8:	f7ff fde4 	bl	8005dc4 <print>
 80061fc:	3401      	adds	r4, #1
 80061fe:	e7e5      	b.n	80061cc <shell_cmd_dumpregs+0x30>
 8006200:	0800a9a2 	.word	0x0800a9a2
 8006204:	0800a944 	.word	0x0800a944
 8006208:	0800a95b 	.word	0x0800a95b
 800620c:	0800a964 	.word	0x0800a964
 8006210:	0800a980 	.word	0x0800a980

08006214 <shell_cmd_switchuartmode>:
 8006214:	2802      	cmp	r0, #2
 8006216:	b508      	push	{r3, lr}
 8006218:	d10d      	bne.n	8006236 <shell_cmd_switchuartmode+0x22>
 800621a:	6848      	ldr	r0, [r1, #4]
 800621c:	f001 f99d 	bl	800755a <atoi>
 8006220:	b118      	cbz	r0, 800622a <shell_cmd_switchuartmode+0x16>
 8006222:	2801      	cmp	r0, #1
 8006224:	d005      	beq.n	8006232 <shell_cmd_switchuartmode+0x1e>
 8006226:	2001      	movs	r0, #1
 8006228:	e002      	b.n	8006230 <shell_cmd_switchuartmode+0x1c>
 800622a:	2001      	movs	r0, #1
 800622c:	4b03      	ldr	r3, [pc, #12]	; (800623c <shell_cmd_switchuartmode+0x28>)
 800622e:	6018      	str	r0, [r3, #0]
 8006230:	bd08      	pop	{r3, pc}
 8006232:	4b03      	ldr	r3, [pc, #12]	; (8006240 <shell_cmd_switchuartmode+0x2c>)
 8006234:	e7fb      	b.n	800622e <shell_cmd_switchuartmode+0x1a>
 8006236:	2000      	movs	r0, #0
 8006238:	e7fa      	b.n	8006230 <shell_cmd_switchuartmode+0x1c>
 800623a:	bf00      	nop
 800623c:	200002b0 	.word	0x200002b0
 8006240:	200002b1 	.word	0x200002b1

08006244 <shell_cmd_setuartmode>:
 8006244:	2802      	cmp	r0, #2
 8006246:	b538      	push	{r3, r4, r5, lr}
 8006248:	460d      	mov	r5, r1
 800624a:	d117      	bne.n	800627c <shell_cmd_setuartmode+0x38>
 800624c:	6848      	ldr	r0, [r1, #4]
 800624e:	f001 f984 	bl	800755a <atoi>
 8006252:	4604      	mov	r4, r0
 8006254:	b118      	cbz	r0, 800625e <shell_cmd_setuartmode+0x1a>
 8006256:	2801      	cmp	r0, #1
 8006258:	d008      	beq.n	800626c <shell_cmd_setuartmode+0x28>
 800625a:	2401      	movs	r4, #1
 800625c:	e00c      	b.n	8006278 <shell_cmd_setuartmode+0x34>
 800625e:	68a8      	ldr	r0, [r5, #8]
 8006260:	f001 f97b 	bl	800755a <atoi>
 8006264:	4b06      	ldr	r3, [pc, #24]	; (8006280 <shell_cmd_setuartmode+0x3c>)
 8006266:	f883 002a 	strb.w	r0, [r3, #42]	; 0x2a
 800626a:	e7f6      	b.n	800625a <shell_cmd_setuartmode+0x16>
 800626c:	68a8      	ldr	r0, [r5, #8]
 800626e:	f001 f974 	bl	800755a <atoi>
 8006272:	4b03      	ldr	r3, [pc, #12]	; (8006280 <shell_cmd_setuartmode+0x3c>)
 8006274:	f883 002b 	strb.w	r0, [r3, #43]	; 0x2b
 8006278:	4620      	mov	r0, r4
 800627a:	bd38      	pop	{r3, r4, r5, pc}
 800627c:	2400      	movs	r4, #0
 800627e:	e7fb      	b.n	8006278 <shell_cmd_setuartmode+0x34>
 8006280:	20000730 	.word	0x20000730

08006284 <shell_cmd_setstriplength>:
 8006284:	2802      	cmp	r0, #2
 8006286:	b538      	push	{r3, r4, r5, lr}
 8006288:	460d      	mov	r5, r1
 800628a:	d115      	bne.n	80062b8 <shell_cmd_setstriplength+0x34>
 800628c:	6848      	ldr	r0, [r1, #4]
 800628e:	f001 f964 	bl	800755a <atoi>
 8006292:	4604      	mov	r4, r0
 8006294:	b118      	cbz	r0, 800629e <shell_cmd_setstriplength+0x1a>
 8006296:	2801      	cmp	r0, #1
 8006298:	d007      	beq.n	80062aa <shell_cmd_setstriplength+0x26>
 800629a:	2401      	movs	r4, #1
 800629c:	e00a      	b.n	80062b4 <shell_cmd_setstriplength+0x30>
 800629e:	68a8      	ldr	r0, [r5, #8]
 80062a0:	f001 f95b 	bl	800755a <atoi>
 80062a4:	4b05      	ldr	r3, [pc, #20]	; (80062bc <shell_cmd_setstriplength+0x38>)
 80062a6:	84d8      	strh	r0, [r3, #38]	; 0x26
 80062a8:	e7f7      	b.n	800629a <shell_cmd_setstriplength+0x16>
 80062aa:	68a8      	ldr	r0, [r5, #8]
 80062ac:	f001 f955 	bl	800755a <atoi>
 80062b0:	4b02      	ldr	r3, [pc, #8]	; (80062bc <shell_cmd_setstriplength+0x38>)
 80062b2:	8518      	strh	r0, [r3, #40]	; 0x28
 80062b4:	4620      	mov	r0, r4
 80062b6:	bd38      	pop	{r3, r4, r5, pc}
 80062b8:	2400      	movs	r4, #0
 80062ba:	e7fb      	b.n	80062b4 <shell_cmd_setstriplength+0x30>
 80062bc:	20000730 	.word	0x20000730

080062c0 <shell_cmd_settriggerctrl>:
 80062c0:	2805      	cmp	r0, #5
 80062c2:	b570      	push	{r4, r5, r6, lr}
 80062c4:	460c      	mov	r4, r1
 80062c6:	d135      	bne.n	8006334 <shell_cmd_settriggerctrl+0x74>
 80062c8:	6848      	ldr	r0, [r1, #4]
 80062ca:	f001 f946 	bl	800755a <atoi>
 80062ce:	4605      	mov	r5, r0
 80062d0:	b118      	cbz	r0, 80062da <shell_cmd_settriggerctrl+0x1a>
 80062d2:	2801      	cmp	r0, #1
 80062d4:	d017      	beq.n	8006306 <shell_cmd_settriggerctrl+0x46>
 80062d6:	2501      	movs	r5, #1
 80062d8:	e02a      	b.n	8006330 <shell_cmd_settriggerctrl+0x70>
 80062da:	68a0      	ldr	r0, [r4, #8]
 80062dc:	f001 f93d 	bl	800755a <atoi>
 80062e0:	4d15      	ldr	r5, [pc, #84]	; (8006338 <shell_cmd_settriggerctrl+0x78>)
 80062e2:	f885 0030 	strb.w	r0, [r5, #48]	; 0x30
 80062e6:	68e0      	ldr	r0, [r4, #12]
 80062e8:	f001 f937 	bl	800755a <atoi>
 80062ec:	f885 0031 	strb.w	r0, [r5, #49]	; 0x31
 80062f0:	6920      	ldr	r0, [r4, #16]
 80062f2:	f001 f932 	bl	800755a <atoi>
 80062f6:	f885 002e 	strb.w	r0, [r5, #46]	; 0x2e
 80062fa:	6960      	ldr	r0, [r4, #20]
 80062fc:	f001 f92d 	bl	800755a <atoi>
 8006300:	f885 002f 	strb.w	r0, [r5, #47]	; 0x2f
 8006304:	e7e7      	b.n	80062d6 <shell_cmd_settriggerctrl+0x16>
 8006306:	68a0      	ldr	r0, [r4, #8]
 8006308:	f001 f927 	bl	800755a <atoi>
 800630c:	4e0a      	ldr	r6, [pc, #40]	; (8006338 <shell_cmd_settriggerctrl+0x78>)
 800630e:	f886 0037 	strb.w	r0, [r6, #55]	; 0x37
 8006312:	68e0      	ldr	r0, [r4, #12]
 8006314:	f001 f921 	bl	800755a <atoi>
 8006318:	f886 0038 	strb.w	r0, [r6, #56]	; 0x38
 800631c:	6920      	ldr	r0, [r4, #16]
 800631e:	f001 f91c 	bl	800755a <atoi>
 8006322:	f886 0035 	strb.w	r0, [r6, #53]	; 0x35
 8006326:	6960      	ldr	r0, [r4, #20]
 8006328:	f001 f917 	bl	800755a <atoi>
 800632c:	f886 0036 	strb.w	r0, [r6, #54]	; 0x36
 8006330:	4628      	mov	r0, r5
 8006332:	bd70      	pop	{r4, r5, r6, pc}
 8006334:	2500      	movs	r5, #0
 8006336:	e7fb      	b.n	8006330 <shell_cmd_settriggerctrl+0x70>
 8006338:	20000730 	.word	0x20000730

0800633c <shell_cmd_settriggerconfig>:
 800633c:	2804      	cmp	r0, #4
 800633e:	b570      	push	{r4, r5, r6, lr}
 8006340:	460c      	mov	r4, r1
 8006342:	d12b      	bne.n	800639c <shell_cmd_settriggerconfig+0x60>
 8006344:	6848      	ldr	r0, [r1, #4]
 8006346:	f001 f908 	bl	800755a <atoi>
 800634a:	4605      	mov	r5, r0
 800634c:	b118      	cbz	r0, 8006356 <shell_cmd_settriggerconfig+0x1a>
 800634e:	2801      	cmp	r0, #1
 8006350:	d012      	beq.n	8006378 <shell_cmd_settriggerconfig+0x3c>
 8006352:	2501      	movs	r5, #1
 8006354:	e020      	b.n	8006398 <shell_cmd_settriggerconfig+0x5c>
 8006356:	68a0      	ldr	r0, [r4, #8]
 8006358:	f001 f8ff 	bl	800755a <atoi>
 800635c:	4d10      	ldr	r5, [pc, #64]	; (80063a0 <shell_cmd_settriggerconfig+0x64>)
 800635e:	f885 002c 	strb.w	r0, [r5, #44]	; 0x2c
 8006362:	68e0      	ldr	r0, [r4, #12]
 8006364:	f001 f8f9 	bl	800755a <atoi>
 8006368:	f885 002d 	strb.w	r0, [r5, #45]	; 0x2d
 800636c:	6920      	ldr	r0, [r4, #16]
 800636e:	f001 f8f4 	bl	800755a <atoi>
 8006372:	f885 0032 	strb.w	r0, [r5, #50]	; 0x32
 8006376:	e7ec      	b.n	8006352 <shell_cmd_settriggerconfig+0x16>
 8006378:	68a0      	ldr	r0, [r4, #8]
 800637a:	f001 f8ee 	bl	800755a <atoi>
 800637e:	4e08      	ldr	r6, [pc, #32]	; (80063a0 <shell_cmd_settriggerconfig+0x64>)
 8006380:	f886 0033 	strb.w	r0, [r6, #51]	; 0x33
 8006384:	68e0      	ldr	r0, [r4, #12]
 8006386:	f001 f8e8 	bl	800755a <atoi>
 800638a:	f886 0034 	strb.w	r0, [r6, #52]	; 0x34
 800638e:	6920      	ldr	r0, [r4, #16]
 8006390:	f001 f8e3 	bl	800755a <atoi>
 8006394:	f886 0039 	strb.w	r0, [r6, #57]	; 0x39
 8006398:	4628      	mov	r0, r5
 800639a:	bd70      	pop	{r4, r5, r6, pc}
 800639c:	2500      	movs	r5, #0
 800639e:	e7fb      	b.n	8006398 <shell_cmd_settriggerconfig+0x5c>
 80063a0:	20000730 	.word	0x20000730

080063a4 <shell_cmd_setoffset>:
 80063a4:	2802      	cmp	r0, #2
 80063a6:	b538      	push	{r3, r4, r5, lr}
 80063a8:	460c      	mov	r4, r1
 80063aa:	d118      	bne.n	80063de <shell_cmd_setoffset+0x3a>
 80063ac:	6848      	ldr	r0, [r1, #4]
 80063ae:	f001 f8d4 	bl	800755a <atoi>
 80063b2:	4d0c      	ldr	r5, [pc, #48]	; (80063e4 <shell_cmd_setoffset+0x40>)
 80063b4:	b138      	cbz	r0, 80063c6 <shell_cmd_setoffset+0x22>
 80063b6:	2802      	cmp	r0, #2
 80063b8:	d00b      	beq.n	80063d2 <shell_cmd_setoffset+0x2e>
 80063ba:	68a0      	ldr	r0, [r4, #8]
 80063bc:	f001 f8cd 	bl	800755a <atoi>
 80063c0:	f8a5 0040 	strh.w	r0, [r5, #64]	; 0x40
 80063c4:	e003      	b.n	80063ce <shell_cmd_setoffset+0x2a>
 80063c6:	68a0      	ldr	r0, [r4, #8]
 80063c8:	f001 f8c7 	bl	800755a <atoi>
 80063cc:	8768      	strh	r0, [r5, #58]	; 0x3a
 80063ce:	2001      	movs	r0, #1
 80063d0:	bd38      	pop	{r3, r4, r5, pc}
 80063d2:	68a0      	ldr	r0, [r4, #8]
 80063d4:	f001 f8c1 	bl	800755a <atoi>
 80063d8:	f8a5 0046 	strh.w	r0, [r5, #70]	; 0x46
 80063dc:	e7f7      	b.n	80063ce <shell_cmd_setoffset+0x2a>
 80063de:	2000      	movs	r0, #0
 80063e0:	e7f6      	b.n	80063d0 <shell_cmd_setoffset+0x2c>
 80063e2:	bf00      	nop
 80063e4:	20000730 	.word	0x20000730

080063e8 <shell_cmd_setgain>:
 80063e8:	2802      	cmp	r0, #2
 80063ea:	b538      	push	{r3, r4, r5, lr}
 80063ec:	460c      	mov	r4, r1
 80063ee:	d118      	bne.n	8006422 <shell_cmd_setgain+0x3a>
 80063f0:	6848      	ldr	r0, [r1, #4]
 80063f2:	f001 f8b2 	bl	800755a <atoi>
 80063f6:	4d0c      	ldr	r5, [pc, #48]	; (8006428 <shell_cmd_setgain+0x40>)
 80063f8:	b138      	cbz	r0, 800640a <shell_cmd_setgain+0x22>
 80063fa:	2802      	cmp	r0, #2
 80063fc:	d00b      	beq.n	8006416 <shell_cmd_setgain+0x2e>
 80063fe:	68a0      	ldr	r0, [r4, #8]
 8006400:	f001 f8ab 	bl	800755a <atoi>
 8006404:	f8a5 0042 	strh.w	r0, [r5, #66]	; 0x42
 8006408:	e003      	b.n	8006412 <shell_cmd_setgain+0x2a>
 800640a:	68a0      	ldr	r0, [r4, #8]
 800640c:	f001 f8a5 	bl	800755a <atoi>
 8006410:	87a8      	strh	r0, [r5, #60]	; 0x3c
 8006412:	2001      	movs	r0, #1
 8006414:	bd38      	pop	{r3, r4, r5, pc}
 8006416:	68a0      	ldr	r0, [r4, #8]
 8006418:	f001 f89f 	bl	800755a <atoi>
 800641c:	f8a5 0048 	strh.w	r0, [r5, #72]	; 0x48
 8006420:	e7f7      	b.n	8006412 <shell_cmd_setgain+0x2a>
 8006422:	2000      	movs	r0, #0
 8006424:	e7f6      	b.n	8006414 <shell_cmd_setgain+0x2c>
 8006426:	bf00      	nop
 8006428:	20000730 	.word	0x20000730

0800642c <shell_cmd_setfxmultiplier>:
 800642c:	b510      	push	{r4, lr}
 800642e:	6848      	ldr	r0, [r1, #4]
 8006430:	f001 f893 	bl	800755a <atoi>
 8006434:	b2c0      	uxtb	r0, r0
 8006436:	2804      	cmp	r0, #4
 8006438:	4c07      	ldr	r4, [pc, #28]	; (8006458 <shell_cmd_setfxmultiplier+0x2c>)
 800643a:	d002      	beq.n	8006442 <shell_cmd_setfxmultiplier+0x16>
 800643c:	1e43      	subs	r3, r0, #1
 800643e:	2b01      	cmp	r3, #1
 8006440:	d803      	bhi.n	800644a <shell_cmd_setfxmultiplier+0x1e>
 8006442:	f884 0025 	strb.w	r0, [r4, #37]	; 0x25
 8006446:	2001      	movs	r0, #1
 8006448:	bd10      	pop	{r4, pc}
 800644a:	4804      	ldr	r0, [pc, #16]	; (800645c <shell_cmd_setfxmultiplier+0x30>)
 800644c:	f7ff fcba 	bl	8005dc4 <print>
 8006450:	2304      	movs	r3, #4
 8006452:	f884 3025 	strb.w	r3, [r4, #37]	; 0x25
 8006456:	e7f6      	b.n	8006446 <shell_cmd_setfxmultiplier+0x1a>
 8006458:	20000730 	.word	0x20000730
 800645c:	0800aac8 	.word	0x0800aac8

08006460 <shell_cmd_test>:
 8006460:	2801      	cmp	r0, #1
 8006462:	b510      	push	{r4, lr}
 8006464:	4604      	mov	r4, r0
 8006466:	d105      	bne.n	8006474 <shell_cmd_test+0x14>
 8006468:	6849      	ldr	r1, [r1, #4]
 800646a:	4803      	ldr	r0, [pc, #12]	; (8006478 <shell_cmd_test+0x18>)
 800646c:	f7ff fcaa 	bl	8005dc4 <print>
 8006470:	4620      	mov	r0, r4
 8006472:	bd10      	pop	{r4, pc}
 8006474:	2400      	movs	r4, #0
 8006476:	e7fb      	b.n	8006470 <shell_cmd_test+0x10>
 8006478:	0800aaf7 	.word	0x0800aaf7

0800647c <shell_cmd_setreg>:
 800647c:	2802      	cmp	r0, #2
 800647e:	b538      	push	{r3, r4, r5, lr}
 8006480:	460c      	mov	r4, r1
 8006482:	d10c      	bne.n	800649e <shell_cmd_setreg+0x22>
 8006484:	6848      	ldr	r0, [r1, #4]
 8006486:	f001 f868 	bl	800755a <atoi>
 800648a:	4605      	mov	r5, r0
 800648c:	68a0      	ldr	r0, [r4, #8]
 800648e:	f001 f864 	bl	800755a <atoi>
 8006492:	b2c1      	uxtb	r1, r0
 8006494:	4628      	mov	r0, r5
 8006496:	f7fd ff65 	bl	8004364 <set_reg>
 800649a:	2001      	movs	r0, #1
 800649c:	bd38      	pop	{r3, r4, r5, pc}
 800649e:	2000      	movs	r0, #0
 80064a0:	e7fc      	b.n	800649c <shell_cmd_setreg+0x20>

080064a2 <shell_cmd_setbrightness>:
 80064a2:	2801      	cmp	r0, #1
 80064a4:	b510      	push	{r4, lr}
 80064a6:	4604      	mov	r4, r0
 80064a8:	d108      	bne.n	80064bc <shell_cmd_setbrightness+0x1a>
 80064aa:	6848      	ldr	r0, [r1, #4]
 80064ac:	f001 f855 	bl	800755a <atoi>
 80064b0:	b2c1      	uxtb	r1, r0
 80064b2:	2000      	movs	r0, #0
 80064b4:	f7fd ff56 	bl	8004364 <set_reg>
 80064b8:	4620      	mov	r0, r4
 80064ba:	bd10      	pop	{r4, pc}
 80064bc:	2400      	movs	r4, #0
 80064be:	e7fb      	b.n	80064b8 <shell_cmd_setbrightness+0x16>

080064c0 <shell_cmd_setgamma>:
 80064c0:	2802      	cmp	r0, #2
 80064c2:	b538      	push	{r3, r4, r5, lr}
 80064c4:	460c      	mov	r4, r1
 80064c6:	d126      	bne.n	8006516 <shell_cmd_setgamma+0x56>
 80064c8:	6848      	ldr	r0, [r1, #4]
 80064ca:	f001 f846 	bl	800755a <atoi>
 80064ce:	2802      	cmp	r0, #2
 80064d0:	4d12      	ldr	r5, [pc, #72]	; (800651c <shell_cmd_setgamma+0x5c>)
 80064d2:	d014      	beq.n	80064fe <shell_cmd_setgamma+0x3e>
 80064d4:	2803      	cmp	r0, #3
 80064d6:	d018      	beq.n	800650a <shell_cmd_setgamma+0x4a>
 80064d8:	b958      	cbnz	r0, 80064f2 <shell_cmd_setgamma+0x32>
 80064da:	68a0      	ldr	r0, [r4, #8]
 80064dc:	f001 f83d 	bl	800755a <atoi>
 80064e0:	87e8      	strh	r0, [r5, #62]	; 0x3e
 80064e2:	f7fe fa0f 	bl	8004904 <recalcGamma>
 80064e6:	b910      	cbnz	r0, 80064ee <shell_cmd_setgamma+0x2e>
 80064e8:	480d      	ldr	r0, [pc, #52]	; (8006520 <shell_cmd_setgamma+0x60>)
 80064ea:	f7ff fc6b 	bl	8005dc4 <print>
 80064ee:	2001      	movs	r0, #1
 80064f0:	e012      	b.n	8006518 <shell_cmd_setgamma+0x58>
 80064f2:	68a0      	ldr	r0, [r4, #8]
 80064f4:	f001 f831 	bl	800755a <atoi>
 80064f8:	f8a5 0044 	strh.w	r0, [r5, #68]	; 0x44
 80064fc:	e7f1      	b.n	80064e2 <shell_cmd_setgamma+0x22>
 80064fe:	68a0      	ldr	r0, [r4, #8]
 8006500:	f001 f82b 	bl	800755a <atoi>
 8006504:	f8a5 004a 	strh.w	r0, [r5, #74]	; 0x4a
 8006508:	e7eb      	b.n	80064e2 <shell_cmd_setgamma+0x22>
 800650a:	68a0      	ldr	r0, [r4, #8]
 800650c:	f001 f825 	bl	800755a <atoi>
 8006510:	f8a5 004c 	strh.w	r0, [r5, #76]	; 0x4c
 8006514:	e7e5      	b.n	80064e2 <shell_cmd_setgamma+0x22>
 8006516:	2000      	movs	r0, #0
 8006518:	bd38      	pop	{r3, r4, r5, pc}
 800651a:	bf00      	nop
 800651c:	20000730 	.word	0x20000730
 8006520:	0800aadb 	.word	0x0800aadb

08006524 <shell_cmd_setpwm>:
 8006524:	2803      	cmp	r0, #3
 8006526:	b570      	push	{r4, r5, r6, lr}
 8006528:	460c      	mov	r4, r1
 800652a:	d111      	bne.n	8006550 <shell_cmd_setpwm+0x2c>
 800652c:	6848      	ldr	r0, [r1, #4]
 800652e:	f001 f814 	bl	800755a <atoi>
 8006532:	4605      	mov	r5, r0
 8006534:	68a0      	ldr	r0, [r4, #8]
 8006536:	f001 f810 	bl	800755a <atoi>
 800653a:	4606      	mov	r6, r0
 800653c:	68e0      	ldr	r0, [r4, #12]
 800653e:	f001 f80c 	bl	800755a <atoi>
 8006542:	b2f1      	uxtb	r1, r6
 8006544:	b282      	uxth	r2, r0
 8006546:	b2e8      	uxtb	r0, r5
 8006548:	f7ff f834 	bl	80055b4 <configPWM>
 800654c:	2001      	movs	r0, #1
 800654e:	bd70      	pop	{r4, r5, r6, pc}
 8006550:	2000      	movs	r0, #0
 8006552:	e7fc      	b.n	800654e <shell_cmd_setpwm+0x2a>

08006554 <HAL_MspInit>:
{
  /* USER CODE BEGIN MspInit 0 */

  /* USER CODE END MspInit 0 */

  __HAL_RCC_AFIO_CLK_ENABLE();
 8006554:	4b0e      	ldr	r3, [pc, #56]	; (8006590 <HAL_MspInit+0x3c>)
{
 8006556:	b082      	sub	sp, #8
  __HAL_RCC_AFIO_CLK_ENABLE();
 8006558:	699a      	ldr	r2, [r3, #24]
 800655a:	f042 0201 	orr.w	r2, r2, #1
 800655e:	619a      	str	r2, [r3, #24]
 8006560:	699a      	ldr	r2, [r3, #24]
 8006562:	f002 0201 	and.w	r2, r2, #1
 8006566:	9200      	str	r2, [sp, #0]
 8006568:	9a00      	ldr	r2, [sp, #0]
  __HAL_RCC_PWR_CLK_ENABLE();
 800656a:	69da      	ldr	r2, [r3, #28]
 800656c:	f042 5280 	orr.w	r2, r2, #268435456	; 0x10000000
 8006570:	61da      	str	r2, [r3, #28]
 8006572:	69db      	ldr	r3, [r3, #28]

  /* System interrupt init*/

  /** NOJTAG: JTAG-DP Disabled and SW-DP Enabled 
  */
  __HAL_AFIO_REMAP_SWJ_NOJTAG();
 8006574:	4a07      	ldr	r2, [pc, #28]	; (8006594 <HAL_MspInit+0x40>)
  __HAL_RCC_PWR_CLK_ENABLE();
 8006576:	f003 5380 	and.w	r3, r3, #268435456	; 0x10000000
 800657a:	9301      	str	r3, [sp, #4]
 800657c:	9b01      	ldr	r3, [sp, #4]
  __HAL_AFIO_REMAP_SWJ_NOJTAG();
 800657e:	6853      	ldr	r3, [r2, #4]
 8006580:	f023 63e0 	bic.w	r3, r3, #117440512	; 0x7000000
 8006584:	f043 7300 	orr.w	r3, r3, #33554432	; 0x2000000
 8006588:	6053      	str	r3, [r2, #4]

  /* USER CODE BEGIN MspInit 1 */

  /* USER CODE END MspInit 1 */
}
 800658a:	b002      	add	sp, #8
 800658c:	4770      	bx	lr
 800658e:	bf00      	nop
 8006590:	40021000 	.word	0x40021000
 8006594:	40010000 	.word	0x40010000

08006598 <HAL_ADC_MspInit>:
* This function configures the hardware resources used in this example
* @param hadc: ADC handle pointer
* @retval None
*/
void HAL_ADC_MspInit(ADC_HandleTypeDef* hadc)
{
 8006598:	b530      	push	{r4, r5, lr}
  GPIO_InitTypeDef GPIO_InitStruct = {0};
 800659a:	2410      	movs	r4, #16
{
 800659c:	4605      	mov	r5, r0
 800659e:	b089      	sub	sp, #36	; 0x24
  GPIO_InitTypeDef GPIO_InitStruct = {0};
 80065a0:	4622      	mov	r2, r4
 80065a2:	2100      	movs	r1, #0
 80065a4:	eb0d 0004 	add.w	r0, sp, r4
 80065a8:	f001 f829 	bl	80075fe <memset>
  if(hadc->Instance==ADC1)
 80065ac:	682b      	ldr	r3, [r5, #0]
 80065ae:	4a1e      	ldr	r2, [pc, #120]	; (8006628 <HAL_ADC_MspInit+0x90>)
 80065b0:	4293      	cmp	r3, r2
 80065b2:	d11d      	bne.n	80065f0 <HAL_ADC_MspInit+0x58>
  {
  /* USER CODE BEGIN ADC1_MspInit 0 */

  /* USER CODE END ADC1_MspInit 0 */
    /* Peripheral clock enable */
    __HAL_RCC_ADC1_CLK_ENABLE();
 80065b4:	4b1d      	ldr	r3, [pc, #116]	; (800662c <HAL_ADC_MspInit+0x94>)
    /**ADC1 GPIO Configuration    
    PA0-WKUP     ------> ADC1_IN0 
    */
    GPIO_InitStruct.Pin = ANALOG_0_Pin;
    GPIO_InitStruct.Mode = GPIO_MODE_ANALOG;
    HAL_GPIO_Init(ANALOG_0_GPIO_Port, &GPIO_InitStruct);
 80065b6:	eb0d 0104 	add.w	r1, sp, r4
    __HAL_RCC_ADC1_CLK_ENABLE();
 80065ba:	699a      	ldr	r2, [r3, #24]
 80065bc:	f442 7200 	orr.w	r2, r2, #512	; 0x200
 80065c0:	619a      	str	r2, [r3, #24]
 80065c2:	699a      	ldr	r2, [r3, #24]
 80065c4:	f402 7200 	and.w	r2, r2, #512	; 0x200
 80065c8:	9200      	str	r2, [sp, #0]
 80065ca:	9a00      	ldr	r2, [sp, #0]
    __HAL_RCC_GPIOA_CLK_ENABLE();
 80065cc:	699a      	ldr	r2, [r3, #24]
 80065ce:	f042 0204 	orr.w	r2, r2, #4
 80065d2:	619a      	str	r2, [r3, #24]
 80065d4:	699b      	ldr	r3, [r3, #24]
    GPIO_InitStruct.Mode = GPIO_MODE_ANALOG;
 80065d6:	2201      	movs	r2, #1
    __HAL_RCC_GPIOA_CLK_ENABLE();
 80065d8:	f003 0304 	and.w	r3, r3, #4
 80065dc:	9301      	str	r3, [sp, #4]
 80065de:	9b01      	ldr	r3, [sp, #4]
    GPIO_InitStruct.Mode = GPIO_MODE_ANALOG;
 80065e0:	2303      	movs	r3, #3
 80065e2:	e9cd 2304 	strd	r2, r3, [sp, #16]
    /**ADC2 GPIO Configuration    
    PA4     ------> ADC2_IN4 
    */
    GPIO_InitStruct.Pin = ANALOG_1_Pin;
    GPIO_InitStruct.Mode = GPIO_MODE_ANALOG;
    HAL_GPIO_Init(ANALOG_1_GPIO_Port, &GPIO_InitStruct);
 80065e6:	4812      	ldr	r0, [pc, #72]	; (8006630 <HAL_ADC_MspInit+0x98>)
 80065e8:	f7fb fb1c 	bl	8001c24 <HAL_GPIO_Init>
  /* USER CODE BEGIN ADC2_MspInit 1 */

  /* USER CODE END ADC2_MspInit 1 */
  }

}
 80065ec:	b009      	add	sp, #36	; 0x24
 80065ee:	bd30      	pop	{r4, r5, pc}
  else if(hadc->Instance==ADC2)
 80065f0:	4a10      	ldr	r2, [pc, #64]	; (8006634 <HAL_ADC_MspInit+0x9c>)
 80065f2:	4293      	cmp	r3, r2
 80065f4:	d1fa      	bne.n	80065ec <HAL_ADC_MspInit+0x54>
    __HAL_RCC_ADC2_CLK_ENABLE();
 80065f6:	4b0d      	ldr	r3, [pc, #52]	; (800662c <HAL_ADC_MspInit+0x94>)
    HAL_GPIO_Init(ANALOG_1_GPIO_Port, &GPIO_InitStruct);
 80065f8:	a904      	add	r1, sp, #16
    __HAL_RCC_ADC2_CLK_ENABLE();
 80065fa:	699a      	ldr	r2, [r3, #24]
 80065fc:	f442 6280 	orr.w	r2, r2, #1024	; 0x400
 8006600:	619a      	str	r2, [r3, #24]
 8006602:	699a      	ldr	r2, [r3, #24]
 8006604:	f402 6280 	and.w	r2, r2, #1024	; 0x400
 8006608:	9202      	str	r2, [sp, #8]
 800660a:	9a02      	ldr	r2, [sp, #8]
    __HAL_RCC_GPIOA_CLK_ENABLE();
 800660c:	699a      	ldr	r2, [r3, #24]
 800660e:	f042 0204 	orr.w	r2, r2, #4
 8006612:	619a      	str	r2, [r3, #24]
 8006614:	699b      	ldr	r3, [r3, #24]
    GPIO_InitStruct.Pin = ANALOG_1_Pin;
 8006616:	9404      	str	r4, [sp, #16]
    __HAL_RCC_GPIOA_CLK_ENABLE();
 8006618:	f003 0304 	and.w	r3, r3, #4
 800661c:	9303      	str	r3, [sp, #12]
 800661e:	9b03      	ldr	r3, [sp, #12]
    GPIO_InitStruct.Mode = GPIO_MODE_ANALOG;
 8006620:	2303      	movs	r3, #3
 8006622:	9305      	str	r3, [sp, #20]
 8006624:	e7df      	b.n	80065e6 <HAL_ADC_MspInit+0x4e>
 8006626:	bf00      	nop
 8006628:	40012400 	.word	0x40012400
 800662c:	40021000 	.word	0x40021000
 8006630:	40010800 	.word	0x40010800
 8006634:	40012800 	.word	0x40012800

08006638 <HAL_UART_MspInit>:
* @param huart: UART handle pointer
* @retval None
*/
void HAL_UART_MspInit(UART_HandleTypeDef* huart)
{
  GPIO_InitTypeDef GPIO_InitStruct = {0};
 8006638:	2210      	movs	r2, #16
{
 800663a:	b510      	push	{r4, lr}
 800663c:	4604      	mov	r4, r0
 800663e:	b088      	sub	sp, #32
  GPIO_InitTypeDef GPIO_InitStruct = {0};
 8006640:	eb0d 0002 	add.w	r0, sp, r2
 8006644:	2100      	movs	r1, #0
 8006646:	f000 ffda 	bl	80075fe <memset>
  if(huart->Instance==USART1)
 800664a:	6823      	ldr	r3, [r4, #0]
 800664c:	4a2a      	ldr	r2, [pc, #168]	; (80066f8 <HAL_UART_MspInit+0xc0>)
 800664e:	4293      	cmp	r3, r2
 8006650:	d125      	bne.n	800669e <HAL_UART_MspInit+0x66>
  {
  /* USER CODE BEGIN USART1_MspInit 0 */

  /* USER CODE END USART1_MspInit 0 */
    /* Peripheral clock enable */
    __HAL_RCC_USART1_CLK_ENABLE();
 8006652:	4b2a      	ldr	r3, [pc, #168]	; (80066fc <HAL_UART_MspInit+0xc4>)
    __HAL_RCC_GPIOB_CLK_ENABLE();
    /**USART1 GPIO Configuration    
    PB6     ------> USART1_TX 
    */
    GPIO_InitStruct.Pin = RS485_RXTX_Pin;
    GPIO_InitStruct.Mode = GPIO_MODE_AF_OD;
 8006654:	2040      	movs	r0, #64	; 0x40
    __HAL_RCC_USART1_CLK_ENABLE();
 8006656:	699a      	ldr	r2, [r3, #24]
    GPIO_InitStruct.Speed = GPIO_SPEED_FREQ_HIGH;
    HAL_GPIO_Init(RS485_RXTX_GPIO_Port, &GPIO_InitStruct);
 8006658:	a904      	add	r1, sp, #16
    __HAL_RCC_USART1_CLK_ENABLE();
 800665a:	f442 4280 	orr.w	r2, r2, #16384	; 0x4000
 800665e:	619a      	str	r2, [r3, #24]
 8006660:	699a      	ldr	r2, [r3, #24]
 8006662:	f402 4280 	and.w	r2, r2, #16384	; 0x4000
 8006666:	9200      	str	r2, [sp, #0]
 8006668:	9a00      	ldr	r2, [sp, #0]
    __HAL_RCC_GPIOB_CLK_ENABLE();
 800666a:	699a      	ldr	r2, [r3, #24]
 800666c:	f042 0208 	orr.w	r2, r2, #8
 8006670:	619a      	str	r2, [r3, #24]
 8006672:	699b      	ldr	r3, [r3, #24]
 8006674:	f003 0308 	and.w	r3, r3, #8
 8006678:	9301      	str	r3, [sp, #4]
 800667a:	9b01      	ldr	r3, [sp, #4]
    GPIO_InitStruct.Mode = GPIO_MODE_AF_OD;
 800667c:	2312      	movs	r3, #18
 800667e:	e9cd 0304 	strd	r0, r3, [sp, #16]
    GPIO_InitStruct.Speed = GPIO_SPEED_FREQ_HIGH;
 8006682:	2303      	movs	r3, #3
    HAL_GPIO_Init(RS485_RXTX_GPIO_Port, &GPIO_InitStruct);
 8006684:	481e      	ldr	r0, [pc, #120]	; (8006700 <HAL_UART_MspInit+0xc8>)
    GPIO_InitStruct.Speed = GPIO_SPEED_FREQ_HIGH;
 8006686:	9307      	str	r3, [sp, #28]
    HAL_GPIO_Init(RS485_RXTX_GPIO_Port, &GPIO_InitStruct);
 8006688:	f7fb facc 	bl	8001c24 <HAL_GPIO_Init>

    __HAL_AFIO_REMAP_USART1_ENABLE();
 800668c:	4a1d      	ldr	r2, [pc, #116]	; (8006704 <HAL_UART_MspInit+0xcc>)
 800668e:	6853      	ldr	r3, [r2, #4]
 8006690:	f043 63e0 	orr.w	r3, r3, #117440512	; 0x7000000
 8006694:	f043 0304 	orr.w	r3, r3, #4
 8006698:	6053      	str	r3, [r2, #4]
  /* USER CODE BEGIN USART3_MspInit 1 */

  /* USER CODE END USART3_MspInit 1 */
  }

}
 800669a:	b008      	add	sp, #32
 800669c:	bd10      	pop	{r4, pc}
  else if(huart->Instance==USART3)
 800669e:	4a1a      	ldr	r2, [pc, #104]	; (8006708 <HAL_UART_MspInit+0xd0>)
 80066a0:	4293      	cmp	r3, r2
 80066a2:	d1fa      	bne.n	800669a <HAL_UART_MspInit+0x62>
    __HAL_RCC_USART3_CLK_ENABLE();
 80066a4:	4b15      	ldr	r3, [pc, #84]	; (80066fc <HAL_UART_MspInit+0xc4>)
    HAL_GPIO_Init(RS232_TX_GPIO_Port, &GPIO_InitStruct);
 80066a6:	a904      	add	r1, sp, #16
    __HAL_RCC_USART3_CLK_ENABLE();
 80066a8:	69da      	ldr	r2, [r3, #28]
    HAL_GPIO_Init(RS232_TX_GPIO_Port, &GPIO_InitStruct);
 80066aa:	4815      	ldr	r0, [pc, #84]	; (8006700 <HAL_UART_MspInit+0xc8>)
    __HAL_RCC_USART3_CLK_ENABLE();
 80066ac:	f442 2280 	orr.w	r2, r2, #262144	; 0x40000
 80066b0:	61da      	str	r2, [r3, #28]
 80066b2:	69da      	ldr	r2, [r3, #28]
 80066b4:	f402 2280 	and.w	r2, r2, #262144	; 0x40000
 80066b8:	9202      	str	r2, [sp, #8]
 80066ba:	9a02      	ldr	r2, [sp, #8]
    __HAL_RCC_GPIOB_CLK_ENABLE();
 80066bc:	699a      	ldr	r2, [r3, #24]
 80066be:	f042 0208 	orr.w	r2, r2, #8
 80066c2:	619a      	str	r2, [r3, #24]
 80066c4:	699b      	ldr	r3, [r3, #24]
    GPIO_InitStruct.Mode = GPIO_MODE_AF_PP;
 80066c6:	f44f 6280 	mov.w	r2, #1024	; 0x400
    __HAL_RCC_GPIOB_CLK_ENABLE();
 80066ca:	f003 0308 	and.w	r3, r3, #8
 80066ce:	9303      	str	r3, [sp, #12]
 80066d0:	9b03      	ldr	r3, [sp, #12]
    GPIO_InitStruct.Mode = GPIO_MODE_AF_PP;
 80066d2:	2302      	movs	r3, #2
 80066d4:	e9cd 2304 	strd	r2, r3, [sp, #16]
    GPIO_InitStruct.Speed = GPIO_SPEED_FREQ_HIGH;
 80066d8:	2303      	movs	r3, #3
 80066da:	9307      	str	r3, [sp, #28]
    HAL_GPIO_Init(RS232_TX_GPIO_Port, &GPIO_InitStruct);
 80066dc:	f7fb faa2 	bl	8001c24 <HAL_GPIO_Init>
    GPIO_InitStruct.Mode = GPIO_MODE_INPUT;
 80066e0:	2300      	movs	r3, #0
 80066e2:	f44f 6100 	mov.w	r1, #2048	; 0x800
    HAL_GPIO_Init(RS232_RX_GPIO_Port, &GPIO_InitStruct);
 80066e6:	4806      	ldr	r0, [pc, #24]	; (8006700 <HAL_UART_MspInit+0xc8>)
    GPIO_InitStruct.Mode = GPIO_MODE_INPUT;
 80066e8:	e9cd 1304 	strd	r1, r3, [sp, #16]
    HAL_GPIO_Init(RS232_RX_GPIO_Port, &GPIO_InitStruct);
 80066ec:	a904      	add	r1, sp, #16
    GPIO_InitStruct.Pull = GPIO_NOPULL;
 80066ee:	9306      	str	r3, [sp, #24]
    HAL_GPIO_Init(RS232_RX_GPIO_Port, &GPIO_InitStruct);
 80066f0:	f7fb fa98 	bl	8001c24 <HAL_GPIO_Init>
}
 80066f4:	e7d1      	b.n	800669a <HAL_UART_MspInit+0x62>
 80066f6:	bf00      	nop
 80066f8:	40013800 	.word	0x40013800
 80066fc:	40021000 	.word	0x40021000
 8006700:	40010c00 	.word	0x40010c00
 8006704:	40010000 	.word	0x40010000
 8006708:	40004800 	.word	0x40004800

0800670c <NMI_Handler>:

  /* USER CODE END NonMaskableInt_IRQn 0 */
  /* USER CODE BEGIN NonMaskableInt_IRQn 1 */

  /* USER CODE END NonMaskableInt_IRQn 1 */
}
 800670c:	4770      	bx	lr

0800670e <HardFault_Handler>:

/**
  * @brief This function handles Hard fault interrupt.
  */
void HardFault_Handler(void)
{
 800670e:	e7fe      	b.n	800670e <HardFault_Handler>

08006710 <MemManage_Handler>:

/**
  * @brief This function handles Memory management fault.
  */
void MemManage_Handler(void)
{
 8006710:	e7fe      	b.n	8006710 <MemManage_Handler>

08006712 <BusFault_Handler>:

/**
  * @brief This function handles Prefetch fault, memory access fault.
  */
void BusFault_Handler(void)
{
 8006712:	e7fe      	b.n	8006712 <BusFault_Handler>

08006714 <UsageFault_Handler>:

/**
  * @brief This function handles Undefined instruction or illegal state.
  */
void UsageFault_Handler(void)
{
 8006714:	e7fe      	b.n	8006714 <UsageFault_Handler>

08006716 <SVC_Handler>:
 8006716:	4770      	bx	lr

08006718 <DebugMon_Handler>:
 8006718:	4770      	bx	lr

0800671a <PendSV_Handler>:
 800671a:	4770      	bx	lr

0800671c <SysTick_Handler>:
void SysTick_Handler(void)
{
  /* USER CODE BEGIN SysTick_IRQn 0 */

  /* USER CODE END SysTick_IRQn 0 */
  HAL_IncTick();
 800671c:	f7fa bd54 	b.w	80011c8 <HAL_IncTick>

08006720 <DMA1_Channel3_IRQHandler>:
void DMA1_Channel3_IRQHandler(void)
{
  /* USER CODE BEGIN DMA1_Channel3_IRQn 0 */

  /* USER CODE END DMA1_Channel3_IRQn 0 */
  HAL_DMA_IRQHandler(&hdma_spi1_tx);
 8006720:	4801      	ldr	r0, [pc, #4]	; (8006728 <DMA1_Channel3_IRQHandler+0x8>)
 8006722:	f7fb b8bd 	b.w	80018a0 <HAL_DMA_IRQHandler>
 8006726:	bf00      	nop
 8006728:	20000990 	.word	0x20000990

0800672c <DMA1_Channel4_IRQHandler>:
void DMA1_Channel4_IRQHandler(void)
{
  /* USER CODE BEGIN DMA1_Channel4_IRQn 0 */

  /* USER CODE END DMA1_Channel4_IRQn 0 */
  HAL_DMA_IRQHandler(&hdma_spi2_tx);
 800672c:	4801      	ldr	r0, [pc, #4]	; (8006734 <DMA1_Channel4_IRQHandler+0x8>)
 800672e:	f7fb b8b7 	b.w	80018a0 <HAL_DMA_IRQHandler>
 8006732:	bf00      	nop
 8006734:	2000094c 	.word	0x2000094c

08006738 <USB_LP_CAN1_RX0_IRQHandler>:
void USB_LP_CAN1_RX0_IRQHandler(void)
{
  /* USER CODE BEGIN USB_LP_CAN1_RX0_IRQn 0 */

  /* USER CODE END USB_LP_CAN1_RX0_IRQn 0 */
  HAL_PCD_IRQHandler(&hpcd_USB_FS);
 8006738:	4801      	ldr	r0, [pc, #4]	; (8006740 <USB_LP_CAN1_RX0_IRQHandler+0x8>)
 800673a:	f7fb bbd3 	b.w	8001ee4 <HAL_PCD_IRQHandler>
 800673e:	bf00      	nop
 8006740:	20000ab4 	.word	0x20000ab4

08006744 <_sbrk>:
 8006744:	b508      	push	{r3, lr}
 8006746:	4b0a      	ldr	r3, [pc, #40]	; (8006770 <_sbrk+0x2c>)
 8006748:	4602      	mov	r2, r0
 800674a:	6819      	ldr	r1, [r3, #0]
 800674c:	b909      	cbnz	r1, 8006752 <_sbrk+0xe>
 800674e:	4909      	ldr	r1, [pc, #36]	; (8006774 <_sbrk+0x30>)
 8006750:	6019      	str	r1, [r3, #0]
 8006752:	4669      	mov	r1, sp
 8006754:	6818      	ldr	r0, [r3, #0]
 8006756:	4402      	add	r2, r0
 8006758:	428a      	cmp	r2, r1
 800675a:	d906      	bls.n	800676a <_sbrk+0x26>
 800675c:	f000 ff0a 	bl	8007574 <__errno>
 8006760:	230c      	movs	r3, #12
 8006762:	6003      	str	r3, [r0, #0]
 8006764:	f04f 30ff 	mov.w	r0, #4294967295
 8006768:	bd08      	pop	{r3, pc}
 800676a:	601a      	str	r2, [r3, #0]
 800676c:	e7fc      	b.n	8006768 <_sbrk+0x24>
 800676e:	bf00      	nop
 8006770:	20000584 	.word	0x20000584
 8006774:	20000d28 	.word	0x20000d28

08006778 <SystemInit>:
 8006778:	4b0f      	ldr	r3, [pc, #60]	; (80067b8 <SystemInit+0x40>)
 800677a:	681a      	ldr	r2, [r3, #0]
 800677c:	f042 0201 	orr.w	r2, r2, #1
 8006780:	601a      	str	r2, [r3, #0]
 8006782:	6859      	ldr	r1, [r3, #4]
 8006784:	4a0d      	ldr	r2, [pc, #52]	; (80067bc <SystemInit+0x44>)
 8006786:	400a      	ands	r2, r1
 8006788:	605a      	str	r2, [r3, #4]
 800678a:	681a      	ldr	r2, [r3, #0]
 800678c:	f022 7284 	bic.w	r2, r2, #17301504	; 0x1080000
 8006790:	f422 3280 	bic.w	r2, r2, #65536	; 0x10000
 8006794:	601a      	str	r2, [r3, #0]
 8006796:	681a      	ldr	r2, [r3, #0]
 8006798:	f422 2280 	bic.w	r2, r2, #262144	; 0x40000
 800679c:	601a      	str	r2, [r3, #0]
 800679e:	685a      	ldr	r2, [r3, #4]
 80067a0:	f422 02fe 	bic.w	r2, r2, #8323072	; 0x7f0000
 80067a4:	605a      	str	r2, [r3, #4]
 80067a6:	f44f 021f 	mov.w	r2, #10420224	; 0x9f0000
 80067aa:	609a      	str	r2, [r3, #8]
 80067ac:	f04f 6200 	mov.w	r2, #134217728	; 0x8000000
 80067b0:	4b03      	ldr	r3, [pc, #12]	; (80067c0 <SystemInit+0x48>)
 80067b2:	609a      	str	r2, [r3, #8]
 80067b4:	4770      	bx	lr
 80067b6:	bf00      	nop
 80067b8:	40021000 	.word	0x40021000
 80067bc:	f8ff0000 	.word	0xf8ff0000
 80067c0:	e000ed00 	.word	0xe000ed00

080067c4 <lights_off>:
 80067c4:	b538      	push	{r3, r4, r5, lr}
 80067c6:	2400      	movs	r4, #0
 80067c8:	4d05      	ldr	r5, [pc, #20]	; (80067e0 <lights_off+0x1c>)
 80067ca:	192b      	adds	r3, r5, r4
 80067cc:	5d28      	ldrb	r0, [r5, r4]
 80067ce:	2200      	movs	r2, #0
 80067d0:	7859      	ldrb	r1, [r3, #1]
 80067d2:	3402      	adds	r4, #2
 80067d4:	f7fe feee 	bl	80055b4 <configPWM>
 80067d8:	2c14      	cmp	r4, #20
 80067da:	d1f6      	bne.n	80067ca <lights_off+0x6>
 80067dc:	bd38      	pop	{r3, r4, r5, pc}
 80067de:	bf00      	nop
 80067e0:	20000079 	.word	0x20000079

080067e4 <process_testmode>:
 80067e4:	e92d 41f0 	stmdb	sp!, {r4, r5, r6, r7, r8, lr}
 80067e8:	4a21      	ldr	r2, [pc, #132]	; (8006870 <process_testmode+0x8c>)
 80067ea:	4b22      	ldr	r3, [pc, #136]	; (8006874 <process_testmode+0x90>)
 80067ec:	7811      	ldrb	r1, [r2, #0]
 80067ee:	881c      	ldrh	r4, [r3, #0]
 80067f0:	461d      	mov	r5, r3
 80067f2:	4616      	mov	r6, r2
 80067f4:	b141      	cbz	r1, 8006808 <process_testmode+0x24>
 80067f6:	b91c      	cbnz	r4, 8006800 <process_testmode+0x1c>
 80067f8:	4620      	mov	r0, r4
 80067fa:	7014      	strb	r4, [r2, #0]
 80067fc:	e8bd 81f0 	ldmia.w	sp!, {r4, r5, r6, r7, r8, pc}
 8006800:	3c01      	subs	r4, #1
 8006802:	801c      	strh	r4, [r3, #0]
 8006804:	2001      	movs	r0, #1
 8006806:	e7f9      	b.n	80067fc <process_testmode+0x18>
 8006808:	b9bc      	cbnz	r4, 800683a <process_testmode+0x56>
 800680a:	f44f 7316 	mov.w	r3, #600	; 0x258
 800680e:	4f1a      	ldr	r7, [pc, #104]	; (8006878 <process_testmode+0x94>)
 8006810:	802b      	strh	r3, [r5, #0]
 8006812:	f7ff ffd7 	bl	80067c4 <lights_off>
 8006816:	4b19      	ldr	r3, [pc, #100]	; (800687c <process_testmode+0x98>)
 8006818:	7838      	ldrb	r0, [r7, #0]
 800681a:	f240 4234 	movw	r2, #1076	; 0x434
 800681e:	eb03 0140 	add.w	r1, r3, r0, lsl #1
 8006822:	7849      	ldrb	r1, [r1, #1]
 8006824:	f813 0010 	ldrb.w	r0, [r3, r0, lsl #1]
 8006828:	f7fe fec4 	bl	80055b4 <configPWM>
 800682c:	783b      	ldrb	r3, [r7, #0]
 800682e:	3301      	adds	r3, #1
 8006830:	b2db      	uxtb	r3, r3
 8006832:	2b0a      	cmp	r3, #10
 8006834:	bf14      	ite	ne
 8006836:	703b      	strbne	r3, [r7, #0]
 8006838:	703c      	strbeq	r4, [r7, #0]
 800683a:	882b      	ldrh	r3, [r5, #0]
 800683c:	4c10      	ldr	r4, [pc, #64]	; (8006880 <process_testmode+0x9c>)
 800683e:	3b01      	subs	r3, #1
 8006840:	802b      	strh	r3, [r5, #0]
 8006842:	f7fe f94b 	bl	8004adc <check_button>
 8006846:	f894 8000 	ldrb.w	r8, [r4]
 800684a:	4607      	mov	r7, r0
 800684c:	f1b8 0f00 	cmp.w	r8, #0
 8006850:	d10b      	bne.n	800686a <process_testmode+0x86>
 8006852:	2801      	cmp	r0, #1
 8006854:	d109      	bne.n	800686a <process_testmode+0x86>
 8006856:	7020      	strb	r0, [r4, #0]
 8006858:	f7ff ffb4 	bl	80067c4 <lights_off>
 800685c:	f44f 7316 	mov.w	r3, #600	; 0x258
 8006860:	802b      	strh	r3, [r5, #0]
 8006862:	4b05      	ldr	r3, [pc, #20]	; (8006878 <process_testmode+0x94>)
 8006864:	7037      	strb	r7, [r6, #0]
 8006866:	f883 8000 	strb.w	r8, [r3]
 800686a:	7027      	strb	r7, [r4, #0]
 800686c:	e7ca      	b.n	8006804 <process_testmode+0x20>
 800686e:	bf00      	nop
 8006870:	2000058a 	.word	0x2000058a
 8006874:	20000588 	.word	0x20000588
 8006878:	2000058b 	.word	0x2000058b
 800687c:	20000079 	.word	0x20000079
 8006880:	20000078 	.word	0x20000078

08006884 <ADC1_2_IRQHandler>:
 8006884:	4b01      	ldr	r3, [pc, #4]	; (800688c <ADC1_2_IRQHandler+0x8>)
 8006886:	6818      	ldr	r0, [r3, #0]
 8006888:	f7fa bcb4 	b.w	80011f4 <HAL_ADC_IRQHandler>
 800688c:	20000090 	.word	0x20000090

08006890 <HAL_ADC_ConvCpltCallback>:
 8006890:	b5f8      	push	{r3, r4, r5, r6, r7, lr}
 8006892:	6804      	ldr	r4, [r0, #0]
 8006894:	4b1a      	ldr	r3, [pc, #104]	; (8006900 <HAL_ADC_ConvCpltCallback+0x70>)
 8006896:	4605      	mov	r5, r0
 8006898:	1ae3      	subs	r3, r4, r3
 800689a:	425c      	negs	r4, r3
 800689c:	415c      	adcs	r4, r3
 800689e:	f7fa fca5 	bl	80011ec <HAL_ADC_GetValue>
 80068a2:	4a18      	ldr	r2, [pc, #96]	; (8006904 <HAL_ADC_ConvCpltCallback+0x74>)
 80068a4:	0121      	lsls	r1, r4, #4
 80068a6:	1857      	adds	r7, r2, r1
 80068a8:	7bbb      	ldrb	r3, [r7, #14]
 80068aa:	00e4      	lsls	r4, r4, #3
 80068ac:	18e6      	adds	r6, r4, r3
 80068ae:	3301      	adds	r3, #1
 80068b0:	b2db      	uxtb	r3, r3
 80068b2:	eb02 0646 	add.w	r6, r2, r6, lsl #1
 80068b6:	0900      	lsrs	r0, r0, #4
 80068b8:	2b05      	cmp	r3, #5
 80068ba:	80b0      	strh	r0, [r6, #4]
 80068bc:	73bb      	strb	r3, [r7, #14]
 80068be:	d111      	bne.n	80068e4 <HAL_ADC_ConvCpltCallback+0x54>
 80068c0:	2000      	movs	r0, #0
 80068c2:	3406      	adds	r4, #6
 80068c4:	eb02 0444 	add.w	r4, r2, r4, lsl #1
 80068c8:	3402      	adds	r4, #2
 80068ca:	3b01      	subs	r3, #1
 80068cc:	f834 6d02 	ldrh.w	r6, [r4, #-2]!
 80068d0:	f013 03ff 	ands.w	r3, r3, #255	; 0xff
 80068d4:	4430      	add	r0, r6
 80068d6:	d1f8      	bne.n	80068ca <HAL_ADC_ConvCpltCallback+0x3a>
 80068d8:	1854      	adds	r4, r2, r1
 80068da:	73a3      	strb	r3, [r4, #14]
 80068dc:	2305      	movs	r3, #5
 80068de:	fbb0 f0f3 	udiv	r0, r0, r3
 80068e2:	5250      	strh	r0, [r2, r1]
 80068e4:	682a      	ldr	r2, [r5, #0]
 80068e6:	4b08      	ldr	r3, [pc, #32]	; (8006908 <HAL_ADC_ConvCpltCallback+0x78>)
 80068e8:	429a      	cmp	r2, r3
 80068ea:	bf08      	it	eq
 80068ec:	4a07      	ldreq	r2, [pc, #28]	; (800690c <HAL_ADC_ConvCpltCallback+0x7c>)
 80068ee:	4b08      	ldr	r3, [pc, #32]	; (8006910 <HAL_ADC_ConvCpltCallback+0x80>)
 80068f0:	bf18      	it	ne
 80068f2:	4a08      	ldrne	r2, [pc, #32]	; (8006914 <HAL_ADC_ConvCpltCallback+0x84>)
 80068f4:	601a      	str	r2, [r3, #0]
 80068f6:	6818      	ldr	r0, [r3, #0]
 80068f8:	e8bd 40f8 	ldmia.w	sp!, {r3, r4, r5, r6, r7, lr}
 80068fc:	f7fa bda6 	b.w	800144c <HAL_ADC_Start_IT>
 8006900:	40012800 	.word	0x40012800
 8006904:	20000a94 	.word	0x20000a94
 8006908:	40012400 	.word	0x40012400
 800690c:	20000818 	.word	0x20000818
 8006910:	20000090 	.word	0x20000090
 8006914:	20000884 	.word	0x20000884

08006918 <init_trigger>:
 8006918:	b510      	push	{r4, lr}
 800691a:	2410      	movs	r4, #16
 800691c:	4b0c      	ldr	r3, [pc, #48]	; (8006950 <init_trigger+0x38>)
 800691e:	4622      	mov	r2, r4
 8006920:	4618      	mov	r0, r3
 8006922:	2100      	movs	r1, #0
 8006924:	f000 fe6b 	bl	80075fe <memset>
 8006928:	4622      	mov	r2, r4
 800692a:	2100      	movs	r1, #0
 800692c:	4420      	add	r0, r4
 800692e:	f000 fe66 	bl	80075fe <memset>
 8006932:	2200      	movs	r2, #0
 8006934:	2012      	movs	r0, #18
 8006936:	4611      	mov	r1, r2
 8006938:	f7fa fea4 	bl	8001684 <HAL_NVIC_SetPriority>
 800693c:	2012      	movs	r0, #18
 800693e:	f7fa fed5 	bl	80016ec <HAL_NVIC_EnableIRQ>
 8006942:	e8bd 4010 	ldmia.w	sp!, {r4, lr}
 8006946:	4b03      	ldr	r3, [pc, #12]	; (8006954 <init_trigger+0x3c>)
 8006948:	6818      	ldr	r0, [r3, #0]
 800694a:	f7fa bd7f 	b.w	800144c <HAL_ADC_Start_IT>
 800694e:	bf00      	nop
 8006950:	20000a94 	.word	0x20000a94
 8006954:	20000090 	.word	0x20000090

08006958 <process_trigger>:
 8006958:	b538      	push	{r3, r4, r5, lr}
 800695a:	4c29      	ldr	r4, [pc, #164]	; (8006a00 <process_trigger+0xa8>)
 800695c:	f894 002c 	ldrb.w	r0, [r4, #44]	; 0x2c
 8006960:	b150      	cbz	r0, 8006978 <process_trigger+0x20>
 8006962:	4d28      	ldr	r5, [pc, #160]	; (8006a04 <process_trigger+0xac>)
 8006964:	8829      	ldrh	r1, [r5, #0]
 8006966:	886a      	ldrh	r2, [r5, #2]
 8006968:	4291      	cmp	r1, r2
 800696a:	d005      	beq.n	8006978 <process_trigger+0x20>
 800696c:	2801      	cmp	r0, #1
 800696e:	d012      	beq.n	8006996 <process_trigger+0x3e>
 8006970:	2802      	cmp	r0, #2
 8006972:	d016      	beq.n	80069a2 <process_trigger+0x4a>
 8006974:	882b      	ldrh	r3, [r5, #0]
 8006976:	806b      	strh	r3, [r5, #2]
 8006978:	f894 0033 	ldrb.w	r0, [r4, #51]	; 0x33
 800697c:	b150      	cbz	r0, 8006994 <process_trigger+0x3c>
 800697e:	4d21      	ldr	r5, [pc, #132]	; (8006a04 <process_trigger+0xac>)
 8006980:	8a29      	ldrh	r1, [r5, #16]
 8006982:	8a6a      	ldrh	r2, [r5, #18]
 8006984:	4291      	cmp	r1, r2
 8006986:	d005      	beq.n	8006994 <process_trigger+0x3c>
 8006988:	2801      	cmp	r0, #1
 800698a:	d01e      	beq.n	80069ca <process_trigger+0x72>
 800698c:	2802      	cmp	r0, #2
 800698e:	d022      	beq.n	80069d6 <process_trigger+0x7e>
 8006990:	8a2b      	ldrh	r3, [r5, #16]
 8006992:	826b      	strh	r3, [r5, #18]
 8006994:	bd38      	pop	{r3, r4, r5, pc}
 8006996:	f894 002d 	ldrb.w	r0, [r4, #45]	; 0x2d
 800699a:	b2c9      	uxtb	r1, r1
 800699c:	f7fd fce2 	bl	8004364 <set_reg>
 80069a0:	e7e8      	b.n	8006974 <process_trigger+0x1c>
 80069a2:	f894 3032 	ldrb.w	r3, [r4, #50]	; 0x32
 80069a6:	4299      	cmp	r1, r3
 80069a8:	d906      	bls.n	80069b8 <process_trigger+0x60>
 80069aa:	429a      	cmp	r2, r3
 80069ac:	d204      	bcs.n	80069b8 <process_trigger+0x60>
 80069ae:	f894 102f 	ldrb.w	r1, [r4, #47]	; 0x2f
 80069b2:	f894 002e 	ldrb.w	r0, [r4, #46]	; 0x2e
 80069b6:	e7f1      	b.n	800699c <process_trigger+0x44>
 80069b8:	4299      	cmp	r1, r3
 80069ba:	d2db      	bcs.n	8006974 <process_trigger+0x1c>
 80069bc:	429a      	cmp	r2, r3
 80069be:	d9d9      	bls.n	8006974 <process_trigger+0x1c>
 80069c0:	f894 1031 	ldrb.w	r1, [r4, #49]	; 0x31
 80069c4:	f894 0030 	ldrb.w	r0, [r4, #48]	; 0x30
 80069c8:	e7e8      	b.n	800699c <process_trigger+0x44>
 80069ca:	f894 0034 	ldrb.w	r0, [r4, #52]	; 0x34
 80069ce:	b2c9      	uxtb	r1, r1
 80069d0:	f7fd fcc8 	bl	8004364 <set_reg>
 80069d4:	e7dc      	b.n	8006990 <process_trigger+0x38>
 80069d6:	f894 3039 	ldrb.w	r3, [r4, #57]	; 0x39
 80069da:	4299      	cmp	r1, r3
 80069dc:	d906      	bls.n	80069ec <process_trigger+0x94>
 80069de:	429a      	cmp	r2, r3
 80069e0:	d204      	bcs.n	80069ec <process_trigger+0x94>
 80069e2:	f894 1036 	ldrb.w	r1, [r4, #54]	; 0x36
 80069e6:	f894 0035 	ldrb.w	r0, [r4, #53]	; 0x35
 80069ea:	e7f1      	b.n	80069d0 <process_trigger+0x78>
 80069ec:	4299      	cmp	r1, r3
 80069ee:	d2cf      	bcs.n	8006990 <process_trigger+0x38>
 80069f0:	429a      	cmp	r2, r3
 80069f2:	d9cd      	bls.n	8006990 <process_trigger+0x38>
 80069f4:	f894 1038 	ldrb.w	r1, [r4, #56]	; 0x38
 80069f8:	f894 0037 	ldrb.w	r0, [r4, #55]	; 0x37
 80069fc:	e7e8      	b.n	80069d0 <process_trigger+0x78>
 80069fe:	bf00      	nop
 8006a00:	20000730 	.word	0x20000730
 8006a04:	20000a94 	.word	0x20000a94

08006a08 <print_adc_data>:
 8006a08:	2300      	movs	r3, #0
 8006a0a:	e92d 41f0 	stmdb	sp!, {r4, r5, r6, r7, r8, lr}
 8006a0e:	4c12      	ldr	r4, [pc, #72]	; (8006a58 <print_adc_data+0x50>)
 8006a10:	f8df 805c 	ldr.w	r8, [pc, #92]	; 8006a70 <print_adc_data+0x68>
 8006a14:	4f11      	ldr	r7, [pc, #68]	; (8006a5c <print_adc_data+0x54>)
 8006a16:	4e12      	ldr	r6, [pc, #72]	; (8006a60 <print_adc_data+0x58>)
 8006a18:	1c5d      	adds	r5, r3, #1
 8006a1a:	4629      	mov	r1, r5
 8006a1c:	4640      	mov	r0, r8
 8006a1e:	f7ff f9d1 	bl	8005dc4 <print>
 8006a22:	4638      	mov	r0, r7
 8006a24:	f7ff f9ce 	bl	8005dc4 <print>
 8006a28:	8821      	ldrh	r1, [r4, #0]
 8006a2a:	4630      	mov	r0, r6
 8006a2c:	f7ff f9ca 	bl	8005dc4 <print>
 8006a30:	8861      	ldrh	r1, [r4, #2]
 8006a32:	480c      	ldr	r0, [pc, #48]	; (8006a64 <print_adc_data+0x5c>)
 8006a34:	f7ff f9c6 	bl	8005dc4 <print>
 8006a38:	7ba1      	ldrb	r1, [r4, #14]
 8006a3a:	480b      	ldr	r0, [pc, #44]	; (8006a68 <print_adc_data+0x60>)
 8006a3c:	f7ff f9c2 	bl	8005dc4 <print>
 8006a40:	480a      	ldr	r0, [pc, #40]	; (8006a6c <print_adc_data+0x64>)
 8006a42:	f7ff f9bf 	bl	8005dc4 <print>
 8006a46:	2d02      	cmp	r5, #2
 8006a48:	f104 0410 	add.w	r4, r4, #16
 8006a4c:	f04f 0301 	mov.w	r3, #1
 8006a50:	d1e2      	bne.n	8006a18 <print_adc_data+0x10>
 8006a52:	e8bd 81f0 	ldmia.w	sp!, {r4, r5, r6, r7, r8, pc}
 8006a56:	bf00      	nop
 8006a58:	20000a94 	.word	0x20000a94
 8006a5c:	0800a978 	.word	0x0800a978
 8006a60:	0800af01 	.word	0x0800af01
 8006a64:	0800af0d 	.word	0x0800af0d
 8006a68:	0800af1e 	.word	0x0800af1e
 8006a6c:	0800a92f 	.word	0x0800a92f
 8006a70:	0800aefa 	.word	0x0800aefa

08006a74 <HAL_PCD_SetupStageCallback>:
static void PCD_SetupStageCallback(PCD_HandleTypeDef *hpcd)
#else
void HAL_PCD_SetupStageCallback(PCD_HandleTypeDef *hpcd)
#endif /* USE_HAL_PCD_REGISTER_CALLBACKS */
{
  USBD_LL_SetupStage((USBD_HandleTypeDef*)hpcd->pData, (uint8_t *)hpcd->Setup);
 8006a74:	f500 710c 	add.w	r1, r0, #560	; 0x230
 8006a78:	f8d0 0268 	ldr.w	r0, [r0, #616]	; 0x268
 8006a7c:	f7fd b906 	b.w	8003c8c <USBD_LL_SetupStage>

08006a80 <HAL_PCD_DataOutStageCallback>:
static void PCD_DataOutStageCallback(PCD_HandleTypeDef *hpcd, uint8_t epnum)
#else
void HAL_PCD_DataOutStageCallback(PCD_HandleTypeDef *hpcd, uint8_t epnum)
#endif /* USE_HAL_PCD_REGISTER_CALLBACKS */
{
  USBD_LL_DataOutStage((USBD_HandleTypeDef*)hpcd->pData, epnum, hpcd->OUT_ep[epnum].xfer_buff);
 8006a80:	eb00 1341 	add.w	r3, r0, r1, lsl #5
 8006a84:	f8d3 213c 	ldr.w	r2, [r3, #316]	; 0x13c
 8006a88:	f8d0 0268 	ldr.w	r0, [r0, #616]	; 0x268
 8006a8c:	f7fd b92b 	b.w	8003ce6 <USBD_LL_DataOutStage>

08006a90 <HAL_PCD_DataInStageCallback>:
static void PCD_DataInStageCallback(PCD_HandleTypeDef *hpcd, uint8_t epnum)
#else
void HAL_PCD_DataInStageCallback(PCD_HandleTypeDef *hpcd, uint8_t epnum)
#endif /* USE_HAL_PCD_REGISTER_CALLBACKS */
{
  USBD_LL_DataInStage((USBD_HandleTypeDef*)hpcd->pData, epnum, hpcd->IN_ep[epnum].xfer_buff);
 8006a90:	eb00 1341 	add.w	r3, r0, r1, lsl #5
 8006a94:	6bda      	ldr	r2, [r3, #60]	; 0x3c
 8006a96:	f8d0 0268 	ldr.w	r0, [r0, #616]	; 0x268
 8006a9a:	f7fd b95e 	b.w	8003d5a <USBD_LL_DataInStage>

08006a9e <HAL_PCD_SOFCallback>:
static void PCD_SOFCallback(PCD_HandleTypeDef *hpcd)
#else
void HAL_PCD_SOFCallback(PCD_HandleTypeDef *hpcd)
#endif /* USE_HAL_PCD_REGISTER_CALLBACKS */
{
  USBD_LL_SOF((USBD_HandleTypeDef*)hpcd->pData);
 8006a9e:	f8d0 0268 	ldr.w	r0, [r0, #616]	; 0x268
 8006aa2:	f7fd b9f2 	b.w	8003e8a <USBD_LL_SOF>

08006aa6 <HAL_PCD_ResetCallback>:
void HAL_PCD_ResetCallback(PCD_HandleTypeDef *hpcd)
#endif /* USE_HAL_PCD_REGISTER_CALLBACKS */
{ 
  USBD_SpeedTypeDef speed = USBD_SPEED_FULL;

  if ( hpcd->Init.speed != PCD_SPEED_FULL)
 8006aa6:	6883      	ldr	r3, [r0, #8]
{ 
 8006aa8:	b510      	push	{r4, lr}
  if ( hpcd->Init.speed != PCD_SPEED_FULL)
 8006aaa:	2b02      	cmp	r3, #2
{ 
 8006aac:	4604      	mov	r4, r0
  if ( hpcd->Init.speed != PCD_SPEED_FULL)
 8006aae:	d001      	beq.n	8006ab4 <HAL_PCD_ResetCallback+0xe>
  {
    Error_Handler();
 8006ab0:	f7fe fcbc 	bl	800542c <Error_Handler>
  }
    /* Set Speed. */
  USBD_LL_SetSpeed((USBD_HandleTypeDef*)hpcd->pData, speed);
 8006ab4:	f8d4 0268 	ldr.w	r0, [r4, #616]	; 0x268
 8006ab8:	2101      	movs	r1, #1
 8006aba:	f7fd f9d0 	bl	8003e5e <USBD_LL_SetSpeed>

  /* Reset Device. */
  USBD_LL_Reset((USBD_HandleTypeDef*)hpcd->pData);
 8006abe:	f8d4 0268 	ldr.w	r0, [r4, #616]	; 0x268
}
 8006ac2:	e8bd 4010 	ldmia.w	sp!, {r4, lr}
  USBD_LL_Reset((USBD_HandleTypeDef*)hpcd->pData);
 8006ac6:	f7fd b9a3 	b.w	8003e10 <USBD_LL_Reset>
	...

08006acc <HAL_PCD_SuspendCallback>:
#if (USE_HAL_PCD_REGISTER_CALLBACKS == 1U)
static void PCD_SuspendCallback(PCD_HandleTypeDef *hpcd)
#else
void HAL_PCD_SuspendCallback(PCD_HandleTypeDef *hpcd)
#endif /* USE_HAL_PCD_REGISTER_CALLBACKS */
{
 8006acc:	b510      	push	{r4, lr}
 8006ace:	4604      	mov	r4, r0
  /* Inform USB library that core enters in suspend Mode. */
  USBD_LL_Suspend((USBD_HandleTypeDef*)hpcd->pData);
 8006ad0:	f8d0 0268 	ldr.w	r0, [r0, #616]	; 0x268
 8006ad4:	f7fd f9c6 	bl	8003e64 <USBD_LL_Suspend>
  /* Enter in STOP mode. */
  /* USER CODE BEGIN 2 */
  if (hpcd->Init.low_power_enable)
 8006ad8:	69a3      	ldr	r3, [r4, #24]
 8006ada:	b123      	cbz	r3, 8006ae6 <HAL_PCD_SuspendCallback+0x1a>
  {
    /* Set SLEEPDEEP bit and SleepOnExit of Cortex System Control Register. */
    SCB->SCR |= (uint32_t)((uint32_t)(SCB_SCR_SLEEPDEEP_Msk | SCB_SCR_SLEEPONEXIT_Msk));
 8006adc:	4a02      	ldr	r2, [pc, #8]	; (8006ae8 <HAL_PCD_SuspendCallback+0x1c>)
 8006ade:	6913      	ldr	r3, [r2, #16]
 8006ae0:	f043 0306 	orr.w	r3, r3, #6
 8006ae4:	6113      	str	r3, [r2, #16]
  }
  /* USER CODE END 2 */
}
 8006ae6:	bd10      	pop	{r4, pc}
 8006ae8:	e000ed00 	.word	0xe000ed00

08006aec <HAL_PCD_ResumeCallback>:
#endif /* USE_HAL_PCD_REGISTER_CALLBACKS */
{
  /* USER CODE BEGIN 3 */

  /* USER CODE END 3 */
  USBD_LL_Resume((USBD_HandleTypeDef*)hpcd->pData);
 8006aec:	f8d0 0268 	ldr.w	r0, [r0, #616]	; 0x268
 8006af0:	f7fd b9c1 	b.w	8003e76 <USBD_LL_Resume>

08006af4 <USBD_LL_OpenEP>:
  * @param  ep_type: Endpoint type
  * @param  ep_mps: Endpoint max packet size
  * @retval USBD status
  */
USBD_StatusTypeDef USBD_LL_OpenEP(USBD_HandleTypeDef *pdev, uint8_t ep_addr, uint8_t ep_type, uint16_t ep_mps)
{
 8006af4:	b510      	push	{r4, lr}
 8006af6:	461c      	mov	r4, r3
  HAL_StatusTypeDef hal_status = HAL_OK;
  USBD_StatusTypeDef usb_status = USBD_OK;

  hal_status = HAL_PCD_EP_Open(pdev->pData, ep_addr, ep_mps, ep_type);
 8006af8:	f8d0 02c0 	ldr.w	r0, [r0, #704]	; 0x2c0
 8006afc:	4613      	mov	r3, r2
 8006afe:	4622      	mov	r2, r4
 8006b00:	f7fb f98f 	bl	8001e22 <HAL_PCD_EP_Open>
 8006b04:	2803      	cmp	r0, #3
 8006b06:	bf96      	itet	ls
 8006b08:	4b01      	ldrls	r3, [pc, #4]	; (8006b10 <USBD_LL_OpenEP+0x1c>)
 8006b0a:	2002      	movhi	r0, #2
 8006b0c:	5c18      	ldrbls	r0, [r3, r0]

  usb_status =  USBD_Get_USB_Status(hal_status);
 
  return usb_status;
}
 8006b0e:	bd10      	pop	{r4, pc}
 8006b10:	0800af2d 	.word	0x0800af2d

08006b14 <USBD_LL_StallEP>:
  * @param  pdev: Device handle
  * @param  ep_addr: Endpoint number
  * @retval USBD status
  */
USBD_StatusTypeDef USBD_LL_StallEP(USBD_HandleTypeDef *pdev, uint8_t ep_addr)
{
 8006b14:	b508      	push	{r3, lr}
  HAL_StatusTypeDef hal_status = HAL_OK;
  USBD_StatusTypeDef usb_status = USBD_OK;
  
  hal_status = HAL_PCD_EP_SetStall(pdev->pData, ep_addr);
 8006b16:	f8d0 02c0 	ldr.w	r0, [r0, #704]	; 0x2c0
 8006b1a:	f7fb fbf9 	bl	8002310 <HAL_PCD_EP_SetStall>
 8006b1e:	2803      	cmp	r0, #3
 8006b20:	bf96      	itet	ls
 8006b22:	4b02      	ldrls	r3, [pc, #8]	; (8006b2c <USBD_LL_StallEP+0x18>)
 8006b24:	2002      	movhi	r0, #2
 8006b26:	5c18      	ldrbls	r0, [r3, r0]

  usb_status =  USBD_Get_USB_Status(hal_status);
 
  return usb_status;  
}
 8006b28:	bd08      	pop	{r3, pc}
 8006b2a:	bf00      	nop
 8006b2c:	0800af2d 	.word	0x0800af2d

08006b30 <USBD_LL_ClearStallEP>:
  * @param  pdev: Device handle
  * @param  ep_addr: Endpoint number
  * @retval USBD status
  */
USBD_StatusTypeDef USBD_LL_ClearStallEP(USBD_HandleTypeDef *pdev, uint8_t ep_addr)
{
 8006b30:	b508      	push	{r3, lr}
  HAL_StatusTypeDef hal_status = HAL_OK;
  USBD_StatusTypeDef usb_status = USBD_OK;
  
  hal_status = HAL_PCD_EP_ClrStall(pdev->pData, ep_addr);  
 8006b32:	f8d0 02c0 	ldr.w	r0, [r0, #704]	; 0x2c0
 8006b36:	f7fb fc1f 	bl	8002378 <HAL_PCD_EP_ClrStall>
 8006b3a:	2803      	cmp	r0, #3
 8006b3c:	bf96      	itet	ls
 8006b3e:	4b02      	ldrls	r3, [pc, #8]	; (8006b48 <USBD_LL_ClearStallEP+0x18>)
 8006b40:	2002      	movhi	r0, #2
 8006b42:	5c18      	ldrbls	r0, [r3, r0]
     
  usb_status =  USBD_Get_USB_Status(hal_status);

  return usb_status; 
}
 8006b44:	bd08      	pop	{r3, pc}
 8006b46:	bf00      	nop
 8006b48:	0800af2d 	.word	0x0800af2d

08006b4c <USBD_LL_IsStallEP>:
  */
uint8_t USBD_LL_IsStallEP(USBD_HandleTypeDef *pdev, uint8_t ep_addr)
{
  PCD_HandleTypeDef *hpcd = (PCD_HandleTypeDef*) pdev->pData;
  
  if((ep_addr & 0x80) == 0x80)
 8006b4c:	060a      	lsls	r2, r1, #24
  PCD_HandleTypeDef *hpcd = (PCD_HandleTypeDef*) pdev->pData;
 8006b4e:	f8d0 32c0 	ldr.w	r3, [r0, #704]	; 0x2c0
  {
    return hpcd->IN_ep[ep_addr & 0x7F].is_stall; 
 8006b52:	bf45      	ittet	mi
 8006b54:	f001 017f 	andmi.w	r1, r1, #127	; 0x7f
 8006b58:	eb03 1341 	addmi.w	r3, r3, r1, lsl #5
  }
  else
  {
    return hpcd->OUT_ep[ep_addr & 0x7F].is_stall; 
 8006b5c:	eb03 1341 	addpl.w	r3, r3, r1, lsl #5
    return hpcd->IN_ep[ep_addr & 0x7F].is_stall; 
 8006b60:	f893 002a 	ldrbmi.w	r0, [r3, #42]	; 0x2a
    return hpcd->OUT_ep[ep_addr & 0x7F].is_stall; 
 8006b64:	bf58      	it	pl
 8006b66:	f893 012a 	ldrbpl.w	r0, [r3, #298]	; 0x12a
  }
}
 8006b6a:	4770      	bx	lr

08006b6c <USBD_LL_SetUSBAddress>:
  * @param  pdev: Device handle
  * @param  dev_addr: Device address
  * @retval USBD status
  */
USBD_StatusTypeDef USBD_LL_SetUSBAddress(USBD_HandleTypeDef *pdev, uint8_t dev_addr)
{
 8006b6c:	b508      	push	{r3, lr}
  HAL_StatusTypeDef hal_status = HAL_OK;
  USBD_StatusTypeDef usb_status = USBD_OK;
  
  hal_status = HAL_PCD_SetAddress(pdev->pData, dev_addr);
 8006b6e:	f8d0 02c0 	ldr.w	r0, [r0, #704]	; 0x2c0
 8006b72:	f7fb f942 	bl	8001dfa <HAL_PCD_SetAddress>
 8006b76:	2803      	cmp	r0, #3
 8006b78:	bf96      	itet	ls
 8006b7a:	4b02      	ldrls	r3, [pc, #8]	; (8006b84 <USBD_LL_SetUSBAddress+0x18>)
 8006b7c:	2002      	movhi	r0, #2
 8006b7e:	5c18      	ldrbls	r0, [r3, r0]
     
  usb_status =  USBD_Get_USB_Status(hal_status);
 
  return usb_status;  
}
 8006b80:	bd08      	pop	{r3, pc}
 8006b82:	bf00      	nop
 8006b84:	0800af2d 	.word	0x0800af2d

08006b88 <USBD_LL_Transmit>:
  * @param  pbuf: Pointer to data to be sent
  * @param  size: Data size    
  * @retval USBD status
  */
USBD_StatusTypeDef USBD_LL_Transmit(USBD_HandleTypeDef *pdev, uint8_t ep_addr, uint8_t *pbuf, uint16_t size)
{
 8006b88:	b508      	push	{r3, lr}
  HAL_StatusTypeDef hal_status = HAL_OK;
  USBD_StatusTypeDef usb_status = USBD_OK;

  hal_status = HAL_PCD_EP_Transmit(pdev->pData, ep_addr, pbuf, size);
 8006b8a:	f8d0 02c0 	ldr.w	r0, [r0, #704]	; 0x2c0
 8006b8e:	f7fb f993 	bl	8001eb8 <HAL_PCD_EP_Transmit>
 8006b92:	2803      	cmp	r0, #3
 8006b94:	bf96      	itet	ls
 8006b96:	4b02      	ldrls	r3, [pc, #8]	; (8006ba0 <USBD_LL_Transmit+0x18>)
 8006b98:	2002      	movhi	r0, #2
 8006b9a:	5c18      	ldrbls	r0, [r3, r0]
     
  usb_status =  USBD_Get_USB_Status(hal_status);
  
  return usb_status;    
}
 8006b9c:	bd08      	pop	{r3, pc}
 8006b9e:	bf00      	nop
 8006ba0:	0800af2d 	.word	0x0800af2d

08006ba4 <USBD_LL_PrepareReceive>:
  * @param  pbuf: Pointer to data to be received
  * @param  size: Data size
  * @retval USBD status
  */
USBD_StatusTypeDef USBD_LL_PrepareReceive(USBD_HandleTypeDef *pdev, uint8_t ep_addr, uint8_t *pbuf, uint16_t size)
{
 8006ba4:	b508      	push	{r3, lr}
  HAL_StatusTypeDef hal_status = HAL_OK;
  USBD_StatusTypeDef usb_status = USBD_OK;

  hal_status = HAL_PCD_EP_Receive(pdev->pData, ep_addr, pbuf, size);
 8006ba6:	f8d0 02c0 	ldr.w	r0, [r0, #704]	; 0x2c0
 8006baa:	f7fb f96d 	bl	8001e88 <HAL_PCD_EP_Receive>
 8006bae:	2803      	cmp	r0, #3
 8006bb0:	bf96      	itet	ls
 8006bb2:	4b02      	ldrls	r3, [pc, #8]	; (8006bbc <USBD_LL_PrepareReceive+0x18>)
 8006bb4:	2002      	movhi	r0, #2
 8006bb6:	5c18      	ldrbls	r0, [r3, r0]
     
  usb_status =  USBD_Get_USB_Status(hal_status);
  	
  return usb_status; 
}
 8006bb8:	bd08      	pop	{r3, pc}
 8006bba:	bf00      	nop
 8006bbc:	0800af2d 	.word	0x0800af2d

08006bc0 <vt100_process_byte>:
 8006bc0:	e92d 4ff8 	stmdb	sp!, {r3, r4, r5, r6, r7, r8, r9, sl, fp, lr}
 8006bc4:	4d1c      	ldr	r5, [pc, #112]	; (8006c38 <vt100_process_byte+0x78>)
 8006bc6:	782b      	ldrb	r3, [r5, #0]
 8006bc8:	b91b      	cbnz	r3, 8006bd2 <vt100_process_byte+0x12>
 8006bca:	f1a0 0220 	sub.w	r2, r0, #32
 8006bce:	2a5e      	cmp	r2, #94	; 0x5e
 8006bd0:	d92e      	bls.n	8006c30 <vt100_process_byte+0x70>
 8006bd2:	280d      	cmp	r0, #13
 8006bd4:	d02e      	beq.n	8006c34 <vt100_process_byte+0x74>
 8006bd6:	4c19      	ldr	r4, [pc, #100]	; (8006c3c <vt100_process_byte+0x7c>)
 8006bd8:	2700      	movs	r7, #0
 8006bda:	f04f 0a0c 	mov.w	sl, #12
 8006bde:	46a3      	mov	fp, r4
 8006be0:	1c5e      	adds	r6, r3, #1
 8006be2:	b2f6      	uxtb	r6, r6
 8006be4:	f8df 9058 	ldr.w	r9, [pc, #88]	; 8006c40 <vt100_process_byte+0x80>
 8006be8:	702e      	strb	r6, [r5, #0]
 8006bea:	54e0      	strb	r0, [r4, r3]
 8006bec:	fb0a 9807 	mla	r8, sl, r7, r9
 8006bf0:	f898 3008 	ldrb.w	r3, [r8, #8]
 8006bf4:	42b3      	cmp	r3, r6
 8006bf6:	d112      	bne.n	8006c1e <vt100_process_byte+0x5e>
 8006bf8:	4632      	mov	r2, r6
 8006bfa:	4659      	mov	r1, fp
 8006bfc:	f8d8 0004 	ldr.w	r0, [r8, #4]
 8006c00:	f000 fdd9 	bl	80077b6 <strncmp>
 8006c04:	4603      	mov	r3, r0
 8006c06:	b950      	cbnz	r0, 8006c1e <vt100_process_byte+0x5e>
 8006c08:	f898 0000 	ldrb.w	r0, [r8]
 8006c0c:	b958      	cbnz	r0, 8006c26 <vt100_process_byte+0x66>
 8006c0e:	2e07      	cmp	r6, #7
 8006c10:	f04f 0000 	mov.w	r0, #0
 8006c14:	d90a      	bls.n	8006c2c <vt100_process_byte+0x6c>
 8006c16:	7028      	strb	r0, [r5, #0]
 8006c18:	6020      	str	r0, [r4, #0]
 8006c1a:	6060      	str	r0, [r4, #4]
 8006c1c:	e006      	b.n	8006c2c <vt100_process_byte+0x6c>
 8006c1e:	3701      	adds	r7, #1
 8006c20:	2f0f      	cmp	r7, #15
 8006c22:	d1e3      	bne.n	8006bec <vt100_process_byte+0x2c>
 8006c24:	e7f3      	b.n	8006c0e <vt100_process_byte+0x4e>
 8006c26:	702b      	strb	r3, [r5, #0]
 8006c28:	6023      	str	r3, [r4, #0]
 8006c2a:	6063      	str	r3, [r4, #4]
 8006c2c:	e8bd 8ff8 	ldmia.w	sp!, {r3, r4, r5, r6, r7, r8, r9, sl, fp, pc}
 8006c30:	2001      	movs	r0, #1
 8006c32:	e7fb      	b.n	8006c2c <vt100_process_byte+0x6c>
 8006c34:	2008      	movs	r0, #8
 8006c36:	e7f9      	b.n	8006c2c <vt100_process_byte+0x6c>
 8006c38:	20000594 	.word	0x20000594
 8006c3c:	2000058c 	.word	0x2000058c
 8006c40:	0800af54 	.word	0x0800af54

08006c44 <vt100_get_keycode>:
 8006c44:	280e      	cmp	r0, #14
 8006c46:	b530      	push	{r4, r5, lr}
 8006c48:	d80c      	bhi.n	8006c64 <vt100_get_keycode+0x20>
 8006c4a:	2200      	movs	r2, #0
 8006c4c:	240c      	movs	r4, #12
 8006c4e:	4b06      	ldr	r3, [pc, #24]	; (8006c68 <vt100_get_keycode+0x24>)
 8006c50:	fb04 f102 	mul.w	r1, r4, r2
 8006c54:	5ccd      	ldrb	r5, [r1, r3]
 8006c56:	4285      	cmp	r5, r0
 8006c58:	d101      	bne.n	8006c5e <vt100_get_keycode+0x1a>
 8006c5a:	1858      	adds	r0, r3, r1
 8006c5c:	bd30      	pop	{r4, r5, pc}
 8006c5e:	3201      	adds	r2, #1
 8006c60:	2a0f      	cmp	r2, #15
 8006c62:	d1f5      	bne.n	8006c50 <vt100_get_keycode+0xc>
 8006c64:	2000      	movs	r0, #0
 8006c66:	e7f9      	b.n	8006c5c <vt100_get_keycode+0x18>
 8006c68:	0800af54 	.word	0x0800af54

08006c6c <fx_pwm_pulsing_light_run>:
 8006c6c:	2801      	cmp	r0, #1
 8006c6e:	b570      	push	{r4, r5, r6, lr}
 8006c70:	d00b      	beq.n	8006c8a <fx_pwm_pulsing_light_run+0x1e>
 8006c72:	d303      	bcc.n	8006c7c <fx_pwm_pulsing_light_run+0x10>
 8006c74:	2802      	cmp	r0, #2
 8006c76:	d029      	beq.n	8006ccc <fx_pwm_pulsing_light_run+0x60>
 8006c78:	2003      	movs	r0, #3
 8006c7a:	e005      	b.n	8006c88 <fx_pwm_pulsing_light_run+0x1c>
 8006c7c:	2400      	movs	r4, #0
 8006c7e:	4b18      	ldr	r3, [pc, #96]	; (8006ce0 <fx_pwm_pulsing_light_run+0x74>)
 8006c80:	701c      	strb	r4, [r3, #0]
 8006c82:	f000 fa63 	bl	800714c <reset_frame_delay>
 8006c86:	4620      	mov	r0, r4
 8006c88:	bd70      	pop	{r4, r5, r6, pc}
 8006c8a:	4c15      	ldr	r4, [pc, #84]	; (8006ce0 <fx_pwm_pulsing_light_run+0x74>)
 8006c8c:	200f      	movs	r0, #15
 8006c8e:	7825      	ldrb	r5, [r4, #0]
 8006c90:	f000 fa7e 	bl	8007190 <get_DMX_variable>
 8006c94:	4428      	add	r0, r5
 8006c96:	b283      	uxth	r3, r0
 8006c98:	2bff      	cmp	r3, #255	; 0xff
 8006c9a:	bf8c      	ite	hi
 8006c9c:	23ff      	movhi	r3, #255	; 0xff
 8006c9e:	7020      	strbls	r0, [r4, #0]
 8006ca0:	f04f 000e 	mov.w	r0, #14
 8006ca4:	bf88      	it	hi
 8006ca6:	7023      	strbhi	r3, [r4, #0]
 8006ca8:	f000 fa72 	bl	8007190 <get_DMX_variable>
 8006cac:	b205      	sxth	r5, r0
 8006cae:	2d09      	cmp	r5, #9
 8006cb0:	bfa8      	it	ge
 8006cb2:	2509      	movge	r5, #9
 8006cb4:	2600      	movs	r6, #0
 8006cb6:	b2f0      	uxtb	r0, r6
 8006cb8:	4285      	cmp	r5, r0
 8006cba:	f106 0601 	add.w	r6, r6, #1
 8006cbe:	da01      	bge.n	8006cc4 <fx_pwm_pulsing_light_run+0x58>
 8006cc0:	2002      	movs	r0, #2
 8006cc2:	e7e1      	b.n	8006c88 <fx_pwm_pulsing_light_run+0x1c>
 8006cc4:	7821      	ldrb	r1, [r4, #0]
 8006cc6:	f000 fa60 	bl	800718a <set_pwm_light>
 8006cca:	e7f4      	b.n	8006cb6 <fx_pwm_pulsing_light_run+0x4a>
 8006ccc:	2400      	movs	r4, #0
 8006cce:	b2e0      	uxtb	r0, r4
 8006cd0:	2100      	movs	r1, #0
 8006cd2:	3401      	adds	r4, #1
 8006cd4:	f000 fa59 	bl	800718a <set_pwm_light>
 8006cd8:	2c0a      	cmp	r4, #10
 8006cda:	d1f8      	bne.n	8006cce <fx_pwm_pulsing_light_run+0x62>
 8006cdc:	2001      	movs	r0, #1
 8006cde:	e7d3      	b.n	8006c88 <fx_pwm_pulsing_light_run+0x1c>
 8006ce0:	20000d20 	.word	0x20000d20

08006ce4 <fx_pwm_pulsing_light>:
 8006ce4:	4601      	mov	r1, r0
 8006ce6:	4801      	ldr	r0, [pc, #4]	; (8006cec <fx_pwm_pulsing_light+0x8>)
 8006ce8:	f7fd bcc8 	b.w	800467c <register_fx>
 8006cec:	0800b008 	.word	0x0800b008

08006cf0 <fx_pwm_pulsing_pulse_light>:
 8006cf0:	4601      	mov	r1, r0
 8006cf2:	4801      	ldr	r0, [pc, #4]	; (8006cf8 <fx_pwm_pulsing_pulse_light+0x8>)
 8006cf4:	f7fd bcc2 	b.w	800467c <register_fx>
 8006cf8:	0800b01c 	.word	0x0800b01c

08006cfc <fx_pwm_running_light_run>:
 8006cfc:	2801      	cmp	r0, #1
 8006cfe:	b5f8      	push	{r3, r4, r5, r6, r7, lr}
 8006d00:	d012      	beq.n	8006d28 <fx_pwm_running_light_run+0x2c>
 8006d02:	d303      	bcc.n	8006d0c <fx_pwm_running_light_run+0x10>
 8006d04:	2802      	cmp	r0, #2
 8006d06:	d051      	beq.n	8006dac <fx_pwm_running_light_run+0xb0>
 8006d08:	2003      	movs	r0, #3
 8006d0a:	e00c      	b.n	8006d26 <fx_pwm_running_light_run+0x2a>
 8006d0c:	200b      	movs	r0, #11
 8006d0e:	f000 fc5b 	bl	80075c8 <malloc>
 8006d12:	2400      	movs	r4, #0
 8006d14:	4b28      	ldr	r3, [pc, #160]	; (8006db8 <fx_pwm_running_light_run+0xbc>)
 8006d16:	e9c0 4400 	strd	r4, r4, [r0]
 8006d1a:	f8c0 4007 	str.w	r4, [r0, #7]
 8006d1e:	6018      	str	r0, [r3, #0]
 8006d20:	f000 fa14 	bl	800714c <reset_frame_delay>
 8006d24:	4620      	mov	r0, r4
 8006d26:	bdf8      	pop	{r3, r4, r5, r6, r7, pc}
 8006d28:	200d      	movs	r0, #13
 8006d2a:	f000 fa31 	bl	8007190 <get_DMX_variable>
 8006d2e:	f000 fa13 	bl	8007158 <check_frame_delay>
 8006d32:	b908      	cbnz	r0, 8006d38 <fx_pwm_running_light_run+0x3c>
 8006d34:	2002      	movs	r0, #2
 8006d36:	e7f6      	b.n	8006d26 <fx_pwm_running_light_run+0x2a>
 8006d38:	4e1f      	ldr	r6, [pc, #124]	; (8006db8 <fx_pwm_running_light_run+0xbc>)
 8006d3a:	2700      	movs	r7, #0
 8006d3c:	4635      	mov	r5, r6
 8006d3e:	6833      	ldr	r3, [r6, #0]
 8006d40:	200f      	movs	r0, #15
 8006d42:	5ddc      	ldrb	r4, [r3, r7]
 8006d44:	f000 fa24 	bl	8007190 <get_DMX_variable>
 8006d48:	38ff      	subs	r0, #255	; 0xff
 8006d4a:	4404      	add	r4, r0
 8006d4c:	b224      	sxth	r4, r4
 8006d4e:	6833      	ldr	r3, [r6, #0]
 8006d50:	ea24 74e4 	bic.w	r4, r4, r4, asr #31
 8006d54:	55dc      	strb	r4, [r3, r7]
 8006d56:	3701      	adds	r7, #1
 8006d58:	2f0a      	cmp	r7, #10
 8006d5a:	d1f0      	bne.n	8006d3e <fx_pwm_running_light_run+0x42>
 8006d5c:	200e      	movs	r0, #14
 8006d5e:	f000 fa17 	bl	8007190 <get_DMX_variable>
 8006d62:	2809      	cmp	r0, #9
 8006d64:	bf28      	it	cs
 8006d66:	2009      	movcs	r0, #9
 8006d68:	b2c4      	uxtb	r4, r0
 8006d6a:	200c      	movs	r0, #12
 8006d6c:	f000 fa10 	bl	8007190 <get_DMX_variable>
 8006d70:	6833      	ldr	r3, [r6, #0]
 8006d72:	7a9a      	ldrb	r2, [r3, #10]
 8006d74:	b198      	cbz	r0, 8006d9e <fx_pwm_running_light_run+0xa2>
 8006d76:	b90a      	cbnz	r2, 8006d7c <fx_pwm_running_light_run+0x80>
 8006d78:	3401      	adds	r4, #1
 8006d7a:	729c      	strb	r4, [r3, #10]
 8006d7c:	7a9a      	ldrb	r2, [r3, #10]
 8006d7e:	3a01      	subs	r2, #1
 8006d80:	21ff      	movs	r1, #255	; 0xff
 8006d82:	2400      	movs	r4, #0
 8006d84:	729a      	strb	r2, [r3, #10]
 8006d86:	682b      	ldr	r3, [r5, #0]
 8006d88:	7a9a      	ldrb	r2, [r3, #10]
 8006d8a:	5499      	strb	r1, [r3, r2]
 8006d8c:	682b      	ldr	r3, [r5, #0]
 8006d8e:	b2e0      	uxtb	r0, r4
 8006d90:	5d19      	ldrb	r1, [r3, r4]
 8006d92:	3401      	adds	r4, #1
 8006d94:	f000 f9f9 	bl	800718a <set_pwm_light>
 8006d98:	2c0a      	cmp	r4, #10
 8006d9a:	d1f7      	bne.n	8006d8c <fx_pwm_running_light_run+0x90>
 8006d9c:	e7ca      	b.n	8006d34 <fx_pwm_running_light_run+0x38>
 8006d9e:	42a2      	cmp	r2, r4
 8006da0:	bf04      	itt	eq
 8006da2:	22ff      	moveq	r2, #255	; 0xff
 8006da4:	729a      	strbeq	r2, [r3, #10]
 8006da6:	7a9a      	ldrb	r2, [r3, #10]
 8006da8:	3201      	adds	r2, #1
 8006daa:	e7e9      	b.n	8006d80 <fx_pwm_running_light_run+0x84>
 8006dac:	4b02      	ldr	r3, [pc, #8]	; (8006db8 <fx_pwm_running_light_run+0xbc>)
 8006dae:	6818      	ldr	r0, [r3, #0]
 8006db0:	f000 fc12 	bl	80075d8 <free>
 8006db4:	2001      	movs	r0, #1
 8006db6:	e7b6      	b.n	8006d26 <fx_pwm_running_light_run+0x2a>
 8006db8:	20000d20 	.word	0x20000d20

08006dbc <fx_pwm_running_light>:
 8006dbc:	4601      	mov	r1, r0
 8006dbe:	4801      	ldr	r0, [pc, #4]	; (8006dc4 <fx_pwm_running_light+0x8>)
 8006dc0:	f7fd bc5c 	b.w	800467c <register_fx>
 8006dc4:	0800b030 	.word	0x0800b030

08006dc8 <fx_pwm_running_pulse_light>:
 8006dc8:	4601      	mov	r1, r0
 8006dca:	4801      	ldr	r0, [pc, #4]	; (8006dd0 <fx_pwm_running_pulse_light+0x8>)
 8006dcc:	f7fd bc56 	b.w	800467c <register_fx>
 8006dd0:	0800b044 	.word	0x0800b044
 8006dd4:	00000000 	.word	0x00000000

08006dd8 <fx_strip_cylon_run>:
 8006dd8:	2801      	cmp	r0, #1
 8006dda:	b5f7      	push	{r0, r1, r2, r4, r5, r6, r7, lr}
 8006ddc:	d016      	beq.n	8006e0c <fx_strip_cylon_run+0x34>
 8006dde:	d304      	bcc.n	8006dea <fx_strip_cylon_run+0x12>
 8006de0:	2802      	cmp	r0, #2
 8006de2:	f000 8082 	beq.w	8006eea <fx_strip_cylon_run+0x112>
 8006de6:	2003      	movs	r0, #3
 8006de8:	e00e      	b.n	8006e08 <fx_strip_cylon_run+0x30>
 8006dea:	f000 f9d3 	bl	8007194 <millisec>
 8006dee:	4b46      	ldr	r3, [pc, #280]	; (8006f08 <fx_strip_cylon_run+0x130>)
 8006df0:	6018      	str	r0, [r3, #0]
 8006df2:	2000      	movs	r0, #0
 8006df4:	f000 fa9a 	bl	800732c <WS2812B_numPixels>
 8006df8:	4601      	mov	r1, r0
 8006dfa:	4844      	ldr	r0, [pc, #272]	; (8006f0c <fx_strip_cylon_run+0x134>)
 8006dfc:	f000 f9cc 	bl	8007198 <create_rgb_buffer>
 8006e00:	2800      	cmp	r0, #0
 8006e02:	bf0c      	ite	eq
 8006e04:	2003      	moveq	r0, #3
 8006e06:	2000      	movne	r0, #0
 8006e08:	b003      	add	sp, #12
 8006e0a:	bdf0      	pop	{r4, r5, r6, r7, pc}
 8006e0c:	f000 f9c2 	bl	8007194 <millisec>
 8006e10:	4d3d      	ldr	r5, [pc, #244]	; (8006f08 <fx_strip_cylon_run+0x130>)
 8006e12:	682b      	ldr	r3, [r5, #0]
 8006e14:	1ac4      	subs	r4, r0, r3
 8006e16:	200d      	movs	r0, #13
 8006e18:	f000 f9ba 	bl	8007190 <get_DMX_variable>
 8006e1c:	4284      	cmp	r4, r0
 8006e1e:	d362      	bcc.n	8006ee6 <fx_strip_cylon_run+0x10e>
 8006e20:	f000 f9b8 	bl	8007194 <millisec>
 8006e24:	6028      	str	r0, [r5, #0]
 8006e26:	200e      	movs	r0, #14
 8006e28:	f000 f9b2 	bl	8007190 <get_DMX_variable>
 8006e2c:	4e38      	ldr	r6, [pc, #224]	; (8006f10 <fx_strip_cylon_run+0x138>)
 8006e2e:	4601      	mov	r1, r0
 8006e30:	4836      	ldr	r0, [pc, #216]	; (8006f0c <fx_strip_cylon_run+0x134>)
 8006e32:	f000 f9ec 	bl	800720e <fade_rgb_buf>
 8006e36:	8830      	ldrh	r0, [r6, #0]
 8006e38:	f7f9 fae4 	bl	8000404 <__aeabi_i2d>
 8006e3c:	a330      	add	r3, pc, #192	; (adr r3, 8006f00 <fx_strip_cylon_run+0x128>)
 8006e3e:	e9d3 2300 	ldrd	r2, r3, [r3]
 8006e42:	f7f9 fb49 	bl	80004d8 <__aeabi_dmul>
 8006e46:	2200      	movs	r2, #0
 8006e48:	4b32      	ldr	r3, [pc, #200]	; (8006f14 <fx_strip_cylon_run+0x13c>)
 8006e4a:	f7f9 fc6f 	bl	800072c <__aeabi_ddiv>
 8006e4e:	f001 f993 	bl	8008178 <sin>
 8006e52:	4604      	mov	r4, r0
 8006e54:	200f      	movs	r0, #15
 8006e56:	460d      	mov	r5, r1
 8006e58:	f000 f99a 	bl	8007190 <get_DMX_variable>
 8006e5c:	8833      	ldrh	r3, [r6, #0]
 8006e5e:	4418      	add	r0, r3
 8006e60:	b280      	uxth	r0, r0
 8006e62:	f5b0 7fb4 	cmp.w	r0, #360	; 0x168
 8006e66:	bf88      	it	hi
 8006e68:	f5a0 70b4 	subhi.w	r0, r0, #360	; 0x168
 8006e6c:	8030      	strh	r0, [r6, #0]
 8006e6e:	2000      	movs	r0, #0
 8006e70:	f000 fa5c 	bl	800732c <WS2812B_numPixels>
 8006e74:	f7f9 fab6 	bl	80003e4 <__aeabi_ui2d>
 8006e78:	4622      	mov	r2, r4
 8006e7a:	462b      	mov	r3, r5
 8006e7c:	f7f9 fb2c 	bl	80004d8 <__aeabi_dmul>
 8006e80:	4606      	mov	r6, r0
 8006e82:	2000      	movs	r0, #0
 8006e84:	460f      	mov	r7, r1
 8006e86:	f000 fa51 	bl	800732c <WS2812B_numPixels>
 8006e8a:	2200      	movs	r2, #0
 8006e8c:	4b22      	ldr	r3, [pc, #136]	; (8006f18 <fx_strip_cylon_run+0x140>)
 8006e8e:	4604      	mov	r4, r0
 8006e90:	4639      	mov	r1, r7
 8006e92:	4630      	mov	r0, r6
 8006e94:	f7f9 fb20 	bl	80004d8 <__aeabi_dmul>
 8006e98:	f7f9 fdce 	bl	8000a38 <__aeabi_d2iz>
 8006e9c:	eb00 0454 	add.w	r4, r0, r4, lsr #1
 8006ea0:	2010      	movs	r0, #16
 8006ea2:	f000 f975 	bl	8007190 <get_DMX_variable>
 8006ea6:	4601      	mov	r1, r0
 8006ea8:	2003      	movs	r0, #3
 8006eaa:	f7fd fdab 	bl	8004a04 <getGamma>
 8006eae:	4605      	mov	r5, r0
 8006eb0:	2011      	movs	r0, #17
 8006eb2:	f000 f96d 	bl	8007190 <get_DMX_variable>
 8006eb6:	4601      	mov	r1, r0
 8006eb8:	2003      	movs	r0, #3
 8006eba:	f7fd fda3 	bl	8004a04 <getGamma>
 8006ebe:	4606      	mov	r6, r0
 8006ec0:	2012      	movs	r0, #18
 8006ec2:	f000 f965 	bl	8007190 <get_DMX_variable>
 8006ec6:	4601      	mov	r1, r0
 8006ec8:	2003      	movs	r0, #3
 8006eca:	f7fd fd9b 	bl	8004a04 <getGamma>
 8006ece:	b2a4      	uxth	r4, r4
 8006ed0:	9000      	str	r0, [sp, #0]
 8006ed2:	4621      	mov	r1, r4
 8006ed4:	480d      	ldr	r0, [pc, #52]	; (8006f0c <fx_strip_cylon_run+0x134>)
 8006ed6:	4633      	mov	r3, r6
 8006ed8:	462a      	mov	r2, r5
 8006eda:	f000 f96e 	bl	80071ba <set_buffer_pixel>
 8006ede:	490b      	ldr	r1, [pc, #44]	; (8006f0c <fx_strip_cylon_run+0x134>)
 8006ee0:	2000      	movs	r0, #0
 8006ee2:	f000 f975 	bl	80071d0 <set_pixels_from_buf>
 8006ee6:	2002      	movs	r0, #2
 8006ee8:	e78e      	b.n	8006e08 <fx_strip_cylon_run+0x30>
 8006eea:	2000      	movs	r0, #0
 8006eec:	f000 fa26 	bl	800733c <WS2812B_clear>
 8006ef0:	2001      	movs	r0, #1
 8006ef2:	f000 fa23 	bl	800733c <WS2812B_clear>
 8006ef6:	4805      	ldr	r0, [pc, #20]	; (8006f0c <fx_strip_cylon_run+0x134>)
 8006ef8:	f000 f95c 	bl	80071b4 <destroy_rgb_buffer>
 8006efc:	2001      	movs	r0, #1
 8006efe:	e783      	b.n	8006e08 <fx_strip_cylon_run+0x30>
 8006f00:	53c8d4f1 	.word	0x53c8d4f1
 8006f04:	400921fb 	.word	0x400921fb
 8006f08:	200005a0 	.word	0x200005a0
 8006f0c:	20000598 	.word	0x20000598
 8006f10:	200005a4 	.word	0x200005a4
 8006f14:	40668000 	.word	0x40668000
 8006f18:	3fe00000 	.word	0x3fe00000

08006f1c <fx_strip_cylon>:
 8006f1c:	4601      	mov	r1, r0
 8006f1e:	4801      	ldr	r0, [pc, #4]	; (8006f24 <fx_strip_cylon+0x8>)
 8006f20:	f7fd bbac 	b.w	800467c <register_fx>
 8006f24:	0800b058 	.word	0x0800b058

08006f28 <fx_strip_rainbow_run>:
 8006f28:	2801      	cmp	r0, #1
 8006f2a:	e92d 47f3 	stmdb	sp!, {r0, r1, r4, r5, r6, r7, r8, r9, sl, lr}
 8006f2e:	d004      	beq.n	8006f3a <fx_strip_rainbow_run+0x12>
 8006f30:	d341      	bcc.n	8006fb6 <fx_strip_rainbow_run+0x8e>
 8006f32:	2802      	cmp	r0, #2
 8006f34:	d059      	beq.n	8006fea <fx_strip_rainbow_run+0xc2>
 8006f36:	2003      	movs	r0, #3
 8006f38:	e030      	b.n	8006f9c <fx_strip_rainbow_run+0x74>
 8006f3a:	2400      	movs	r4, #0
 8006f3c:	4e2f      	ldr	r6, [pc, #188]	; (8006ffc <fx_strip_rainbow_run+0xd4>)
 8006f3e:	4f30      	ldr	r7, [pc, #192]	; (8007000 <fx_strip_rainbow_run+0xd8>)
 8006f40:	4d30      	ldr	r5, [pc, #192]	; (8007004 <fx_strip_rainbow_run+0xdc>)
 8006f42:	eb06 03c4 	add.w	r3, r6, r4, lsl #3
 8006f46:	1b1b      	subs	r3, r3, r4
 8006f48:	7858      	ldrb	r0, [r3, #1]
 8006f4a:	f000 f921 	bl	8007190 <get_DMX_variable>
 8006f4e:	4601      	mov	r1, r0
 8006f50:	eb07 0084 	add.w	r0, r7, r4, lsl #2
 8006f54:	fa5f f984 	uxtb.w	r9, r4
 8006f58:	f000 f90c 	bl	8007174 <check_custom_frame_delay>
 8006f5c:	b1e0      	cbz	r0, 8006f98 <fx_strip_rainbow_run+0x70>
 8006f5e:	4648      	mov	r0, r9
 8006f60:	f000 f9e4 	bl	800732c <WS2812B_numPixels>
 8006f64:	f8df a0a0 	ldr.w	sl, [pc, #160]	; 8007008 <fx_strip_rainbow_run+0xe0>
 8006f68:	f815 3014 	ldrb.w	r3, [r5, r4, lsl #1]
 8006f6c:	f81a 2014 	ldrb.w	r2, [sl, r4, lsl #1]
 8006f70:	2100      	movs	r1, #0
 8006f72:	9200      	str	r2, [sp, #0]
 8006f74:	b2c2      	uxtb	r2, r0
 8006f76:	4648      	mov	r0, r9
 8006f78:	f000 fa8f 	bl	800749a <WS2812B_rainbow>
 8006f7c:	f83a 2014 	ldrh.w	r2, [sl, r4, lsl #1]
 8006f80:	f835 3014 	ldrh.w	r3, [r5, r4, lsl #1]
 8006f84:	ea4f 0844 	mov.w	r8, r4, lsl #1
 8006f88:	4413      	add	r3, r2
 8006f8a:	b29b      	uxth	r3, r3
 8006f8c:	b21a      	sxth	r2, r3
 8006f8e:	2aff      	cmp	r2, #255	; 0xff
 8006f90:	dd09      	ble.n	8006fa6 <fx_strip_rainbow_run+0x7e>
 8006f92:	3bff      	subs	r3, #255	; 0xff
 8006f94:	f825 3014 	strh.w	r3, [r5, r4, lsl #1]
 8006f98:	b11c      	cbz	r4, 8006fa2 <fx_strip_rainbow_run+0x7a>
 8006f9a:	2002      	movs	r0, #2
 8006f9c:	b002      	add	sp, #8
 8006f9e:	e8bd 87f0 	ldmia.w	sp!, {r4, r5, r6, r7, r8, r9, sl, pc}
 8006fa2:	2401      	movs	r4, #1
 8006fa4:	e7cd      	b.n	8006f42 <fx_strip_rainbow_run+0x1a>
 8006fa6:	2a00      	cmp	r2, #0
 8006fa8:	bfb6      	itet	lt
 8006faa:	33ff      	addlt	r3, #255	; 0xff
 8006fac:	f828 2005 	strhge.w	r2, [r8, r5]
 8006fb0:	f828 3005 	strhlt.w	r3, [r8, r5]
 8006fb4:	e7f0      	b.n	8006f98 <fx_strip_rainbow_run+0x70>
 8006fb6:	4d11      	ldr	r5, [pc, #68]	; (8006ffc <fx_strip_rainbow_run+0xd4>)
 8006fb8:	4c13      	ldr	r4, [pc, #76]	; (8007008 <fx_strip_rainbow_run+0xe0>)
 8006fba:	78a8      	ldrb	r0, [r5, #2]
 8006fbc:	f000 f8e8 	bl	8007190 <get_DMX_variable>
 8006fc0:	8020      	strh	r0, [r4, #0]
 8006fc2:	7828      	ldrb	r0, [r5, #0]
 8006fc4:	f000 f8e4 	bl	8007190 <get_DMX_variable>
 8006fc8:	b110      	cbz	r0, 8006fd0 <fx_strip_rainbow_run+0xa8>
 8006fca:	8823      	ldrh	r3, [r4, #0]
 8006fcc:	425b      	negs	r3, r3
 8006fce:	8023      	strh	r3, [r4, #0]
 8006fd0:	7a68      	ldrb	r0, [r5, #9]
 8006fd2:	f000 f8dd 	bl	8007190 <get_DMX_variable>
 8006fd6:	8060      	strh	r0, [r4, #2]
 8006fd8:	79e8      	ldrb	r0, [r5, #7]
 8006fda:	f000 f8d9 	bl	8007190 <get_DMX_variable>
 8006fde:	b110      	cbz	r0, 8006fe6 <fx_strip_rainbow_run+0xbe>
 8006fe0:	8863      	ldrh	r3, [r4, #2]
 8006fe2:	425b      	negs	r3, r3
 8006fe4:	8063      	strh	r3, [r4, #2]
 8006fe6:	2000      	movs	r0, #0
 8006fe8:	e7d8      	b.n	8006f9c <fx_strip_rainbow_run+0x74>
 8006fea:	2000      	movs	r0, #0
 8006fec:	f000 f9a6 	bl	800733c <WS2812B_clear>
 8006ff0:	2001      	movs	r0, #1
 8006ff2:	f000 f9a3 	bl	800733c <WS2812B_clear>
 8006ff6:	2001      	movs	r0, #1
 8006ff8:	e7d0      	b.n	8006f9c <fx_strip_rainbow_run+0x74>
 8006ffa:	bf00      	nop
 8006ffc:	0800b094 	.word	0x0800b094
 8007000:	200005a8 	.word	0x200005a8
 8007004:	200005b0 	.word	0x200005b0
 8007008:	200005b4 	.word	0x200005b4

0800700c <fx_strip_rainbow>:
 800700c:	4601      	mov	r1, r0
 800700e:	4801      	ldr	r0, [pc, #4]	; (8007014 <fx_strip_rainbow+0x8>)
 8007010:	f7fd bb34 	b.w	800467c <register_fx>
 8007014:	0800b06c 	.word	0x0800b06c

08007018 <fx_strip_running_light_run>:
 8007018:	e92d 4ff0 	stmdb	sp!, {r4, r5, r6, r7, r8, r9, sl, fp, lr}
 800701c:	2801      	cmp	r0, #1
 800701e:	b085      	sub	sp, #20
 8007020:	d004      	beq.n	800702c <fx_strip_running_light_run+0x14>
 8007022:	d35a      	bcc.n	80070da <fx_strip_running_light_run+0xc2>
 8007024:	2802      	cmp	r0, #2
 8007026:	d07a      	beq.n	800711e <fx_strip_running_light_run+0x106>
 8007028:	2003      	movs	r0, #3
 800702a:	e044      	b.n	80070b6 <fx_strip_running_light_run+0x9e>
 800702c:	2400      	movs	r4, #0
 800702e:	4e40      	ldr	r6, [pc, #256]	; (8007130 <fx_strip_running_light_run+0x118>)
 8007030:	f8df b108 	ldr.w	fp, [pc, #264]	; 800713c <fx_strip_running_light_run+0x124>
 8007034:	4d3f      	ldr	r5, [pc, #252]	; (8007134 <fx_strip_running_light_run+0x11c>)
 8007036:	f8df 8100 	ldr.w	r8, [pc, #256]	; 8007138 <fx_strip_running_light_run+0x120>
 800703a:	7870      	ldrb	r0, [r6, #1]
 800703c:	f000 f8a8 	bl	8007190 <get_DMX_variable>
 8007040:	4601      	mov	r1, r0
 8007042:	eb0b 0084 	add.w	r0, fp, r4, lsl #2
 8007046:	fa5f fa84 	uxtb.w	sl, r4
 800704a:	f000 f893 	bl	8007174 <check_custom_frame_delay>
 800704e:	b378      	cbz	r0, 80070b0 <fx_strip_running_light_run+0x98>
 8007050:	4650      	mov	r0, sl
 8007052:	f000 f973 	bl	800733c <WS2812B_clear>
 8007056:	7930      	ldrb	r0, [r6, #4]
 8007058:	f835 7014 	ldrh.w	r7, [r5, r4, lsl #1]
 800705c:	f000 f898 	bl	8007190 <get_DMX_variable>
 8007060:	9003      	str	r0, [sp, #12]
 8007062:	7970      	ldrb	r0, [r6, #5]
 8007064:	f000 f894 	bl	8007190 <get_DMX_variable>
 8007068:	9002      	str	r0, [sp, #8]
 800706a:	79b0      	ldrb	r0, [r6, #6]
 800706c:	f000 f890 	bl	8007190 <get_DMX_variable>
 8007070:	e9dd 3202 	ldrd	r3, r2, [sp, #8]
 8007074:	4639      	mov	r1, r7
 8007076:	9000      	str	r0, [sp, #0]
 8007078:	4650      	mov	r0, sl
 800707a:	f000 f91d 	bl	80072b8 <WS2812B_setPixelColor>
 800707e:	f835 7014 	ldrh.w	r7, [r5, r4, lsl #1]
 8007082:	f838 3014 	ldrh.w	r3, [r8, r4, lsl #1]
 8007086:	4650      	mov	r0, sl
 8007088:	441f      	add	r7, r3
 800708a:	b23f      	sxth	r7, r7
 800708c:	f825 7014 	strh.w	r7, [r5, r4, lsl #1]
 8007090:	f000 f94c 	bl	800732c <WS2812B_numPixels>
 8007094:	4287      	cmp	r7, r0
 8007096:	ea4f 0944 	mov.w	r9, r4, lsl #1
 800709a:	dd11      	ble.n	80070c0 <fx_strip_running_light_run+0xa8>
 800709c:	f838 2014 	ldrh.w	r2, [r8, r4, lsl #1]
 80070a0:	4253      	negs	r3, r2
 80070a2:	f828 3014 	strh.w	r3, [r8, r4, lsl #1]
 80070a6:	f835 3014 	ldrh.w	r3, [r5, r4, lsl #1]
 80070aa:	1a9b      	subs	r3, r3, r2
 80070ac:	f825 3014 	strh.w	r3, [r5, r4, lsl #1]
 80070b0:	3607      	adds	r6, #7
 80070b2:	b11c      	cbz	r4, 80070bc <fx_strip_running_light_run+0xa4>
 80070b4:	2002      	movs	r0, #2
 80070b6:	b005      	add	sp, #20
 80070b8:	e8bd 8ff0 	ldmia.w	sp!, {r4, r5, r6, r7, r8, r9, sl, fp, pc}
 80070bc:	2401      	movs	r4, #1
 80070be:	e7bc      	b.n	800703a <fx_strip_running_light_run+0x22>
 80070c0:	f935 3014 	ldrsh.w	r3, [r5, r4, lsl #1]
 80070c4:	2b00      	cmp	r3, #0
 80070c6:	daf3      	bge.n	80070b0 <fx_strip_running_light_run+0x98>
 80070c8:	f839 2008 	ldrh.w	r2, [r9, r8]
 80070cc:	4251      	negs	r1, r2
 80070ce:	1a9b      	subs	r3, r3, r2
 80070d0:	f829 1008 	strh.w	r1, [r9, r8]
 80070d4:	f829 3005 	strh.w	r3, [r9, r5]
 80070d8:	e7ea      	b.n	80070b0 <fx_strip_running_light_run+0x98>
 80070da:	2400      	movs	r4, #0
 80070dc:	4f14      	ldr	r7, [pc, #80]	; (8007130 <fx_strip_running_light_run+0x118>)
 80070de:	4e16      	ldr	r6, [pc, #88]	; (8007138 <fx_strip_running_light_run+0x120>)
 80070e0:	f8df 8050 	ldr.w	r8, [pc, #80]	; 8007134 <fx_strip_running_light_run+0x11c>
 80070e4:	00e5      	lsls	r5, r4, #3
 80070e6:	1b2d      	subs	r5, r5, r4
 80070e8:	19eb      	adds	r3, r5, r7
 80070ea:	7898      	ldrb	r0, [r3, #2]
 80070ec:	f000 f850 	bl	8007190 <get_DMX_variable>
 80070f0:	f826 0014 	strh.w	r0, [r6, r4, lsl #1]
 80070f4:	5d78      	ldrb	r0, [r7, r5]
 80070f6:	fa5f f984 	uxtb.w	r9, r4
 80070fa:	f000 f849 	bl	8007190 <get_DMX_variable>
 80070fe:	b148      	cbz	r0, 8007114 <fx_strip_running_light_run+0xfc>
 8007100:	4648      	mov	r0, r9
 8007102:	f000 f913 	bl	800732c <WS2812B_numPixels>
 8007106:	f836 3014 	ldrh.w	r3, [r6, r4, lsl #1]
 800710a:	f828 0014 	strh.w	r0, [r8, r4, lsl #1]
 800710e:	425b      	negs	r3, r3
 8007110:	f826 3014 	strh.w	r3, [r6, r4, lsl #1]
 8007114:	b10c      	cbz	r4, 800711a <fx_strip_running_light_run+0x102>
 8007116:	2000      	movs	r0, #0
 8007118:	e7cd      	b.n	80070b6 <fx_strip_running_light_run+0x9e>
 800711a:	2401      	movs	r4, #1
 800711c:	e7e2      	b.n	80070e4 <fx_strip_running_light_run+0xcc>
 800711e:	2000      	movs	r0, #0
 8007120:	f000 f90c 	bl	800733c <WS2812B_clear>
 8007124:	2001      	movs	r0, #1
 8007126:	f000 f909 	bl	800733c <WS2812B_clear>
 800712a:	2001      	movs	r0, #1
 800712c:	e7c3      	b.n	80070b6 <fx_strip_running_light_run+0x9e>
 800712e:	bf00      	nop
 8007130:	0800b094 	.word	0x0800b094
 8007134:	200005c0 	.word	0x200005c0
 8007138:	200005c4 	.word	0x200005c4
 800713c:	200005b8 	.word	0x200005b8

08007140 <fx_strip_running_light>:
 8007140:	4601      	mov	r1, r0
 8007142:	4801      	ldr	r0, [pc, #4]	; (8007148 <fx_strip_running_light+0x8>)
 8007144:	f7fd ba9a 	b.w	800467c <register_fx>
 8007148:	0800b080 	.word	0x0800b080

0800714c <reset_frame_delay>:
 800714c:	2200      	movs	r2, #0
 800714e:	4b01      	ldr	r3, [pc, #4]	; (8007154 <reset_frame_delay+0x8>)
 8007150:	601a      	str	r2, [r3, #0]
 8007152:	4770      	bx	lr
 8007154:	200005c8 	.word	0x200005c8

08007158 <check_frame_delay>:
 8007158:	4a05      	ldr	r2, [pc, #20]	; (8007170 <check_frame_delay+0x18>)
 800715a:	6813      	ldr	r3, [r2, #0]
 800715c:	4283      	cmp	r3, r0
 800715e:	f04f 0000 	mov.w	r0, #0
 8007162:	bf15      	itete	ne
 8007164:	3301      	addne	r3, #1
 8007166:	6010      	streq	r0, [r2, #0]
 8007168:	6013      	strne	r3, [r2, #0]
 800716a:	2001      	moveq	r0, #1
 800716c:	4770      	bx	lr
 800716e:	bf00      	nop
 8007170:	200005c8 	.word	0x200005c8

08007174 <check_custom_frame_delay>:
 8007174:	2300      	movs	r3, #0
 8007176:	6802      	ldr	r2, [r0, #0]
 8007178:	428a      	cmp	r2, r1
 800717a:	bf15      	itete	ne
 800717c:	3201      	addne	r2, #1
 800717e:	6003      	streq	r3, [r0, #0]
 8007180:	6002      	strne	r2, [r0, #0]
 8007182:	2001      	moveq	r0, #1
 8007184:	bf18      	it	ne
 8007186:	4618      	movne	r0, r3
 8007188:	4770      	bx	lr

0800718a <set_pwm_light>:
 800718a:	3001      	adds	r0, #1
 800718c:	f7fd b8ea 	b.w	8004364 <set_reg>

08007190 <get_DMX_variable>:
 8007190:	f7fd b8f6 	b.w	8004380 <get_reg>

08007194 <millisec>:
 8007194:	f7fa b824 	b.w	80011e0 <HAL_GetTick>

08007198 <create_rgb_buffer>:
 8007198:	b538      	push	{r3, r4, r5, lr}
 800719a:	460d      	mov	r5, r1
 800719c:	2300      	movs	r3, #0
 800719e:	4604      	mov	r4, r0
 80071a0:	8083      	strh	r3, [r0, #4]
 80071a2:	2103      	movs	r1, #3
 80071a4:	4628      	mov	r0, r5
 80071a6:	f000 f9dd 	bl	8007564 <calloc>
 80071aa:	6020      	str	r0, [r4, #0]
 80071ac:	b108      	cbz	r0, 80071b2 <create_rgb_buffer+0x1a>
 80071ae:	2001      	movs	r0, #1
 80071b0:	80a5      	strh	r5, [r4, #4]
 80071b2:	bd38      	pop	{r3, r4, r5, pc}

080071b4 <destroy_rgb_buffer>:
 80071b4:	6800      	ldr	r0, [r0, #0]
 80071b6:	f000 ba0f 	b.w	80075d8 <free>

080071ba <set_buffer_pixel>:
 80071ba:	b510      	push	{r4, lr}
 80071bc:	6804      	ldr	r4, [r0, #0]
 80071be:	eb01 0141 	add.w	r1, r1, r1, lsl #1
 80071c2:	1860      	adds	r0, r4, r1
 80071c4:	5462      	strb	r2, [r4, r1]
 80071c6:	7043      	strb	r3, [r0, #1]
 80071c8:	f89d 3008 	ldrb.w	r3, [sp, #8]
 80071cc:	7083      	strb	r3, [r0, #2]
 80071ce:	bd10      	pop	{r4, pc}

080071d0 <set_pixels_from_buf>:
 80071d0:	b5f7      	push	{r0, r1, r2, r4, r5, r6, r7, lr}
 80071d2:	460d      	mov	r5, r1
 80071d4:	4607      	mov	r7, r0
 80071d6:	f000 f8a9 	bl	800732c <WS2812B_numPixels>
 80071da:	88ac      	ldrh	r4, [r5, #4]
 80071dc:	2600      	movs	r6, #0
 80071de:	4284      	cmp	r4, r0
 80071e0:	bf28      	it	cs
 80071e2:	4604      	movcs	r4, r0
 80071e4:	682d      	ldr	r5, [r5, #0]
 80071e6:	b2a4      	uxth	r4, r4
 80071e8:	b2b1      	uxth	r1, r6
 80071ea:	42a1      	cmp	r1, r4
 80071ec:	f105 0503 	add.w	r5, r5, #3
 80071f0:	d301      	bcc.n	80071f6 <set_pixels_from_buf+0x26>
 80071f2:	b003      	add	sp, #12
 80071f4:	bdf0      	pop	{r4, r5, r6, r7, pc}
 80071f6:	f815 0c01 	ldrb.w	r0, [r5, #-1]
 80071fa:	f815 3c02 	ldrb.w	r3, [r5, #-2]
 80071fe:	f815 2c03 	ldrb.w	r2, [r5, #-3]
 8007202:	9000      	str	r0, [sp, #0]
 8007204:	4638      	mov	r0, r7
 8007206:	f000 f857 	bl	80072b8 <WS2812B_setPixelColor>
 800720a:	3601      	adds	r6, #1
 800720c:	e7ec      	b.n	80071e8 <set_pixels_from_buf+0x18>

0800720e <fade_rgb_buf>:
 800720e:	8882      	ldrh	r2, [r0, #4]
 8007210:	6803      	ldr	r3, [r0, #0]
 8007212:	eb02 0242 	add.w	r2, r2, r2, lsl #1
 8007216:	1cd8      	adds	r0, r3, #3
 8007218:	4402      	add	r2, r0
 800721a:	3303      	adds	r3, #3
 800721c:	4293      	cmp	r3, r2
 800721e:	d100      	bne.n	8007222 <fade_rgb_buf+0x14>
 8007220:	4770      	bx	lr
 8007222:	f813 0c03 	ldrb.w	r0, [r3, #-3]
 8007226:	4348      	muls	r0, r1
 8007228:	1200      	asrs	r0, r0, #8
 800722a:	f803 0c03 	strb.w	r0, [r3, #-3]
 800722e:	f813 0c02 	ldrb.w	r0, [r3, #-2]
 8007232:	4348      	muls	r0, r1
 8007234:	1200      	asrs	r0, r0, #8
 8007236:	f803 0c02 	strb.w	r0, [r3, #-2]
 800723a:	f813 0c01 	ldrb.w	r0, [r3, #-1]
 800723e:	4348      	muls	r0, r1
 8007240:	1200      	asrs	r0, r0, #8
 8007242:	f803 0c01 	strb.w	r0, [r3, #-1]
 8007246:	e7e8      	b.n	800721a <fade_rgb_buf+0xc>

08007248 <WS2812B_show>:
 8007248:	2318      	movs	r3, #24
 800724a:	b570      	push	{r4, r5, r6, lr}
 800724c:	4c18      	ldr	r4, [pc, #96]	; (80072b0 <WS2812B_show+0x68>)
 800724e:	4606      	mov	r6, r0
 8007250:	fb03 4300 	mla	r3, r3, r0, r4
 8007254:	889a      	ldrh	r2, [r3, #4]
 8007256:	b352      	cbz	r2, 80072ae <WS2812B_show+0x66>
 8007258:	691b      	ldr	r3, [r3, #16]
 800725a:	681a      	ldr	r2, [r3, #0]
 800725c:	6893      	ldr	r3, [r2, #8]
 800725e:	061b      	lsls	r3, r3, #24
 8007260:	d4fc      	bmi.n	800725c <WS2812B_show+0x14>
 8007262:	2518      	movs	r5, #24
 8007264:	fb05 4506 	mla	r5, r5, r6, r4
 8007268:	f7f9 ffba 	bl	80011e0 <HAL_GetTick>
 800726c:	682b      	ldr	r3, [r5, #0]
 800726e:	4298      	cmp	r0, r3
 8007270:	d3fa      	bcc.n	8007268 <WS2812B_show+0x20>
 8007272:	88ea      	ldrh	r2, [r5, #6]
 8007274:	68a9      	ldr	r1, [r5, #8]
 8007276:	6928      	ldr	r0, [r5, #16]
 8007278:	f7fb fcec 	bl	8002c54 <HAL_SPI_Transmit_DMA>
 800727c:	b118      	cbz	r0, 8007286 <WS2812B_show+0x3e>
 800727e:	4a0d      	ldr	r2, [pc, #52]	; (80072b4 <WS2812B_show+0x6c>)
 8007280:	7813      	ldrb	r3, [r2, #0]
 8007282:	3301      	adds	r3, #1
 8007284:	7013      	strb	r3, [r2, #0]
 8007286:	f7f9 ffab 	bl	80011e0 <HAL_GetTick>
 800728a:	2218      	movs	r2, #24
 800728c:	4372      	muls	r2, r6
 800728e:	3006      	adds	r0, #6
 8007290:	18a3      	adds	r3, r4, r2
 8007292:	50a0      	str	r0, [r4, r2]
 8007294:	88da      	ldrh	r2, [r3, #6]
 8007296:	e9d3 1002 	ldrd	r1, r0, [r3, #8]
 800729a:	4281      	cmp	r1, r0
 800729c:	bf07      	ittee	eq
 800729e:	1888      	addeq	r0, r1, r2
 80072a0:	6098      	streq	r0, [r3, #8]
 80072a2:	6098      	strne	r0, [r3, #8]
 80072a4:	1881      	addne	r1, r0, r2
 80072a6:	e8bd 4070 	ldmia.w	sp!, {r4, r5, r6, lr}
 80072aa:	f000 b99d 	b.w	80075e8 <memcpy>
 80072ae:	bd70      	pop	{r4, r5, r6, pc}
 80072b0:	20000854 	.word	0x20000854
 80072b4:	200005cc 	.word	0x200005cc

080072b8 <WS2812B_setPixelColor>:
 80072b8:	b5f0      	push	{r4, r5, r6, r7, lr}
 80072ba:	2418      	movs	r4, #24
 80072bc:	4e13      	ldr	r6, [pc, #76]	; (800730c <WS2812B_setPixelColor+0x54>)
 80072be:	eb03 0343 	add.w	r3, r3, r3, lsl #1
 80072c2:	fb04 6000 	mla	r0, r4, r0, r6
 80072c6:	4c12      	ldr	r4, [pc, #72]	; (8007310 <WS2812B_setPixelColor+0x58>)
 80072c8:	6887      	ldr	r7, [r0, #8]
 80072ca:	18e6      	adds	r6, r4, r3
 80072cc:	eb01 01c1 	add.w	r1, r1, r1, lsl #3
 80072d0:	5ce3      	ldrb	r3, [r4, r3]
 80072d2:	3101      	adds	r1, #1
 80072d4:	547b      	strb	r3, [r7, r1]
 80072d6:	7873      	ldrb	r3, [r6, #1]
 80072d8:	1878      	adds	r0, r7, r1
 80072da:	7043      	strb	r3, [r0, #1]
 80072dc:	78b3      	ldrb	r3, [r6, #2]
 80072de:	eb02 0242 	add.w	r2, r2, r2, lsl #1
 80072e2:	7083      	strb	r3, [r0, #2]
 80072e4:	18a3      	adds	r3, r4, r2
 80072e6:	5ca2      	ldrb	r2, [r4, r2]
 80072e8:	f89d 5014 	ldrb.w	r5, [sp, #20]
 80072ec:	70c2      	strb	r2, [r0, #3]
 80072ee:	785a      	ldrb	r2, [r3, #1]
 80072f0:	eb05 0545 	add.w	r5, r5, r5, lsl #1
 80072f4:	7102      	strb	r2, [r0, #4]
 80072f6:	789b      	ldrb	r3, [r3, #2]
 80072f8:	7143      	strb	r3, [r0, #5]
 80072fa:	5d62      	ldrb	r2, [r4, r5]
 80072fc:	1963      	adds	r3, r4, r5
 80072fe:	7182      	strb	r2, [r0, #6]
 8007300:	785a      	ldrb	r2, [r3, #1]
 8007302:	71c2      	strb	r2, [r0, #7]
 8007304:	789b      	ldrb	r3, [r3, #2]
 8007306:	7203      	strb	r3, [r0, #8]
 8007308:	bdf0      	pop	{r4, r5, r6, r7, pc}
 800730a:	bf00      	nop
 800730c:	20000854 	.word	0x20000854
 8007310:	0800b0a2 	.word	0x0800b0a2

08007314 <WS2812B_setPixelColorDirect>:
 8007314:	b507      	push	{r0, r1, r2, lr}
 8007316:	b2d3      	uxtb	r3, r2
 8007318:	9300      	str	r3, [sp, #0]
 800731a:	f3c2 2307 	ubfx	r3, r2, #8, #8
 800731e:	f3c2 4207 	ubfx	r2, r2, #16, #8
 8007322:	f7ff ffc9 	bl	80072b8 <WS2812B_setPixelColor>
 8007326:	b003      	add	sp, #12
 8007328:	f85d fb04 	ldr.w	pc, [sp], #4

0800732c <WS2812B_numPixels>:
 800732c:	2318      	movs	r3, #24
 800732e:	4a02      	ldr	r2, [pc, #8]	; (8007338 <WS2812B_numPixels+0xc>)
 8007330:	fb03 2000 	mla	r0, r3, r0, r2
 8007334:	8880      	ldrh	r0, [r0, #4]
 8007336:	4770      	bx	lr
 8007338:	20000854 	.word	0x20000854

0800733c <WS2812B_clear>:
 800733c:	2318      	movs	r3, #24
 800733e:	b570      	push	{r4, r5, r6, lr}
 8007340:	2100      	movs	r1, #0
 8007342:	2492      	movs	r4, #146	; 0x92
 8007344:	2549      	movs	r5, #73	; 0x49
 8007346:	2624      	movs	r6, #36	; 0x24
 8007348:	4a09      	ldr	r2, [pc, #36]	; (8007370 <WS2812B_clear+0x34>)
 800734a:	fb03 2000 	mla	r0, r3, r0, r2
 800734e:	6883      	ldr	r3, [r0, #8]
 8007350:	3301      	adds	r3, #1
 8007352:	8882      	ldrh	r2, [r0, #4]
 8007354:	3303      	adds	r3, #3
 8007356:	eb02 0242 	add.w	r2, r2, r2, lsl #1
 800735a:	428a      	cmp	r2, r1
 800735c:	dc00      	bgt.n	8007360 <WS2812B_clear+0x24>
 800735e:	bd70      	pop	{r4, r5, r6, pc}
 8007360:	f803 4c03 	strb.w	r4, [r3, #-3]
 8007364:	f803 5c02 	strb.w	r5, [r3, #-2]
 8007368:	f803 6c01 	strb.w	r6, [r3, #-1]
 800736c:	3101      	adds	r1, #1
 800736e:	e7f0      	b.n	8007352 <WS2812B_clear+0x16>
 8007370:	20000854 	.word	0x20000854

08007374 <WS2812B_init>:
 8007374:	e92d 43f7 	stmdb	sp!, {r0, r1, r2, r4, r5, r6, r7, r8, r9, lr}
 8007378:	2218      	movs	r2, #24
 800737a:	4688      	mov	r8, r1
 800737c:	2100      	movs	r1, #0
 800737e:	4342      	muls	r2, r0
 8007380:	4d2c      	ldr	r5, [pc, #176]	; (8007434 <WS2812B_init+0xc0>)
 8007382:	4604      	mov	r4, r0
 8007384:	18ab      	adds	r3, r5, r2
 8007386:	e9c3 1102 	strd	r1, r1, [r3, #8]
 800738a:	50a9      	str	r1, [r5, r2]
 800738c:	bb20      	cbnz	r0, 80073d8 <WS2812B_init+0x64>
 800738e:	4b2a      	ldr	r3, [pc, #168]	; (8007438 <WS2812B_init+0xc4>)
 8007390:	612b      	str	r3, [r5, #16]
 8007392:	4b2a      	ldr	r3, [pc, #168]	; (800743c <WS2812B_init+0xc8>)
 8007394:	616b      	str	r3, [r5, #20]
 8007396:	2618      	movs	r6, #24
 8007398:	f04f 0900 	mov.w	r9, #0
 800739c:	fb06 5604 	mla	r6, r6, r4, r5
 80073a0:	f108 0002 	add.w	r0, r8, #2
 80073a4:	eb00 00c8 	add.w	r0, r0, r8, lsl #3
 80073a8:	b287      	uxth	r7, r0
 80073aa:	80f7      	strh	r7, [r6, #6]
 80073ac:	0078      	lsls	r0, r7, #1
 80073ae:	f8ad 9004 	strh.w	r9, [sp, #4]
 80073b2:	f000 f909 	bl	80075c8 <malloc>
 80073b6:	60f0      	str	r0, [r6, #12]
 80073b8:	b198      	cbz	r0, 80073e2 <WS2812B_init+0x6e>
 80073ba:	60b0      	str	r0, [r6, #8]
 80073bc:	f880 9000 	strb.w	r9, [r0]
 80073c0:	4438      	add	r0, r7
 80073c2:	f800 9c01 	strb.w	r9, [r0, #-1]
 80073c6:	f8a6 8004 	strh.w	r8, [r6, #4]
 80073ca:	4620      	mov	r0, r4
 80073cc:	f7ff ffb6 	bl	800733c <WS2812B_clear>
 80073d0:	b15c      	cbz	r4, 80073ea <WS2812B_init+0x76>
 80073d2:	6973      	ldr	r3, [r6, #20]
 80073d4:	4a1a      	ldr	r2, [pc, #104]	; (8007440 <WS2812B_init+0xcc>)
 80073d6:	e00a      	b.n	80073ee <WS2812B_init+0x7a>
 80073d8:	4a1a      	ldr	r2, [pc, #104]	; (8007444 <WS2812B_init+0xd0>)
 80073da:	611a      	str	r2, [r3, #16]
 80073dc:	4a1a      	ldr	r2, [pc, #104]	; (8007448 <WS2812B_init+0xd4>)
 80073de:	615a      	str	r2, [r3, #20]
 80073e0:	e7d9      	b.n	8007396 <WS2812B_init+0x22>
 80073e2:	6070      	str	r0, [r6, #4]
 80073e4:	b003      	add	sp, #12
 80073e6:	e8bd 83f0 	ldmia.w	sp!, {r4, r5, r6, r7, r8, r9, pc}
 80073ea:	696b      	ldr	r3, [r5, #20]
 80073ec:	4a17      	ldr	r2, [pc, #92]	; (800744c <WS2812B_init+0xd8>)
 80073ee:	601a      	str	r2, [r3, #0]
 80073f0:	2318      	movs	r3, #24
 80073f2:	fb03 5504 	mla	r5, r3, r4, r5
 80073f6:	2400      	movs	r4, #0
 80073f8:	2310      	movs	r3, #16
 80073fa:	6968      	ldr	r0, [r5, #20]
 80073fc:	e9c0 3401 	strd	r3, r4, [r0, #4]
 8007400:	2380      	movs	r3, #128	; 0x80
 8007402:	e9c0 3403 	strd	r3, r4, [r0, #12]
 8007406:	f44f 5380 	mov.w	r3, #4096	; 0x1000
 800740a:	e9c0 4405 	strd	r4, r4, [r0, #20]
 800740e:	61c3      	str	r3, [r0, #28]
 8007410:	f7fa f990 	bl	8001734 <HAL_DMA_Init>
 8007414:	b110      	cbz	r0, 800741c <WS2812B_init+0xa8>
 8007416:	606c      	str	r4, [r5, #4]
 8007418:	4620      	mov	r0, r4
 800741a:	e7e3      	b.n	80073e4 <WS2812B_init+0x70>
 800741c:	e9d5 0304 	ldrd	r0, r3, [r5, #16]
 8007420:	2201      	movs	r2, #1
 8007422:	6483      	str	r3, [r0, #72]	; 0x48
 8007424:	a901      	add	r1, sp, #4
 8007426:	6258      	str	r0, [r3, #36]	; 0x24
 8007428:	2364      	movs	r3, #100	; 0x64
 800742a:	f7fb fb6a 	bl	8002b02 <HAL_SPI_Transmit>
 800742e:	2001      	movs	r0, #1
 8007430:	e7d8      	b.n	80073e4 <WS2812B_init+0x70>
 8007432:	bf00      	nop
 8007434:	20000854 	.word	0x20000854
 8007438:	200008f4 	.word	0x200008f4
 800743c:	20000990 	.word	0x20000990
 8007440:	40020044 	.word	0x40020044
 8007444:	20000780 	.word	0x20000780
 8007448:	2000094c 	.word	0x2000094c
 800744c:	40020030 	.word	0x40020030

08007450 <WS2812B_colorWheel>:
 8007450:	2854      	cmp	r0, #84	; 0x54
 8007452:	d80a      	bhi.n	800746a <WS2812B_colorWheel+0x1a>
 8007454:	eba0 0380 	sub.w	r3, r0, r0, lsl #2
 8007458:	eb00 0040 	add.w	r0, r0, r0, lsl #1
 800745c:	3b01      	subs	r3, #1
 800745e:	b2c0      	uxtb	r0, r0
 8007460:	b2db      	uxtb	r3, r3
 8007462:	0400      	lsls	r0, r0, #16
 8007464:	ea40 2003 	orr.w	r0, r0, r3, lsl #8
 8007468:	4770      	bx	lr
 800746a:	28a9      	cmp	r0, #169	; 0xa9
 800746c:	d80b      	bhi.n	8007486 <WS2812B_colorWheel+0x36>
 800746e:	3855      	subs	r0, #85	; 0x55
 8007470:	b2c0      	uxtb	r0, r0
 8007472:	eba0 0380 	sub.w	r3, r0, r0, lsl #2
 8007476:	3b01      	subs	r3, #1
 8007478:	eb00 0040 	add.w	r0, r0, r0, lsl #1
 800747c:	b2db      	uxtb	r3, r3
 800747e:	b2c0      	uxtb	r0, r0
 8007480:	ea40 4003 	orr.w	r0, r0, r3, lsl #16
 8007484:	4770      	bx	lr
 8007486:	3056      	adds	r0, #86	; 0x56
 8007488:	b2c0      	uxtb	r0, r0
 800748a:	eb00 0340 	add.w	r3, r0, r0, lsl #1
 800748e:	eba0 0080 	sub.w	r0, r0, r0, lsl #2
 8007492:	3801      	subs	r0, #1
 8007494:	b2db      	uxtb	r3, r3
 8007496:	b2c0      	uxtb	r0, r0
 8007498:	e7e4      	b.n	8007464 <WS2812B_colorWheel+0x14>

0800749a <WS2812B_rainbow>:
 800749a:	e92d 41f0 	stmdb	sp!, {r4, r5, r6, r7, r8, lr}
 800749e:	4606      	mov	r6, r0
 80074a0:	461c      	mov	r4, r3
 80074a2:	f89d 7018 	ldrb.w	r7, [sp, #24]
 80074a6:	b28d      	uxth	r5, r1
 80074a8:	eb01 0802 	add.w	r8, r1, r2
 80074ac:	4545      	cmp	r5, r8
 80074ae:	db01      	blt.n	80074b4 <WS2812B_rainbow+0x1a>
 80074b0:	e8bd 81f0 	ldmia.w	sp!, {r4, r5, r6, r7, r8, pc}
 80074b4:	b2e0      	uxtb	r0, r4
 80074b6:	f7ff ffcb 	bl	8007450 <WS2812B_colorWheel>
 80074ba:	4629      	mov	r1, r5
 80074bc:	4602      	mov	r2, r0
 80074be:	4630      	mov	r0, r6
 80074c0:	f7ff ff28 	bl	8007314 <WS2812B_setPixelColorDirect>
 80074c4:	193b      	adds	r3, r7, r4
 80074c6:	b29b      	uxth	r3, r3
 80074c8:	2bff      	cmp	r3, #255	; 0xff
 80074ca:	bf84      	itt	hi
 80074cc:	3bff      	subhi	r3, #255	; 0xff
 80074ce:	b29b      	uxthhi	r3, r3
 80074d0:	3501      	adds	r5, #1
 80074d2:	b21c      	sxth	r4, r3
 80074d4:	b2ad      	uxth	r5, r5
 80074d6:	e7e9      	b.n	80074ac <WS2812B_rainbow+0x12>

080074d8 <WS2812B_test>:
 80074d8:	2318      	movs	r3, #24
 80074da:	b537      	push	{r0, r1, r2, r4, r5, lr}
 80074dc:	4a0a      	ldr	r2, [pc, #40]	; (8007508 <WS2812B_test+0x30>)
 80074de:	4d0b      	ldr	r5, [pc, #44]	; (800750c <WS2812B_test+0x34>)
 80074e0:	fb03 2300 	mla	r3, r3, r0, r2
 80074e4:	791a      	ldrb	r2, [r3, #4]
 80074e6:	230a      	movs	r3, #10
 80074e8:	882c      	ldrh	r4, [r5, #0]
 80074ea:	9300      	str	r3, [sp, #0]
 80074ec:	b2e3      	uxtb	r3, r4
 80074ee:	3401      	adds	r4, #1
 80074f0:	b2a4      	uxth	r4, r4
 80074f2:	2100      	movs	r1, #0
 80074f4:	f7ff ffd1 	bl	800749a <WS2812B_rainbow>
 80074f8:	2cff      	cmp	r4, #255	; 0xff
 80074fa:	bf0a      	itet	eq
 80074fc:	2300      	moveq	r3, #0
 80074fe:	802c      	strhne	r4, [r5, #0]
 8007500:	802b      	strheq	r3, [r5, #0]
 8007502:	b003      	add	sp, #12
 8007504:	bd30      	pop	{r4, r5, pc}
 8007506:	bf00      	nop
 8007508:	20000854 	.word	0x20000854
 800750c:	200005ce 	.word	0x200005ce

08007510 <Reset_Handler>:
 8007510:	2100      	movs	r1, #0
 8007512:	e003      	b.n	800751c <LoopCopyDataInit>

08007514 <CopyDataInit>:
 8007514:	4b0b      	ldr	r3, [pc, #44]	; (8007544 <LoopFillZerobss+0x14>)
 8007516:	585b      	ldr	r3, [r3, r1]
 8007518:	5043      	str	r3, [r0, r1]
 800751a:	3104      	adds	r1, #4

0800751c <LoopCopyDataInit>:
 800751c:	480a      	ldr	r0, [pc, #40]	; (8007548 <LoopFillZerobss+0x18>)
 800751e:	4b0b      	ldr	r3, [pc, #44]	; (800754c <LoopFillZerobss+0x1c>)
 8007520:	1842      	adds	r2, r0, r1
 8007522:	429a      	cmp	r2, r3
 8007524:	d3f6      	bcc.n	8007514 <CopyDataInit>
 8007526:	4a0a      	ldr	r2, [pc, #40]	; (8007550 <LoopFillZerobss+0x20>)
 8007528:	e002      	b.n	8007530 <LoopFillZerobss>

0800752a <FillZerobss>:
 800752a:	2300      	movs	r3, #0
 800752c:	f842 3b04 	str.w	r3, [r2], #4

08007530 <LoopFillZerobss>:
 8007530:	4b08      	ldr	r3, [pc, #32]	; (8007554 <LoopFillZerobss+0x24>)
 8007532:	429a      	cmp	r2, r3
 8007534:	d3f9      	bcc.n	800752a <FillZerobss>
 8007536:	f7ff f91f 	bl	8006778 <SystemInit>
 800753a:	f000 f821 	bl	8007580 <__libc_init_array>
 800753e:	f7fd fcc3 	bl	8004ec8 <main>
 8007542:	4770      	bx	lr
 8007544:	0800b708 	.word	0x0800b708
 8007548:	20000000 	.word	0x20000000
 800754c:	20000268 	.word	0x20000268
 8007550:	20000268 	.word	0x20000268
 8007554:	20000d28 	.word	0x20000d28

08007558 <CAN1_RX1_IRQHandler>:
 8007558:	e7fe      	b.n	8007558 <CAN1_RX1_IRQHandler>

0800755a <atoi>:
 800755a:	220a      	movs	r2, #10
 800755c:	2100      	movs	r1, #0
 800755e:	f000 ba21 	b.w	80079a4 <strtol>
	...

08007564 <calloc>:
 8007564:	4b02      	ldr	r3, [pc, #8]	; (8007570 <calloc+0xc>)
 8007566:	460a      	mov	r2, r1
 8007568:	4601      	mov	r1, r0
 800756a:	6818      	ldr	r0, [r3, #0]
 800756c:	f000 b84f 	b.w	800760e <_calloc_r>
 8007570:	20000094 	.word	0x20000094

08007574 <__errno>:
 8007574:	4b01      	ldr	r3, [pc, #4]	; (800757c <__errno+0x8>)
 8007576:	6818      	ldr	r0, [r3, #0]
 8007578:	4770      	bx	lr
 800757a:	bf00      	nop
 800757c:	20000094 	.word	0x20000094

08007580 <__libc_init_array>:
 8007580:	b570      	push	{r4, r5, r6, lr}
 8007582:	2500      	movs	r5, #0
 8007584:	4e0c      	ldr	r6, [pc, #48]	; (80075b8 <__libc_init_array+0x38>)
 8007586:	4c0d      	ldr	r4, [pc, #52]	; (80075bc <__libc_init_array+0x3c>)
 8007588:	1ba4      	subs	r4, r4, r6
 800758a:	10a4      	asrs	r4, r4, #2
 800758c:	42a5      	cmp	r5, r4
 800758e:	d109      	bne.n	80075a4 <__libc_init_array+0x24>
 8007590:	f002 fd8a 	bl	800a0a8 <_init>
 8007594:	2500      	movs	r5, #0
 8007596:	4e0a      	ldr	r6, [pc, #40]	; (80075c0 <__libc_init_array+0x40>)
 8007598:	4c0a      	ldr	r4, [pc, #40]	; (80075c4 <__libc_init_array+0x44>)
 800759a:	1ba4      	subs	r4, r4, r6
 800759c:	10a4      	asrs	r4, r4, #2
 800759e:	42a5      	cmp	r5, r4
 80075a0:	d105      	bne.n	80075ae <__libc_init_array+0x2e>
 80075a2:	bd70      	pop	{r4, r5, r6, pc}
 80075a4:	f856 3025 	ldr.w	r3, [r6, r5, lsl #2]
 80075a8:	4798      	blx	r3
 80075aa:	3501      	adds	r5, #1
 80075ac:	e7ee      	b.n	800758c <__libc_init_array+0xc>
 80075ae:	f856 3025 	ldr.w	r3, [r6, r5, lsl #2]
 80075b2:	4798      	blx	r3
 80075b4:	3501      	adds	r5, #1
 80075b6:	e7f2      	b.n	800759e <__libc_init_array+0x1e>
 80075b8:	0800b700 	.word	0x0800b700
 80075bc:	0800b700 	.word	0x0800b700
 80075c0:	0800b700 	.word	0x0800b700
 80075c4:	0800b704 	.word	0x0800b704

080075c8 <malloc>:
 80075c8:	4b02      	ldr	r3, [pc, #8]	; (80075d4 <malloc+0xc>)
 80075ca:	4601      	mov	r1, r0
 80075cc:	6818      	ldr	r0, [r3, #0]
 80075ce:	f000 b879 	b.w	80076c4 <_malloc_r>
 80075d2:	bf00      	nop
 80075d4:	20000094 	.word	0x20000094

080075d8 <free>:
 80075d8:	4b02      	ldr	r3, [pc, #8]	; (80075e4 <free+0xc>)
 80075da:	4601      	mov	r1, r0
 80075dc:	6818      	ldr	r0, [r3, #0]
 80075de:	f000 b825 	b.w	800762c <_free_r>
 80075e2:	bf00      	nop
 80075e4:	20000094 	.word	0x20000094

080075e8 <memcpy>:
 80075e8:	b510      	push	{r4, lr}
 80075ea:	1e43      	subs	r3, r0, #1
 80075ec:	440a      	add	r2, r1
 80075ee:	4291      	cmp	r1, r2
 80075f0:	d100      	bne.n	80075f4 <memcpy+0xc>
 80075f2:	bd10      	pop	{r4, pc}
 80075f4:	f811 4b01 	ldrb.w	r4, [r1], #1
 80075f8:	f803 4f01 	strb.w	r4, [r3, #1]!
 80075fc:	e7f7      	b.n	80075ee <memcpy+0x6>

080075fe <memset>:
 80075fe:	4603      	mov	r3, r0
 8007600:	4402      	add	r2, r0
 8007602:	4293      	cmp	r3, r2
 8007604:	d100      	bne.n	8007608 <memset+0xa>
 8007606:	4770      	bx	lr
 8007608:	f803 1b01 	strb.w	r1, [r3], #1
 800760c:	e7f9      	b.n	8007602 <memset+0x4>

0800760e <_calloc_r>:
 800760e:	b538      	push	{r3, r4, r5, lr}
 8007610:	fb02 f401 	mul.w	r4, r2, r1
 8007614:	4621      	mov	r1, r4
 8007616:	f000 f855 	bl	80076c4 <_malloc_r>
 800761a:	4605      	mov	r5, r0
 800761c:	b118      	cbz	r0, 8007626 <_calloc_r+0x18>
 800761e:	4622      	mov	r2, r4
 8007620:	2100      	movs	r1, #0
 8007622:	f7ff ffec 	bl	80075fe <memset>
 8007626:	4628      	mov	r0, r5
 8007628:	bd38      	pop	{r3, r4, r5, pc}
	...

0800762c <_free_r>:
 800762c:	b538      	push	{r3, r4, r5, lr}
 800762e:	4605      	mov	r5, r0
 8007630:	2900      	cmp	r1, #0
 8007632:	d043      	beq.n	80076bc <_free_r+0x90>
 8007634:	f851 3c04 	ldr.w	r3, [r1, #-4]
 8007638:	1f0c      	subs	r4, r1, #4
 800763a:	2b00      	cmp	r3, #0
 800763c:	bfb8      	it	lt
 800763e:	18e4      	addlt	r4, r4, r3
 8007640:	f000 fa15 	bl	8007a6e <__malloc_lock>
 8007644:	4a1e      	ldr	r2, [pc, #120]	; (80076c0 <_free_r+0x94>)
 8007646:	6813      	ldr	r3, [r2, #0]
 8007648:	4610      	mov	r0, r2
 800764a:	b933      	cbnz	r3, 800765a <_free_r+0x2e>
 800764c:	6063      	str	r3, [r4, #4]
 800764e:	6014      	str	r4, [r2, #0]
 8007650:	4628      	mov	r0, r5
 8007652:	e8bd 4038 	ldmia.w	sp!, {r3, r4, r5, lr}
 8007656:	f000 ba0b 	b.w	8007a70 <__malloc_unlock>
 800765a:	42a3      	cmp	r3, r4
 800765c:	d90b      	bls.n	8007676 <_free_r+0x4a>
 800765e:	6821      	ldr	r1, [r4, #0]
 8007660:	1862      	adds	r2, r4, r1
 8007662:	4293      	cmp	r3, r2
 8007664:	bf01      	itttt	eq
 8007666:	681a      	ldreq	r2, [r3, #0]
 8007668:	685b      	ldreq	r3, [r3, #4]
 800766a:	1852      	addeq	r2, r2, r1
 800766c:	6022      	streq	r2, [r4, #0]
 800766e:	6063      	str	r3, [r4, #4]
 8007670:	6004      	str	r4, [r0, #0]
 8007672:	e7ed      	b.n	8007650 <_free_r+0x24>
 8007674:	4613      	mov	r3, r2
 8007676:	685a      	ldr	r2, [r3, #4]
 8007678:	b10a      	cbz	r2, 800767e <_free_r+0x52>
 800767a:	42a2      	cmp	r2, r4
 800767c:	d9fa      	bls.n	8007674 <_free_r+0x48>
 800767e:	6819      	ldr	r1, [r3, #0]
 8007680:	1858      	adds	r0, r3, r1
 8007682:	42a0      	cmp	r0, r4
 8007684:	d10b      	bne.n	800769e <_free_r+0x72>
 8007686:	6820      	ldr	r0, [r4, #0]
 8007688:	4401      	add	r1, r0
 800768a:	1858      	adds	r0, r3, r1
 800768c:	4282      	cmp	r2, r0
 800768e:	6019      	str	r1, [r3, #0]
 8007690:	d1de      	bne.n	8007650 <_free_r+0x24>
 8007692:	6810      	ldr	r0, [r2, #0]
 8007694:	6852      	ldr	r2, [r2, #4]
 8007696:	4401      	add	r1, r0
 8007698:	6019      	str	r1, [r3, #0]
 800769a:	605a      	str	r2, [r3, #4]
 800769c:	e7d8      	b.n	8007650 <_free_r+0x24>
 800769e:	d902      	bls.n	80076a6 <_free_r+0x7a>
 80076a0:	230c      	movs	r3, #12
 80076a2:	602b      	str	r3, [r5, #0]
 80076a4:	e7d4      	b.n	8007650 <_free_r+0x24>
 80076a6:	6820      	ldr	r0, [r4, #0]
 80076a8:	1821      	adds	r1, r4, r0
 80076aa:	428a      	cmp	r2, r1
 80076ac:	bf01      	itttt	eq
 80076ae:	6811      	ldreq	r1, [r2, #0]
 80076b0:	6852      	ldreq	r2, [r2, #4]
 80076b2:	1809      	addeq	r1, r1, r0
 80076b4:	6021      	streq	r1, [r4, #0]
 80076b6:	6062      	str	r2, [r4, #4]
 80076b8:	605c      	str	r4, [r3, #4]
 80076ba:	e7c9      	b.n	8007650 <_free_r+0x24>
 80076bc:	bd38      	pop	{r3, r4, r5, pc}
 80076be:	bf00      	nop
 80076c0:	200005d0 	.word	0x200005d0

080076c4 <_malloc_r>:
 80076c4:	b570      	push	{r4, r5, r6, lr}
 80076c6:	1ccd      	adds	r5, r1, #3
 80076c8:	f025 0503 	bic.w	r5, r5, #3
 80076cc:	3508      	adds	r5, #8
 80076ce:	2d0c      	cmp	r5, #12
 80076d0:	bf38      	it	cc
 80076d2:	250c      	movcc	r5, #12
 80076d4:	2d00      	cmp	r5, #0
 80076d6:	4606      	mov	r6, r0
 80076d8:	db01      	blt.n	80076de <_malloc_r+0x1a>
 80076da:	42a9      	cmp	r1, r5
 80076dc:	d903      	bls.n	80076e6 <_malloc_r+0x22>
 80076de:	230c      	movs	r3, #12
 80076e0:	6033      	str	r3, [r6, #0]
 80076e2:	2000      	movs	r0, #0
 80076e4:	bd70      	pop	{r4, r5, r6, pc}
 80076e6:	f000 f9c2 	bl	8007a6e <__malloc_lock>
 80076ea:	4a21      	ldr	r2, [pc, #132]	; (8007770 <_malloc_r+0xac>)
 80076ec:	6814      	ldr	r4, [r2, #0]
 80076ee:	4621      	mov	r1, r4
 80076f0:	b991      	cbnz	r1, 8007718 <_malloc_r+0x54>
 80076f2:	4c20      	ldr	r4, [pc, #128]	; (8007774 <_malloc_r+0xb0>)
 80076f4:	6823      	ldr	r3, [r4, #0]
 80076f6:	b91b      	cbnz	r3, 8007700 <_malloc_r+0x3c>
 80076f8:	4630      	mov	r0, r6
 80076fa:	f000 f83d 	bl	8007778 <_sbrk_r>
 80076fe:	6020      	str	r0, [r4, #0]
 8007700:	4629      	mov	r1, r5
 8007702:	4630      	mov	r0, r6
 8007704:	f000 f838 	bl	8007778 <_sbrk_r>
 8007708:	1c43      	adds	r3, r0, #1
 800770a:	d124      	bne.n	8007756 <_malloc_r+0x92>
 800770c:	230c      	movs	r3, #12
 800770e:	4630      	mov	r0, r6
 8007710:	6033      	str	r3, [r6, #0]
 8007712:	f000 f9ad 	bl	8007a70 <__malloc_unlock>
 8007716:	e7e4      	b.n	80076e2 <_malloc_r+0x1e>
 8007718:	680b      	ldr	r3, [r1, #0]
 800771a:	1b5b      	subs	r3, r3, r5
 800771c:	d418      	bmi.n	8007750 <_malloc_r+0x8c>
 800771e:	2b0b      	cmp	r3, #11
 8007720:	d90f      	bls.n	8007742 <_malloc_r+0x7e>
 8007722:	600b      	str	r3, [r1, #0]
 8007724:	18cc      	adds	r4, r1, r3
 8007726:	50cd      	str	r5, [r1, r3]
 8007728:	4630      	mov	r0, r6
 800772a:	f000 f9a1 	bl	8007a70 <__malloc_unlock>
 800772e:	f104 000b 	add.w	r0, r4, #11
 8007732:	1d23      	adds	r3, r4, #4
 8007734:	f020 0007 	bic.w	r0, r0, #7
 8007738:	1ac3      	subs	r3, r0, r3
 800773a:	d0d3      	beq.n	80076e4 <_malloc_r+0x20>
 800773c:	425a      	negs	r2, r3
 800773e:	50e2      	str	r2, [r4, r3]
 8007740:	e7d0      	b.n	80076e4 <_malloc_r+0x20>
 8007742:	684b      	ldr	r3, [r1, #4]
 8007744:	428c      	cmp	r4, r1
 8007746:	bf16      	itet	ne
 8007748:	6063      	strne	r3, [r4, #4]
 800774a:	6013      	streq	r3, [r2, #0]
 800774c:	460c      	movne	r4, r1
 800774e:	e7eb      	b.n	8007728 <_malloc_r+0x64>
 8007750:	460c      	mov	r4, r1
 8007752:	6849      	ldr	r1, [r1, #4]
 8007754:	e7cc      	b.n	80076f0 <_malloc_r+0x2c>
 8007756:	1cc4      	adds	r4, r0, #3
 8007758:	f024 0403 	bic.w	r4, r4, #3
 800775c:	42a0      	cmp	r0, r4
 800775e:	d005      	beq.n	800776c <_malloc_r+0xa8>
 8007760:	1a21      	subs	r1, r4, r0
 8007762:	4630      	mov	r0, r6
 8007764:	f000 f808 	bl	8007778 <_sbrk_r>
 8007768:	3001      	adds	r0, #1
 800776a:	d0cf      	beq.n	800770c <_malloc_r+0x48>
 800776c:	6025      	str	r5, [r4, #0]
 800776e:	e7db      	b.n	8007728 <_malloc_r+0x64>
 8007770:	200005d0 	.word	0x200005d0
 8007774:	200005d4 	.word	0x200005d4

08007778 <_sbrk_r>:
 8007778:	b538      	push	{r3, r4, r5, lr}
 800777a:	2300      	movs	r3, #0
 800777c:	4c05      	ldr	r4, [pc, #20]	; (8007794 <_sbrk_r+0x1c>)
 800777e:	4605      	mov	r5, r0
 8007780:	4608      	mov	r0, r1
 8007782:	6023      	str	r3, [r4, #0]
 8007784:	f7fe ffde 	bl	8006744 <_sbrk>
 8007788:	1c43      	adds	r3, r0, #1
 800778a:	d102      	bne.n	8007792 <_sbrk_r+0x1a>
 800778c:	6823      	ldr	r3, [r4, #0]
 800778e:	b103      	cbz	r3, 8007792 <_sbrk_r+0x1a>
 8007790:	602b      	str	r3, [r5, #0]
 8007792:	bd38      	pop	{r3, r4, r5, pc}
 8007794:	20000d24 	.word	0x20000d24

08007798 <strcat>:
 8007798:	4603      	mov	r3, r0
 800779a:	b510      	push	{r4, lr}
 800779c:	781a      	ldrb	r2, [r3, #0]
 800779e:	1c5c      	adds	r4, r3, #1
 80077a0:	b93a      	cbnz	r2, 80077b2 <strcat+0x1a>
 80077a2:	3b01      	subs	r3, #1
 80077a4:	f811 2b01 	ldrb.w	r2, [r1], #1
 80077a8:	f803 2f01 	strb.w	r2, [r3, #1]!
 80077ac:	2a00      	cmp	r2, #0
 80077ae:	d1f9      	bne.n	80077a4 <strcat+0xc>
 80077b0:	bd10      	pop	{r4, pc}
 80077b2:	4623      	mov	r3, r4
 80077b4:	e7f2      	b.n	800779c <strcat+0x4>

080077b6 <strncmp>:
 80077b6:	b510      	push	{r4, lr}
 80077b8:	b16a      	cbz	r2, 80077d6 <strncmp+0x20>
 80077ba:	3901      	subs	r1, #1
 80077bc:	1884      	adds	r4, r0, r2
 80077be:	f810 3b01 	ldrb.w	r3, [r0], #1
 80077c2:	f811 2f01 	ldrb.w	r2, [r1, #1]!
 80077c6:	4293      	cmp	r3, r2
 80077c8:	d103      	bne.n	80077d2 <strncmp+0x1c>
 80077ca:	42a0      	cmp	r0, r4
 80077cc:	d001      	beq.n	80077d2 <strncmp+0x1c>
 80077ce:	2b00      	cmp	r3, #0
 80077d0:	d1f5      	bne.n	80077be <strncmp+0x8>
 80077d2:	1a98      	subs	r0, r3, r2
 80077d4:	bd10      	pop	{r4, pc}
 80077d6:	4610      	mov	r0, r2
 80077d8:	e7fc      	b.n	80077d4 <strncmp+0x1e>

080077da <strncpy>:
 80077da:	b570      	push	{r4, r5, r6, lr}
 80077dc:	4604      	mov	r4, r0
 80077de:	3901      	subs	r1, #1
 80077e0:	b902      	cbnz	r2, 80077e4 <strncpy+0xa>
 80077e2:	bd70      	pop	{r4, r5, r6, pc}
 80077e4:	4623      	mov	r3, r4
 80077e6:	f811 5f01 	ldrb.w	r5, [r1, #1]!
 80077ea:	1e56      	subs	r6, r2, #1
 80077ec:	f803 5b01 	strb.w	r5, [r3], #1
 80077f0:	b92d      	cbnz	r5, 80077fe <strncpy+0x24>
 80077f2:	4414      	add	r4, r2
 80077f4:	42a3      	cmp	r3, r4
 80077f6:	d0f4      	beq.n	80077e2 <strncpy+0x8>
 80077f8:	f803 5b01 	strb.w	r5, [r3], #1
 80077fc:	e7fa      	b.n	80077f4 <strncpy+0x1a>
 80077fe:	461c      	mov	r4, r3
 8007800:	4632      	mov	r2, r6
 8007802:	e7ed      	b.n	80077e0 <strncpy+0x6>

08007804 <strtok>:
 8007804:	4b13      	ldr	r3, [pc, #76]	; (8007854 <strtok+0x50>)
 8007806:	e92d 41f0 	stmdb	sp!, {r4, r5, r6, r7, r8, lr}
 800780a:	681d      	ldr	r5, [r3, #0]
 800780c:	4606      	mov	r6, r0
 800780e:	6dac      	ldr	r4, [r5, #88]	; 0x58
 8007810:	460f      	mov	r7, r1
 8007812:	b9b4      	cbnz	r4, 8007842 <strtok+0x3e>
 8007814:	2050      	movs	r0, #80	; 0x50
 8007816:	f7ff fed7 	bl	80075c8 <malloc>
 800781a:	65a8      	str	r0, [r5, #88]	; 0x58
 800781c:	e9c0 4400 	strd	r4, r4, [r0]
 8007820:	e9c0 4402 	strd	r4, r4, [r0, #8]
 8007824:	e9c0 4404 	strd	r4, r4, [r0, #16]
 8007828:	e9c0 440a 	strd	r4, r4, [r0, #40]	; 0x28
 800782c:	e9c0 440c 	strd	r4, r4, [r0, #48]	; 0x30
 8007830:	e9c0 440e 	strd	r4, r4, [r0, #56]	; 0x38
 8007834:	e9c0 4410 	strd	r4, r4, [r0, #64]	; 0x40
 8007838:	e9c0 4412 	strd	r4, r4, [r0, #72]	; 0x48
 800783c:	6184      	str	r4, [r0, #24]
 800783e:	7704      	strb	r4, [r0, #28]
 8007840:	6244      	str	r4, [r0, #36]	; 0x24
 8007842:	6daa      	ldr	r2, [r5, #88]	; 0x58
 8007844:	4639      	mov	r1, r7
 8007846:	4630      	mov	r0, r6
 8007848:	e8bd 41f0 	ldmia.w	sp!, {r4, r5, r6, r7, r8, lr}
 800784c:	2301      	movs	r3, #1
 800784e:	f000 b803 	b.w	8007858 <__strtok_r>
 8007852:	bf00      	nop
 8007854:	20000094 	.word	0x20000094

08007858 <__strtok_r>:
 8007858:	b5f0      	push	{r4, r5, r6, r7, lr}
 800785a:	b918      	cbnz	r0, 8007864 <__strtok_r+0xc>
 800785c:	6810      	ldr	r0, [r2, #0]
 800785e:	b908      	cbnz	r0, 8007864 <__strtok_r+0xc>
 8007860:	bdf0      	pop	{r4, r5, r6, r7, pc}
 8007862:	4620      	mov	r0, r4
 8007864:	4604      	mov	r4, r0
 8007866:	460f      	mov	r7, r1
 8007868:	f814 5b01 	ldrb.w	r5, [r4], #1
 800786c:	f817 6b01 	ldrb.w	r6, [r7], #1
 8007870:	b91e      	cbnz	r6, 800787a <__strtok_r+0x22>
 8007872:	b96d      	cbnz	r5, 8007890 <__strtok_r+0x38>
 8007874:	6015      	str	r5, [r2, #0]
 8007876:	4628      	mov	r0, r5
 8007878:	e7f2      	b.n	8007860 <__strtok_r+0x8>
 800787a:	42b5      	cmp	r5, r6
 800787c:	d1f6      	bne.n	800786c <__strtok_r+0x14>
 800787e:	2b00      	cmp	r3, #0
 8007880:	d1ef      	bne.n	8007862 <__strtok_r+0xa>
 8007882:	6014      	str	r4, [r2, #0]
 8007884:	7003      	strb	r3, [r0, #0]
 8007886:	e7eb      	b.n	8007860 <__strtok_r+0x8>
 8007888:	462b      	mov	r3, r5
 800788a:	e00d      	b.n	80078a8 <__strtok_r+0x50>
 800788c:	b926      	cbnz	r6, 8007898 <__strtok_r+0x40>
 800788e:	461c      	mov	r4, r3
 8007890:	4623      	mov	r3, r4
 8007892:	460f      	mov	r7, r1
 8007894:	f813 5b01 	ldrb.w	r5, [r3], #1
 8007898:	f817 6b01 	ldrb.w	r6, [r7], #1
 800789c:	42b5      	cmp	r5, r6
 800789e:	d1f5      	bne.n	800788c <__strtok_r+0x34>
 80078a0:	2d00      	cmp	r5, #0
 80078a2:	d0f1      	beq.n	8007888 <__strtok_r+0x30>
 80078a4:	2100      	movs	r1, #0
 80078a6:	7021      	strb	r1, [r4, #0]
 80078a8:	6013      	str	r3, [r2, #0]
 80078aa:	e7d9      	b.n	8007860 <__strtok_r+0x8>

080078ac <_strtol_l.isra.0>:
 80078ac:	e92d 47f0 	stmdb	sp!, {r4, r5, r6, r7, r8, r9, sl, lr}
 80078b0:	4680      	mov	r8, r0
 80078b2:	4689      	mov	r9, r1
 80078b4:	4692      	mov	sl, r2
 80078b6:	461e      	mov	r6, r3
 80078b8:	460f      	mov	r7, r1
 80078ba:	463d      	mov	r5, r7
 80078bc:	9808      	ldr	r0, [sp, #32]
 80078be:	f815 4b01 	ldrb.w	r4, [r5], #1
 80078c2:	f000 f8bf 	bl	8007a44 <__locale_ctype_ptr_l>
 80078c6:	4420      	add	r0, r4
 80078c8:	7843      	ldrb	r3, [r0, #1]
 80078ca:	f013 0308 	ands.w	r3, r3, #8
 80078ce:	d132      	bne.n	8007936 <_strtol_l.isra.0+0x8a>
 80078d0:	2c2d      	cmp	r4, #45	; 0x2d
 80078d2:	d132      	bne.n	800793a <_strtol_l.isra.0+0x8e>
 80078d4:	2201      	movs	r2, #1
 80078d6:	787c      	ldrb	r4, [r7, #1]
 80078d8:	1cbd      	adds	r5, r7, #2
 80078da:	2e00      	cmp	r6, #0
 80078dc:	d05d      	beq.n	800799a <_strtol_l.isra.0+0xee>
 80078de:	2e10      	cmp	r6, #16
 80078e0:	d109      	bne.n	80078f6 <_strtol_l.isra.0+0x4a>
 80078e2:	2c30      	cmp	r4, #48	; 0x30
 80078e4:	d107      	bne.n	80078f6 <_strtol_l.isra.0+0x4a>
 80078e6:	782b      	ldrb	r3, [r5, #0]
 80078e8:	f003 03df 	and.w	r3, r3, #223	; 0xdf
 80078ec:	2b58      	cmp	r3, #88	; 0x58
 80078ee:	d14f      	bne.n	8007990 <_strtol_l.isra.0+0xe4>
 80078f0:	2610      	movs	r6, #16
 80078f2:	786c      	ldrb	r4, [r5, #1]
 80078f4:	3502      	adds	r5, #2
 80078f6:	2a00      	cmp	r2, #0
 80078f8:	bf14      	ite	ne
 80078fa:	f04f 4100 	movne.w	r1, #2147483648	; 0x80000000
 80078fe:	f06f 4100 	mvneq.w	r1, #2147483648	; 0x80000000
 8007902:	2700      	movs	r7, #0
 8007904:	fbb1 fcf6 	udiv	ip, r1, r6
 8007908:	4638      	mov	r0, r7
 800790a:	fb06 1e1c 	mls	lr, r6, ip, r1
 800790e:	f1a4 0330 	sub.w	r3, r4, #48	; 0x30
 8007912:	2b09      	cmp	r3, #9
 8007914:	d817      	bhi.n	8007946 <_strtol_l.isra.0+0x9a>
 8007916:	461c      	mov	r4, r3
 8007918:	42a6      	cmp	r6, r4
 800791a:	dd23      	ble.n	8007964 <_strtol_l.isra.0+0xb8>
 800791c:	1c7b      	adds	r3, r7, #1
 800791e:	d007      	beq.n	8007930 <_strtol_l.isra.0+0x84>
 8007920:	4584      	cmp	ip, r0
 8007922:	d31c      	bcc.n	800795e <_strtol_l.isra.0+0xb2>
 8007924:	d101      	bne.n	800792a <_strtol_l.isra.0+0x7e>
 8007926:	45a6      	cmp	lr, r4
 8007928:	db19      	blt.n	800795e <_strtol_l.isra.0+0xb2>
 800792a:	2701      	movs	r7, #1
 800792c:	fb00 4006 	mla	r0, r0, r6, r4
 8007930:	f815 4b01 	ldrb.w	r4, [r5], #1
 8007934:	e7eb      	b.n	800790e <_strtol_l.isra.0+0x62>
 8007936:	462f      	mov	r7, r5
 8007938:	e7bf      	b.n	80078ba <_strtol_l.isra.0+0xe>
 800793a:	2c2b      	cmp	r4, #43	; 0x2b
 800793c:	bf04      	itt	eq
 800793e:	1cbd      	addeq	r5, r7, #2
 8007940:	787c      	ldrbeq	r4, [r7, #1]
 8007942:	461a      	mov	r2, r3
 8007944:	e7c9      	b.n	80078da <_strtol_l.isra.0+0x2e>
 8007946:	f1a4 0341 	sub.w	r3, r4, #65	; 0x41
 800794a:	2b19      	cmp	r3, #25
 800794c:	d801      	bhi.n	8007952 <_strtol_l.isra.0+0xa6>
 800794e:	3c37      	subs	r4, #55	; 0x37
 8007950:	e7e2      	b.n	8007918 <_strtol_l.isra.0+0x6c>
 8007952:	f1a4 0361 	sub.w	r3, r4, #97	; 0x61
 8007956:	2b19      	cmp	r3, #25
 8007958:	d804      	bhi.n	8007964 <_strtol_l.isra.0+0xb8>
 800795a:	3c57      	subs	r4, #87	; 0x57
 800795c:	e7dc      	b.n	8007918 <_strtol_l.isra.0+0x6c>
 800795e:	f04f 37ff 	mov.w	r7, #4294967295
 8007962:	e7e5      	b.n	8007930 <_strtol_l.isra.0+0x84>
 8007964:	1c7b      	adds	r3, r7, #1
 8007966:	d108      	bne.n	800797a <_strtol_l.isra.0+0xce>
 8007968:	2322      	movs	r3, #34	; 0x22
 800796a:	4608      	mov	r0, r1
 800796c:	f8c8 3000 	str.w	r3, [r8]
 8007970:	f1ba 0f00 	cmp.w	sl, #0
 8007974:	d107      	bne.n	8007986 <_strtol_l.isra.0+0xda>
 8007976:	e8bd 87f0 	ldmia.w	sp!, {r4, r5, r6, r7, r8, r9, sl, pc}
 800797a:	b102      	cbz	r2, 800797e <_strtol_l.isra.0+0xd2>
 800797c:	4240      	negs	r0, r0
 800797e:	f1ba 0f00 	cmp.w	sl, #0
 8007982:	d0f8      	beq.n	8007976 <_strtol_l.isra.0+0xca>
 8007984:	b10f      	cbz	r7, 800798a <_strtol_l.isra.0+0xde>
 8007986:	f105 39ff 	add.w	r9, r5, #4294967295
 800798a:	f8ca 9000 	str.w	r9, [sl]
 800798e:	e7f2      	b.n	8007976 <_strtol_l.isra.0+0xca>
 8007990:	2430      	movs	r4, #48	; 0x30
 8007992:	2e00      	cmp	r6, #0
 8007994:	d1af      	bne.n	80078f6 <_strtol_l.isra.0+0x4a>
 8007996:	2608      	movs	r6, #8
 8007998:	e7ad      	b.n	80078f6 <_strtol_l.isra.0+0x4a>
 800799a:	2c30      	cmp	r4, #48	; 0x30
 800799c:	d0a3      	beq.n	80078e6 <_strtol_l.isra.0+0x3a>
 800799e:	260a      	movs	r6, #10
 80079a0:	e7a9      	b.n	80078f6 <_strtol_l.isra.0+0x4a>
	...

080079a4 <strtol>:
 80079a4:	4b08      	ldr	r3, [pc, #32]	; (80079c8 <strtol+0x24>)
 80079a6:	b537      	push	{r0, r1, r2, r4, r5, lr}
 80079a8:	681c      	ldr	r4, [r3, #0]
 80079aa:	4d08      	ldr	r5, [pc, #32]	; (80079cc <strtol+0x28>)
 80079ac:	6a23      	ldr	r3, [r4, #32]
 80079ae:	2b00      	cmp	r3, #0
 80079b0:	bf08      	it	eq
 80079b2:	462b      	moveq	r3, r5
 80079b4:	9300      	str	r3, [sp, #0]
 80079b6:	4613      	mov	r3, r2
 80079b8:	460a      	mov	r2, r1
 80079ba:	4601      	mov	r1, r0
 80079bc:	4620      	mov	r0, r4
 80079be:	f7ff ff75 	bl	80078ac <_strtol_l.isra.0>
 80079c2:	b003      	add	sp, #12
 80079c4:	bd30      	pop	{r4, r5, pc}
 80079c6:	bf00      	nop
 80079c8:	20000094 	.word	0x20000094
 80079cc:	200000f8 	.word	0x200000f8

080079d0 <_vsniprintf_r>:
 80079d0:	b530      	push	{r4, r5, lr}
 80079d2:	1e14      	subs	r4, r2, #0
 80079d4:	4605      	mov	r5, r0
 80079d6:	b09b      	sub	sp, #108	; 0x6c
 80079d8:	4618      	mov	r0, r3
 80079da:	da05      	bge.n	80079e8 <_vsniprintf_r+0x18>
 80079dc:	238b      	movs	r3, #139	; 0x8b
 80079de:	f04f 30ff 	mov.w	r0, #4294967295
 80079e2:	602b      	str	r3, [r5, #0]
 80079e4:	b01b      	add	sp, #108	; 0x6c
 80079e6:	bd30      	pop	{r4, r5, pc}
 80079e8:	f44f 7302 	mov.w	r3, #520	; 0x208
 80079ec:	f8ad 300c 	strh.w	r3, [sp, #12]
 80079f0:	bf0c      	ite	eq
 80079f2:	4623      	moveq	r3, r4
 80079f4:	f104 33ff 	addne.w	r3, r4, #4294967295
 80079f8:	9302      	str	r3, [sp, #8]
 80079fa:	9305      	str	r3, [sp, #20]
 80079fc:	f64f 73ff 	movw	r3, #65535	; 0xffff
 8007a00:	9100      	str	r1, [sp, #0]
 8007a02:	9104      	str	r1, [sp, #16]
 8007a04:	f8ad 300e 	strh.w	r3, [sp, #14]
 8007a08:	4602      	mov	r2, r0
 8007a0a:	9b1e      	ldr	r3, [sp, #120]	; 0x78
 8007a0c:	4669      	mov	r1, sp
 8007a0e:	4628      	mov	r0, r5
 8007a10:	f000 f88a 	bl	8007b28 <_svfiprintf_r>
 8007a14:	1c43      	adds	r3, r0, #1
 8007a16:	bfbc      	itt	lt
 8007a18:	238b      	movlt	r3, #139	; 0x8b
 8007a1a:	602b      	strlt	r3, [r5, #0]
 8007a1c:	2c00      	cmp	r4, #0
 8007a1e:	d0e1      	beq.n	80079e4 <_vsniprintf_r+0x14>
 8007a20:	2200      	movs	r2, #0
 8007a22:	9b00      	ldr	r3, [sp, #0]
 8007a24:	701a      	strb	r2, [r3, #0]
 8007a26:	e7dd      	b.n	80079e4 <_vsniprintf_r+0x14>

08007a28 <vsniprintf>:
 8007a28:	b507      	push	{r0, r1, r2, lr}
 8007a2a:	9300      	str	r3, [sp, #0]
 8007a2c:	4613      	mov	r3, r2
 8007a2e:	460a      	mov	r2, r1
 8007a30:	4601      	mov	r1, r0
 8007a32:	4803      	ldr	r0, [pc, #12]	; (8007a40 <vsniprintf+0x18>)
 8007a34:	6800      	ldr	r0, [r0, #0]
 8007a36:	f7ff ffcb 	bl	80079d0 <_vsniprintf_r>
 8007a3a:	b003      	add	sp, #12
 8007a3c:	f85d fb04 	ldr.w	pc, [sp], #4
 8007a40:	20000094 	.word	0x20000094

08007a44 <__locale_ctype_ptr_l>:
 8007a44:	f8d0 00ec 	ldr.w	r0, [r0, #236]	; 0xec
 8007a48:	4770      	bx	lr

08007a4a <__ascii_mbtowc>:
 8007a4a:	b082      	sub	sp, #8
 8007a4c:	b901      	cbnz	r1, 8007a50 <__ascii_mbtowc+0x6>
 8007a4e:	a901      	add	r1, sp, #4
 8007a50:	b142      	cbz	r2, 8007a64 <__ascii_mbtowc+0x1a>
 8007a52:	b14b      	cbz	r3, 8007a68 <__ascii_mbtowc+0x1e>
 8007a54:	7813      	ldrb	r3, [r2, #0]
 8007a56:	600b      	str	r3, [r1, #0]
 8007a58:	7812      	ldrb	r2, [r2, #0]
 8007a5a:	1c10      	adds	r0, r2, #0
 8007a5c:	bf18      	it	ne
 8007a5e:	2001      	movne	r0, #1
 8007a60:	b002      	add	sp, #8
 8007a62:	4770      	bx	lr
 8007a64:	4610      	mov	r0, r2
 8007a66:	e7fb      	b.n	8007a60 <__ascii_mbtowc+0x16>
 8007a68:	f06f 0001 	mvn.w	r0, #1
 8007a6c:	e7f8      	b.n	8007a60 <__ascii_mbtowc+0x16>

08007a6e <__malloc_lock>:
 8007a6e:	4770      	bx	lr

08007a70 <__malloc_unlock>:
 8007a70:	4770      	bx	lr

08007a72 <__ssputs_r>:
 8007a72:	e92d 47f0 	stmdb	sp!, {r4, r5, r6, r7, r8, r9, sl, lr}
 8007a76:	688e      	ldr	r6, [r1, #8]
 8007a78:	4682      	mov	sl, r0
 8007a7a:	429e      	cmp	r6, r3
 8007a7c:	460c      	mov	r4, r1
 8007a7e:	4690      	mov	r8, r2
 8007a80:	4699      	mov	r9, r3
 8007a82:	d837      	bhi.n	8007af4 <__ssputs_r+0x82>
 8007a84:	898a      	ldrh	r2, [r1, #12]
 8007a86:	f412 6f90 	tst.w	r2, #1152	; 0x480
 8007a8a:	d031      	beq.n	8007af0 <__ssputs_r+0x7e>
 8007a8c:	2302      	movs	r3, #2
 8007a8e:	6825      	ldr	r5, [r4, #0]
 8007a90:	6909      	ldr	r1, [r1, #16]
 8007a92:	1a6f      	subs	r7, r5, r1
 8007a94:	6965      	ldr	r5, [r4, #20]
 8007a96:	eb05 0545 	add.w	r5, r5, r5, lsl #1
 8007a9a:	fb95 f5f3 	sdiv	r5, r5, r3
 8007a9e:	f109 0301 	add.w	r3, r9, #1
 8007aa2:	443b      	add	r3, r7
 8007aa4:	429d      	cmp	r5, r3
 8007aa6:	bf38      	it	cc
 8007aa8:	461d      	movcc	r5, r3
 8007aaa:	0553      	lsls	r3, r2, #21
 8007aac:	d530      	bpl.n	8007b10 <__ssputs_r+0x9e>
 8007aae:	4629      	mov	r1, r5
 8007ab0:	f7ff fe08 	bl	80076c4 <_malloc_r>
 8007ab4:	4606      	mov	r6, r0
 8007ab6:	b950      	cbnz	r0, 8007ace <__ssputs_r+0x5c>
 8007ab8:	230c      	movs	r3, #12
 8007aba:	f04f 30ff 	mov.w	r0, #4294967295
 8007abe:	f8ca 3000 	str.w	r3, [sl]
 8007ac2:	89a3      	ldrh	r3, [r4, #12]
 8007ac4:	f043 0340 	orr.w	r3, r3, #64	; 0x40
 8007ac8:	81a3      	strh	r3, [r4, #12]
 8007aca:	e8bd 87f0 	ldmia.w	sp!, {r4, r5, r6, r7, r8, r9, sl, pc}
 8007ace:	463a      	mov	r2, r7
 8007ad0:	6921      	ldr	r1, [r4, #16]
 8007ad2:	f7ff fd89 	bl	80075e8 <memcpy>
 8007ad6:	89a3      	ldrh	r3, [r4, #12]
 8007ad8:	f423 6390 	bic.w	r3, r3, #1152	; 0x480
 8007adc:	f043 0380 	orr.w	r3, r3, #128	; 0x80
 8007ae0:	81a3      	strh	r3, [r4, #12]
 8007ae2:	6126      	str	r6, [r4, #16]
 8007ae4:	443e      	add	r6, r7
 8007ae6:	6026      	str	r6, [r4, #0]
 8007ae8:	464e      	mov	r6, r9
 8007aea:	6165      	str	r5, [r4, #20]
 8007aec:	1bed      	subs	r5, r5, r7
 8007aee:	60a5      	str	r5, [r4, #8]
 8007af0:	454e      	cmp	r6, r9
 8007af2:	d900      	bls.n	8007af6 <__ssputs_r+0x84>
 8007af4:	464e      	mov	r6, r9
 8007af6:	4632      	mov	r2, r6
 8007af8:	4641      	mov	r1, r8
 8007afa:	6820      	ldr	r0, [r4, #0]
 8007afc:	f000 faaf 	bl	800805e <memmove>
 8007b00:	68a3      	ldr	r3, [r4, #8]
 8007b02:	2000      	movs	r0, #0
 8007b04:	1b9b      	subs	r3, r3, r6
 8007b06:	60a3      	str	r3, [r4, #8]
 8007b08:	6823      	ldr	r3, [r4, #0]
 8007b0a:	441e      	add	r6, r3
 8007b0c:	6026      	str	r6, [r4, #0]
 8007b0e:	e7dc      	b.n	8007aca <__ssputs_r+0x58>
 8007b10:	462a      	mov	r2, r5
 8007b12:	f000 fabd 	bl	8008090 <_realloc_r>
 8007b16:	4606      	mov	r6, r0
 8007b18:	2800      	cmp	r0, #0
 8007b1a:	d1e2      	bne.n	8007ae2 <__ssputs_r+0x70>
 8007b1c:	6921      	ldr	r1, [r4, #16]
 8007b1e:	4650      	mov	r0, sl
 8007b20:	f7ff fd84 	bl	800762c <_free_r>
 8007b24:	e7c8      	b.n	8007ab8 <__ssputs_r+0x46>
	...

08007b28 <_svfiprintf_r>:
 8007b28:	e92d 4ff0 	stmdb	sp!, {r4, r5, r6, r7, r8, r9, sl, fp, lr}
 8007b2c:	461d      	mov	r5, r3
 8007b2e:	898b      	ldrh	r3, [r1, #12]
 8007b30:	b09d      	sub	sp, #116	; 0x74
 8007b32:	061f      	lsls	r7, r3, #24
 8007b34:	4680      	mov	r8, r0
 8007b36:	460c      	mov	r4, r1
 8007b38:	4616      	mov	r6, r2
 8007b3a:	d50f      	bpl.n	8007b5c <_svfiprintf_r+0x34>
 8007b3c:	690b      	ldr	r3, [r1, #16]
 8007b3e:	b96b      	cbnz	r3, 8007b5c <_svfiprintf_r+0x34>
 8007b40:	2140      	movs	r1, #64	; 0x40
 8007b42:	f7ff fdbf 	bl	80076c4 <_malloc_r>
 8007b46:	6020      	str	r0, [r4, #0]
 8007b48:	6120      	str	r0, [r4, #16]
 8007b4a:	b928      	cbnz	r0, 8007b58 <_svfiprintf_r+0x30>
 8007b4c:	230c      	movs	r3, #12
 8007b4e:	f8c8 3000 	str.w	r3, [r8]
 8007b52:	f04f 30ff 	mov.w	r0, #4294967295
 8007b56:	e0c8      	b.n	8007cea <_svfiprintf_r+0x1c2>
 8007b58:	2340      	movs	r3, #64	; 0x40
 8007b5a:	6163      	str	r3, [r4, #20]
 8007b5c:	2300      	movs	r3, #0
 8007b5e:	9309      	str	r3, [sp, #36]	; 0x24
 8007b60:	2320      	movs	r3, #32
 8007b62:	f88d 3029 	strb.w	r3, [sp, #41]	; 0x29
 8007b66:	2330      	movs	r3, #48	; 0x30
 8007b68:	f04f 0b01 	mov.w	fp, #1
 8007b6c:	f88d 302a 	strb.w	r3, [sp, #42]	; 0x2a
 8007b70:	9503      	str	r5, [sp, #12]
 8007b72:	4637      	mov	r7, r6
 8007b74:	463d      	mov	r5, r7
 8007b76:	f815 3b01 	ldrb.w	r3, [r5], #1
 8007b7a:	b10b      	cbz	r3, 8007b80 <_svfiprintf_r+0x58>
 8007b7c:	2b25      	cmp	r3, #37	; 0x25
 8007b7e:	d13e      	bne.n	8007bfe <_svfiprintf_r+0xd6>
 8007b80:	ebb7 0a06 	subs.w	sl, r7, r6
 8007b84:	d00b      	beq.n	8007b9e <_svfiprintf_r+0x76>
 8007b86:	4653      	mov	r3, sl
 8007b88:	4632      	mov	r2, r6
 8007b8a:	4621      	mov	r1, r4
 8007b8c:	4640      	mov	r0, r8
 8007b8e:	f7ff ff70 	bl	8007a72 <__ssputs_r>
 8007b92:	3001      	adds	r0, #1
 8007b94:	f000 80a4 	beq.w	8007ce0 <_svfiprintf_r+0x1b8>
 8007b98:	9b09      	ldr	r3, [sp, #36]	; 0x24
 8007b9a:	4453      	add	r3, sl
 8007b9c:	9309      	str	r3, [sp, #36]	; 0x24
 8007b9e:	783b      	ldrb	r3, [r7, #0]
 8007ba0:	2b00      	cmp	r3, #0
 8007ba2:	f000 809d 	beq.w	8007ce0 <_svfiprintf_r+0x1b8>
 8007ba6:	2300      	movs	r3, #0
 8007ba8:	f04f 32ff 	mov.w	r2, #4294967295
 8007bac:	e9cd 2305 	strd	r2, r3, [sp, #20]
 8007bb0:	9304      	str	r3, [sp, #16]
 8007bb2:	9307      	str	r3, [sp, #28]
 8007bb4:	f88d 3053 	strb.w	r3, [sp, #83]	; 0x53
 8007bb8:	931a      	str	r3, [sp, #104]	; 0x68
 8007bba:	462f      	mov	r7, r5
 8007bbc:	2205      	movs	r2, #5
 8007bbe:	f817 1b01 	ldrb.w	r1, [r7], #1
 8007bc2:	4850      	ldr	r0, [pc, #320]	; (8007d04 <_svfiprintf_r+0x1dc>)
 8007bc4:	f000 fa3d 	bl	8008042 <memchr>
 8007bc8:	9b04      	ldr	r3, [sp, #16]
 8007bca:	b9d0      	cbnz	r0, 8007c02 <_svfiprintf_r+0xda>
 8007bcc:	06d9      	lsls	r1, r3, #27
 8007bce:	bf44      	itt	mi
 8007bd0:	2220      	movmi	r2, #32
 8007bd2:	f88d 2053 	strbmi.w	r2, [sp, #83]	; 0x53
 8007bd6:	071a      	lsls	r2, r3, #28
 8007bd8:	bf44      	itt	mi
 8007bda:	222b      	movmi	r2, #43	; 0x2b
 8007bdc:	f88d 2053 	strbmi.w	r2, [sp, #83]	; 0x53
 8007be0:	782a      	ldrb	r2, [r5, #0]
 8007be2:	2a2a      	cmp	r2, #42	; 0x2a
 8007be4:	d015      	beq.n	8007c12 <_svfiprintf_r+0xea>
 8007be6:	462f      	mov	r7, r5
 8007be8:	2000      	movs	r0, #0
 8007bea:	250a      	movs	r5, #10
 8007bec:	9a07      	ldr	r2, [sp, #28]
 8007bee:	4639      	mov	r1, r7
 8007bf0:	f811 3b01 	ldrb.w	r3, [r1], #1
 8007bf4:	3b30      	subs	r3, #48	; 0x30
 8007bf6:	2b09      	cmp	r3, #9
 8007bf8:	d94d      	bls.n	8007c96 <_svfiprintf_r+0x16e>
 8007bfa:	b1b8      	cbz	r0, 8007c2c <_svfiprintf_r+0x104>
 8007bfc:	e00f      	b.n	8007c1e <_svfiprintf_r+0xf6>
 8007bfe:	462f      	mov	r7, r5
 8007c00:	e7b8      	b.n	8007b74 <_svfiprintf_r+0x4c>
 8007c02:	4a40      	ldr	r2, [pc, #256]	; (8007d04 <_svfiprintf_r+0x1dc>)
 8007c04:	463d      	mov	r5, r7
 8007c06:	1a80      	subs	r0, r0, r2
 8007c08:	fa0b f000 	lsl.w	r0, fp, r0
 8007c0c:	4318      	orrs	r0, r3
 8007c0e:	9004      	str	r0, [sp, #16]
 8007c10:	e7d3      	b.n	8007bba <_svfiprintf_r+0x92>
 8007c12:	9a03      	ldr	r2, [sp, #12]
 8007c14:	1d11      	adds	r1, r2, #4
 8007c16:	6812      	ldr	r2, [r2, #0]
 8007c18:	9103      	str	r1, [sp, #12]
 8007c1a:	2a00      	cmp	r2, #0
 8007c1c:	db01      	blt.n	8007c22 <_svfiprintf_r+0xfa>
 8007c1e:	9207      	str	r2, [sp, #28]
 8007c20:	e004      	b.n	8007c2c <_svfiprintf_r+0x104>
 8007c22:	4252      	negs	r2, r2
 8007c24:	f043 0302 	orr.w	r3, r3, #2
 8007c28:	9207      	str	r2, [sp, #28]
 8007c2a:	9304      	str	r3, [sp, #16]
 8007c2c:	783b      	ldrb	r3, [r7, #0]
 8007c2e:	2b2e      	cmp	r3, #46	; 0x2e
 8007c30:	d10c      	bne.n	8007c4c <_svfiprintf_r+0x124>
 8007c32:	787b      	ldrb	r3, [r7, #1]
 8007c34:	2b2a      	cmp	r3, #42	; 0x2a
 8007c36:	d133      	bne.n	8007ca0 <_svfiprintf_r+0x178>
 8007c38:	9b03      	ldr	r3, [sp, #12]
 8007c3a:	3702      	adds	r7, #2
 8007c3c:	1d1a      	adds	r2, r3, #4
 8007c3e:	681b      	ldr	r3, [r3, #0]
 8007c40:	9203      	str	r2, [sp, #12]
 8007c42:	2b00      	cmp	r3, #0
 8007c44:	bfb8      	it	lt
 8007c46:	f04f 33ff 	movlt.w	r3, #4294967295
 8007c4a:	9305      	str	r3, [sp, #20]
 8007c4c:	4d2e      	ldr	r5, [pc, #184]	; (8007d08 <_svfiprintf_r+0x1e0>)
 8007c4e:	2203      	movs	r2, #3
 8007c50:	7839      	ldrb	r1, [r7, #0]
 8007c52:	4628      	mov	r0, r5
 8007c54:	f000 f9f5 	bl	8008042 <memchr>
 8007c58:	b138      	cbz	r0, 8007c6a <_svfiprintf_r+0x142>
 8007c5a:	2340      	movs	r3, #64	; 0x40
 8007c5c:	1b40      	subs	r0, r0, r5
 8007c5e:	fa03 f000 	lsl.w	r0, r3, r0
 8007c62:	9b04      	ldr	r3, [sp, #16]
 8007c64:	3701      	adds	r7, #1
 8007c66:	4303      	orrs	r3, r0
 8007c68:	9304      	str	r3, [sp, #16]
 8007c6a:	7839      	ldrb	r1, [r7, #0]
 8007c6c:	2206      	movs	r2, #6
 8007c6e:	4827      	ldr	r0, [pc, #156]	; (8007d0c <_svfiprintf_r+0x1e4>)
 8007c70:	1c7e      	adds	r6, r7, #1
 8007c72:	f88d 1028 	strb.w	r1, [sp, #40]	; 0x28
 8007c76:	f000 f9e4 	bl	8008042 <memchr>
 8007c7a:	2800      	cmp	r0, #0
 8007c7c:	d038      	beq.n	8007cf0 <_svfiprintf_r+0x1c8>
 8007c7e:	4b24      	ldr	r3, [pc, #144]	; (8007d10 <_svfiprintf_r+0x1e8>)
 8007c80:	bb13      	cbnz	r3, 8007cc8 <_svfiprintf_r+0x1a0>
 8007c82:	9b03      	ldr	r3, [sp, #12]
 8007c84:	3307      	adds	r3, #7
 8007c86:	f023 0307 	bic.w	r3, r3, #7
 8007c8a:	3308      	adds	r3, #8
 8007c8c:	9303      	str	r3, [sp, #12]
 8007c8e:	9b09      	ldr	r3, [sp, #36]	; 0x24
 8007c90:	444b      	add	r3, r9
 8007c92:	9309      	str	r3, [sp, #36]	; 0x24
 8007c94:	e76d      	b.n	8007b72 <_svfiprintf_r+0x4a>
 8007c96:	fb05 3202 	mla	r2, r5, r2, r3
 8007c9a:	2001      	movs	r0, #1
 8007c9c:	460f      	mov	r7, r1
 8007c9e:	e7a6      	b.n	8007bee <_svfiprintf_r+0xc6>
 8007ca0:	2300      	movs	r3, #0
 8007ca2:	250a      	movs	r5, #10
 8007ca4:	4619      	mov	r1, r3
 8007ca6:	3701      	adds	r7, #1
 8007ca8:	9305      	str	r3, [sp, #20]
 8007caa:	4638      	mov	r0, r7
 8007cac:	f810 2b01 	ldrb.w	r2, [r0], #1
 8007cb0:	3a30      	subs	r2, #48	; 0x30
 8007cb2:	2a09      	cmp	r2, #9
 8007cb4:	d903      	bls.n	8007cbe <_svfiprintf_r+0x196>
 8007cb6:	2b00      	cmp	r3, #0
 8007cb8:	d0c8      	beq.n	8007c4c <_svfiprintf_r+0x124>
 8007cba:	9105      	str	r1, [sp, #20]
 8007cbc:	e7c6      	b.n	8007c4c <_svfiprintf_r+0x124>
 8007cbe:	fb05 2101 	mla	r1, r5, r1, r2
 8007cc2:	2301      	movs	r3, #1
 8007cc4:	4607      	mov	r7, r0
 8007cc6:	e7f0      	b.n	8007caa <_svfiprintf_r+0x182>
 8007cc8:	ab03      	add	r3, sp, #12
 8007cca:	9300      	str	r3, [sp, #0]
 8007ccc:	4622      	mov	r2, r4
 8007cce:	4b11      	ldr	r3, [pc, #68]	; (8007d14 <_svfiprintf_r+0x1ec>)
 8007cd0:	a904      	add	r1, sp, #16
 8007cd2:	4640      	mov	r0, r8
 8007cd4:	f3af 8000 	nop.w
 8007cd8:	f1b0 3fff 	cmp.w	r0, #4294967295
 8007cdc:	4681      	mov	r9, r0
 8007cde:	d1d6      	bne.n	8007c8e <_svfiprintf_r+0x166>
 8007ce0:	89a3      	ldrh	r3, [r4, #12]
 8007ce2:	065b      	lsls	r3, r3, #25
 8007ce4:	f53f af35 	bmi.w	8007b52 <_svfiprintf_r+0x2a>
 8007ce8:	9809      	ldr	r0, [sp, #36]	; 0x24
 8007cea:	b01d      	add	sp, #116	; 0x74
 8007cec:	e8bd 8ff0 	ldmia.w	sp!, {r4, r5, r6, r7, r8, r9, sl, fp, pc}
 8007cf0:	ab03      	add	r3, sp, #12
 8007cf2:	9300      	str	r3, [sp, #0]
 8007cf4:	4622      	mov	r2, r4
 8007cf6:	4b07      	ldr	r3, [pc, #28]	; (8007d14 <_svfiprintf_r+0x1ec>)
 8007cf8:	a904      	add	r1, sp, #16
 8007cfa:	4640      	mov	r0, r8
 8007cfc:	f000 f882 	bl	8007e04 <_printf_i>
 8007d00:	e7ea      	b.n	8007cd8 <_svfiprintf_r+0x1b0>
 8007d02:	bf00      	nop
 8007d04:	0800b3aa 	.word	0x0800b3aa
 8007d08:	0800b3b0 	.word	0x0800b3b0
 8007d0c:	0800b3b4 	.word	0x0800b3b4
 8007d10:	00000000 	.word	0x00000000
 8007d14:	08007a73 	.word	0x08007a73

08007d18 <_printf_common>:
 8007d18:	e92d 47f0 	stmdb	sp!, {r4, r5, r6, r7, r8, r9, sl, lr}
 8007d1c:	4691      	mov	r9, r2
 8007d1e:	461f      	mov	r7, r3
 8007d20:	688a      	ldr	r2, [r1, #8]
 8007d22:	690b      	ldr	r3, [r1, #16]
 8007d24:	4606      	mov	r6, r0
 8007d26:	4293      	cmp	r3, r2
 8007d28:	bfb8      	it	lt
 8007d2a:	4613      	movlt	r3, r2
 8007d2c:	f8c9 3000 	str.w	r3, [r9]
 8007d30:	f891 2043 	ldrb.w	r2, [r1, #67]	; 0x43
 8007d34:	460c      	mov	r4, r1
 8007d36:	f8dd 8020 	ldr.w	r8, [sp, #32]
 8007d3a:	b112      	cbz	r2, 8007d42 <_printf_common+0x2a>
 8007d3c:	3301      	adds	r3, #1
 8007d3e:	f8c9 3000 	str.w	r3, [r9]
 8007d42:	6823      	ldr	r3, [r4, #0]
 8007d44:	0699      	lsls	r1, r3, #26
 8007d46:	bf42      	ittt	mi
 8007d48:	f8d9 3000 	ldrmi.w	r3, [r9]
 8007d4c:	3302      	addmi	r3, #2
 8007d4e:	f8c9 3000 	strmi.w	r3, [r9]
 8007d52:	6825      	ldr	r5, [r4, #0]
 8007d54:	f015 0506 	ands.w	r5, r5, #6
 8007d58:	d107      	bne.n	8007d6a <_printf_common+0x52>
 8007d5a:	f104 0a19 	add.w	sl, r4, #25
 8007d5e:	68e3      	ldr	r3, [r4, #12]
 8007d60:	f8d9 2000 	ldr.w	r2, [r9]
 8007d64:	1a9b      	subs	r3, r3, r2
 8007d66:	42ab      	cmp	r3, r5
 8007d68:	dc29      	bgt.n	8007dbe <_printf_common+0xa6>
 8007d6a:	f894 3043 	ldrb.w	r3, [r4, #67]	; 0x43
 8007d6e:	6822      	ldr	r2, [r4, #0]
 8007d70:	3300      	adds	r3, #0
 8007d72:	bf18      	it	ne
 8007d74:	2301      	movne	r3, #1
 8007d76:	0692      	lsls	r2, r2, #26
 8007d78:	d42e      	bmi.n	8007dd8 <_printf_common+0xc0>
 8007d7a:	f104 0243 	add.w	r2, r4, #67	; 0x43
 8007d7e:	4639      	mov	r1, r7
 8007d80:	4630      	mov	r0, r6
 8007d82:	47c0      	blx	r8
 8007d84:	3001      	adds	r0, #1
 8007d86:	d021      	beq.n	8007dcc <_printf_common+0xb4>
 8007d88:	6823      	ldr	r3, [r4, #0]
 8007d8a:	68e5      	ldr	r5, [r4, #12]
 8007d8c:	f003 0306 	and.w	r3, r3, #6
 8007d90:	2b04      	cmp	r3, #4
 8007d92:	bf18      	it	ne
 8007d94:	2500      	movne	r5, #0
 8007d96:	f8d9 2000 	ldr.w	r2, [r9]
 8007d9a:	f04f 0900 	mov.w	r9, #0
 8007d9e:	bf08      	it	eq
 8007da0:	1aad      	subeq	r5, r5, r2
 8007da2:	68a3      	ldr	r3, [r4, #8]
 8007da4:	6922      	ldr	r2, [r4, #16]
 8007da6:	bf08      	it	eq
 8007da8:	ea25 75e5 	biceq.w	r5, r5, r5, asr #31
 8007dac:	4293      	cmp	r3, r2
 8007dae:	bfc4      	itt	gt
 8007db0:	1a9b      	subgt	r3, r3, r2
 8007db2:	18ed      	addgt	r5, r5, r3
 8007db4:	341a      	adds	r4, #26
 8007db6:	454d      	cmp	r5, r9
 8007db8:	d11a      	bne.n	8007df0 <_printf_common+0xd8>
 8007dba:	2000      	movs	r0, #0
 8007dbc:	e008      	b.n	8007dd0 <_printf_common+0xb8>
 8007dbe:	2301      	movs	r3, #1
 8007dc0:	4652      	mov	r2, sl
 8007dc2:	4639      	mov	r1, r7
 8007dc4:	4630      	mov	r0, r6
 8007dc6:	47c0      	blx	r8
 8007dc8:	3001      	adds	r0, #1
 8007dca:	d103      	bne.n	8007dd4 <_printf_common+0xbc>
 8007dcc:	f04f 30ff 	mov.w	r0, #4294967295
 8007dd0:	e8bd 87f0 	ldmia.w	sp!, {r4, r5, r6, r7, r8, r9, sl, pc}
 8007dd4:	3501      	adds	r5, #1
 8007dd6:	e7c2      	b.n	8007d5e <_printf_common+0x46>
 8007dd8:	2030      	movs	r0, #48	; 0x30
 8007dda:	18e1      	adds	r1, r4, r3
 8007ddc:	f881 0043 	strb.w	r0, [r1, #67]	; 0x43
 8007de0:	1c5a      	adds	r2, r3, #1
 8007de2:	f894 1045 	ldrb.w	r1, [r4, #69]	; 0x45
 8007de6:	4422      	add	r2, r4
 8007de8:	3302      	adds	r3, #2
 8007dea:	f882 1043 	strb.w	r1, [r2, #67]	; 0x43
 8007dee:	e7c4      	b.n	8007d7a <_printf_common+0x62>
 8007df0:	2301      	movs	r3, #1
 8007df2:	4622      	mov	r2, r4
 8007df4:	4639      	mov	r1, r7
 8007df6:	4630      	mov	r0, r6
 8007df8:	47c0      	blx	r8
 8007dfa:	3001      	adds	r0, #1
 8007dfc:	d0e6      	beq.n	8007dcc <_printf_common+0xb4>
 8007dfe:	f109 0901 	add.w	r9, r9, #1
 8007e02:	e7d8      	b.n	8007db6 <_printf_common+0x9e>

08007e04 <_printf_i>:
 8007e04:	e92d 43f0 	stmdb	sp!, {r4, r5, r6, r7, r8, r9, lr}
 8007e08:	f101 0c43 	add.w	ip, r1, #67	; 0x43
 8007e0c:	460c      	mov	r4, r1
 8007e0e:	7e09      	ldrb	r1, [r1, #24]
 8007e10:	b085      	sub	sp, #20
 8007e12:	296e      	cmp	r1, #110	; 0x6e
 8007e14:	4617      	mov	r7, r2
 8007e16:	4606      	mov	r6, r0
 8007e18:	4698      	mov	r8, r3
 8007e1a:	9a0c      	ldr	r2, [sp, #48]	; 0x30
 8007e1c:	f000 80b3 	beq.w	8007f86 <_printf_i+0x182>
 8007e20:	d822      	bhi.n	8007e68 <_printf_i+0x64>
 8007e22:	2963      	cmp	r1, #99	; 0x63
 8007e24:	d036      	beq.n	8007e94 <_printf_i+0x90>
 8007e26:	d80a      	bhi.n	8007e3e <_printf_i+0x3a>
 8007e28:	2900      	cmp	r1, #0
 8007e2a:	f000 80b9 	beq.w	8007fa0 <_printf_i+0x19c>
 8007e2e:	2958      	cmp	r1, #88	; 0x58
 8007e30:	f000 8083 	beq.w	8007f3a <_printf_i+0x136>
 8007e34:	f104 0542 	add.w	r5, r4, #66	; 0x42
 8007e38:	f884 1042 	strb.w	r1, [r4, #66]	; 0x42
 8007e3c:	e032      	b.n	8007ea4 <_printf_i+0xa0>
 8007e3e:	2964      	cmp	r1, #100	; 0x64
 8007e40:	d001      	beq.n	8007e46 <_printf_i+0x42>
 8007e42:	2969      	cmp	r1, #105	; 0x69
 8007e44:	d1f6      	bne.n	8007e34 <_printf_i+0x30>
 8007e46:	6820      	ldr	r0, [r4, #0]
 8007e48:	6813      	ldr	r3, [r2, #0]
 8007e4a:	0605      	lsls	r5, r0, #24
 8007e4c:	f103 0104 	add.w	r1, r3, #4
 8007e50:	d52a      	bpl.n	8007ea8 <_printf_i+0xa4>
 8007e52:	681b      	ldr	r3, [r3, #0]
 8007e54:	6011      	str	r1, [r2, #0]
 8007e56:	2b00      	cmp	r3, #0
 8007e58:	da03      	bge.n	8007e62 <_printf_i+0x5e>
 8007e5a:	222d      	movs	r2, #45	; 0x2d
 8007e5c:	425b      	negs	r3, r3
 8007e5e:	f884 2043 	strb.w	r2, [r4, #67]	; 0x43
 8007e62:	486f      	ldr	r0, [pc, #444]	; (8008020 <_printf_i+0x21c>)
 8007e64:	220a      	movs	r2, #10
 8007e66:	e039      	b.n	8007edc <_printf_i+0xd8>
 8007e68:	2973      	cmp	r1, #115	; 0x73
 8007e6a:	f000 809d 	beq.w	8007fa8 <_printf_i+0x1a4>
 8007e6e:	d808      	bhi.n	8007e82 <_printf_i+0x7e>
 8007e70:	296f      	cmp	r1, #111	; 0x6f
 8007e72:	d020      	beq.n	8007eb6 <_printf_i+0xb2>
 8007e74:	2970      	cmp	r1, #112	; 0x70
 8007e76:	d1dd      	bne.n	8007e34 <_printf_i+0x30>
 8007e78:	6823      	ldr	r3, [r4, #0]
 8007e7a:	f043 0320 	orr.w	r3, r3, #32
 8007e7e:	6023      	str	r3, [r4, #0]
 8007e80:	e003      	b.n	8007e8a <_printf_i+0x86>
 8007e82:	2975      	cmp	r1, #117	; 0x75
 8007e84:	d017      	beq.n	8007eb6 <_printf_i+0xb2>
 8007e86:	2978      	cmp	r1, #120	; 0x78
 8007e88:	d1d4      	bne.n	8007e34 <_printf_i+0x30>
 8007e8a:	2378      	movs	r3, #120	; 0x78
 8007e8c:	4865      	ldr	r0, [pc, #404]	; (8008024 <_printf_i+0x220>)
 8007e8e:	f884 3045 	strb.w	r3, [r4, #69]	; 0x45
 8007e92:	e055      	b.n	8007f40 <_printf_i+0x13c>
 8007e94:	6813      	ldr	r3, [r2, #0]
 8007e96:	f104 0542 	add.w	r5, r4, #66	; 0x42
 8007e9a:	1d19      	adds	r1, r3, #4
 8007e9c:	681b      	ldr	r3, [r3, #0]
 8007e9e:	6011      	str	r1, [r2, #0]
 8007ea0:	f884 3042 	strb.w	r3, [r4, #66]	; 0x42
 8007ea4:	2301      	movs	r3, #1
 8007ea6:	e08c      	b.n	8007fc2 <_printf_i+0x1be>
 8007ea8:	681b      	ldr	r3, [r3, #0]
 8007eaa:	f010 0f40 	tst.w	r0, #64	; 0x40
 8007eae:	6011      	str	r1, [r2, #0]
 8007eb0:	bf18      	it	ne
 8007eb2:	b21b      	sxthne	r3, r3
 8007eb4:	e7cf      	b.n	8007e56 <_printf_i+0x52>
 8007eb6:	6813      	ldr	r3, [r2, #0]
 8007eb8:	6825      	ldr	r5, [r4, #0]
 8007eba:	1d18      	adds	r0, r3, #4
 8007ebc:	6010      	str	r0, [r2, #0]
 8007ebe:	0628      	lsls	r0, r5, #24
 8007ec0:	d501      	bpl.n	8007ec6 <_printf_i+0xc2>
 8007ec2:	681b      	ldr	r3, [r3, #0]
 8007ec4:	e002      	b.n	8007ecc <_printf_i+0xc8>
 8007ec6:	0668      	lsls	r0, r5, #25
 8007ec8:	d5fb      	bpl.n	8007ec2 <_printf_i+0xbe>
 8007eca:	881b      	ldrh	r3, [r3, #0]
 8007ecc:	296f      	cmp	r1, #111	; 0x6f
 8007ece:	bf14      	ite	ne
 8007ed0:	220a      	movne	r2, #10
 8007ed2:	2208      	moveq	r2, #8
 8007ed4:	4852      	ldr	r0, [pc, #328]	; (8008020 <_printf_i+0x21c>)
 8007ed6:	2100      	movs	r1, #0
 8007ed8:	f884 1043 	strb.w	r1, [r4, #67]	; 0x43
 8007edc:	6865      	ldr	r5, [r4, #4]
 8007ede:	2d00      	cmp	r5, #0
 8007ee0:	60a5      	str	r5, [r4, #8]
 8007ee2:	f2c0 8095 	blt.w	8008010 <_printf_i+0x20c>
 8007ee6:	6821      	ldr	r1, [r4, #0]
 8007ee8:	f021 0104 	bic.w	r1, r1, #4
 8007eec:	6021      	str	r1, [r4, #0]
 8007eee:	2b00      	cmp	r3, #0
 8007ef0:	d13d      	bne.n	8007f6e <_printf_i+0x16a>
 8007ef2:	2d00      	cmp	r5, #0
 8007ef4:	f040 808e 	bne.w	8008014 <_printf_i+0x210>
 8007ef8:	4665      	mov	r5, ip
 8007efa:	2a08      	cmp	r2, #8
 8007efc:	d10b      	bne.n	8007f16 <_printf_i+0x112>
 8007efe:	6823      	ldr	r3, [r4, #0]
 8007f00:	07db      	lsls	r3, r3, #31
 8007f02:	d508      	bpl.n	8007f16 <_printf_i+0x112>
 8007f04:	6923      	ldr	r3, [r4, #16]
 8007f06:	6862      	ldr	r2, [r4, #4]
 8007f08:	429a      	cmp	r2, r3
 8007f0a:	bfde      	ittt	le
 8007f0c:	2330      	movle	r3, #48	; 0x30
 8007f0e:	f805 3c01 	strble.w	r3, [r5, #-1]
 8007f12:	f105 35ff 	addle.w	r5, r5, #4294967295
 8007f16:	ebac 0305 	sub.w	r3, ip, r5
 8007f1a:	6123      	str	r3, [r4, #16]
 8007f1c:	f8cd 8000 	str.w	r8, [sp]
 8007f20:	463b      	mov	r3, r7
 8007f22:	aa03      	add	r2, sp, #12
 8007f24:	4621      	mov	r1, r4
 8007f26:	4630      	mov	r0, r6
 8007f28:	f7ff fef6 	bl	8007d18 <_printf_common>
 8007f2c:	3001      	adds	r0, #1
 8007f2e:	d14d      	bne.n	8007fcc <_printf_i+0x1c8>
 8007f30:	f04f 30ff 	mov.w	r0, #4294967295
 8007f34:	b005      	add	sp, #20
 8007f36:	e8bd 83f0 	ldmia.w	sp!, {r4, r5, r6, r7, r8, r9, pc}
 8007f3a:	4839      	ldr	r0, [pc, #228]	; (8008020 <_printf_i+0x21c>)
 8007f3c:	f884 1045 	strb.w	r1, [r4, #69]	; 0x45
 8007f40:	6813      	ldr	r3, [r2, #0]
 8007f42:	6821      	ldr	r1, [r4, #0]
 8007f44:	1d1d      	adds	r5, r3, #4
 8007f46:	681b      	ldr	r3, [r3, #0]
 8007f48:	6015      	str	r5, [r2, #0]
 8007f4a:	060a      	lsls	r2, r1, #24
 8007f4c:	d50b      	bpl.n	8007f66 <_printf_i+0x162>
 8007f4e:	07ca      	lsls	r2, r1, #31
 8007f50:	bf44      	itt	mi
 8007f52:	f041 0120 	orrmi.w	r1, r1, #32
 8007f56:	6021      	strmi	r1, [r4, #0]
 8007f58:	b91b      	cbnz	r3, 8007f62 <_printf_i+0x15e>
 8007f5a:	6822      	ldr	r2, [r4, #0]
 8007f5c:	f022 0220 	bic.w	r2, r2, #32
 8007f60:	6022      	str	r2, [r4, #0]
 8007f62:	2210      	movs	r2, #16
 8007f64:	e7b7      	b.n	8007ed6 <_printf_i+0xd2>
 8007f66:	064d      	lsls	r5, r1, #25
 8007f68:	bf48      	it	mi
 8007f6a:	b29b      	uxthmi	r3, r3
 8007f6c:	e7ef      	b.n	8007f4e <_printf_i+0x14a>
 8007f6e:	4665      	mov	r5, ip
 8007f70:	fbb3 f1f2 	udiv	r1, r3, r2
 8007f74:	fb02 3311 	mls	r3, r2, r1, r3
 8007f78:	5cc3      	ldrb	r3, [r0, r3]
 8007f7a:	f805 3d01 	strb.w	r3, [r5, #-1]!
 8007f7e:	460b      	mov	r3, r1
 8007f80:	2900      	cmp	r1, #0
 8007f82:	d1f5      	bne.n	8007f70 <_printf_i+0x16c>
 8007f84:	e7b9      	b.n	8007efa <_printf_i+0xf6>
 8007f86:	6813      	ldr	r3, [r2, #0]
 8007f88:	6825      	ldr	r5, [r4, #0]
 8007f8a:	1d18      	adds	r0, r3, #4
 8007f8c:	6961      	ldr	r1, [r4, #20]
 8007f8e:	6010      	str	r0, [r2, #0]
 8007f90:	0628      	lsls	r0, r5, #24
 8007f92:	681b      	ldr	r3, [r3, #0]
 8007f94:	d501      	bpl.n	8007f9a <_printf_i+0x196>
 8007f96:	6019      	str	r1, [r3, #0]
 8007f98:	e002      	b.n	8007fa0 <_printf_i+0x19c>
 8007f9a:	066a      	lsls	r2, r5, #25
 8007f9c:	d5fb      	bpl.n	8007f96 <_printf_i+0x192>
 8007f9e:	8019      	strh	r1, [r3, #0]
 8007fa0:	2300      	movs	r3, #0
 8007fa2:	4665      	mov	r5, ip
 8007fa4:	6123      	str	r3, [r4, #16]
 8007fa6:	e7b9      	b.n	8007f1c <_printf_i+0x118>
 8007fa8:	6813      	ldr	r3, [r2, #0]
 8007faa:	1d19      	adds	r1, r3, #4
 8007fac:	6011      	str	r1, [r2, #0]
 8007fae:	681d      	ldr	r5, [r3, #0]
 8007fb0:	6862      	ldr	r2, [r4, #4]
 8007fb2:	2100      	movs	r1, #0
 8007fb4:	4628      	mov	r0, r5
 8007fb6:	f000 f844 	bl	8008042 <memchr>
 8007fba:	b108      	cbz	r0, 8007fc0 <_printf_i+0x1bc>
 8007fbc:	1b40      	subs	r0, r0, r5
 8007fbe:	6060      	str	r0, [r4, #4]
 8007fc0:	6863      	ldr	r3, [r4, #4]
 8007fc2:	6123      	str	r3, [r4, #16]
 8007fc4:	2300      	movs	r3, #0
 8007fc6:	f884 3043 	strb.w	r3, [r4, #67]	; 0x43
 8007fca:	e7a7      	b.n	8007f1c <_printf_i+0x118>
 8007fcc:	6923      	ldr	r3, [r4, #16]
 8007fce:	462a      	mov	r2, r5
 8007fd0:	4639      	mov	r1, r7
 8007fd2:	4630      	mov	r0, r6
 8007fd4:	47c0      	blx	r8
 8007fd6:	3001      	adds	r0, #1
 8007fd8:	d0aa      	beq.n	8007f30 <_printf_i+0x12c>
 8007fda:	6823      	ldr	r3, [r4, #0]
 8007fdc:	079b      	lsls	r3, r3, #30
 8007fde:	d413      	bmi.n	8008008 <_printf_i+0x204>
 8007fe0:	68e0      	ldr	r0, [r4, #12]
 8007fe2:	9b03      	ldr	r3, [sp, #12]
 8007fe4:	4298      	cmp	r0, r3
 8007fe6:	bfb8      	it	lt
 8007fe8:	4618      	movlt	r0, r3
 8007fea:	e7a3      	b.n	8007f34 <_printf_i+0x130>
 8007fec:	2301      	movs	r3, #1
 8007fee:	464a      	mov	r2, r9
 8007ff0:	4639      	mov	r1, r7
 8007ff2:	4630      	mov	r0, r6
 8007ff4:	47c0      	blx	r8
 8007ff6:	3001      	adds	r0, #1
 8007ff8:	d09a      	beq.n	8007f30 <_printf_i+0x12c>
 8007ffa:	3501      	adds	r5, #1
 8007ffc:	68e3      	ldr	r3, [r4, #12]
 8007ffe:	9a03      	ldr	r2, [sp, #12]
 8008000:	1a9b      	subs	r3, r3, r2
 8008002:	42ab      	cmp	r3, r5
 8008004:	dcf2      	bgt.n	8007fec <_printf_i+0x1e8>
 8008006:	e7eb      	b.n	8007fe0 <_printf_i+0x1dc>
 8008008:	2500      	movs	r5, #0
 800800a:	f104 0919 	add.w	r9, r4, #25
 800800e:	e7f5      	b.n	8007ffc <_printf_i+0x1f8>
 8008010:	2b00      	cmp	r3, #0
 8008012:	d1ac      	bne.n	8007f6e <_printf_i+0x16a>
 8008014:	7803      	ldrb	r3, [r0, #0]
 8008016:	f104 0542 	add.w	r5, r4, #66	; 0x42
 800801a:	f884 3042 	strb.w	r3, [r4, #66]	; 0x42
 800801e:	e76c      	b.n	8007efa <_printf_i+0xf6>
 8008020:	0800b3bb 	.word	0x0800b3bb
 8008024:	0800b3cc 	.word	0x0800b3cc

08008028 <__ascii_wctomb>:
 8008028:	b149      	cbz	r1, 800803e <__ascii_wctomb+0x16>
 800802a:	2aff      	cmp	r2, #255	; 0xff
 800802c:	bf8b      	itete	hi
 800802e:	238a      	movhi	r3, #138	; 0x8a
 8008030:	700a      	strbls	r2, [r1, #0]
 8008032:	6003      	strhi	r3, [r0, #0]
 8008034:	2001      	movls	r0, #1
 8008036:	bf88      	it	hi
 8008038:	f04f 30ff 	movhi.w	r0, #4294967295
 800803c:	4770      	bx	lr
 800803e:	4608      	mov	r0, r1
 8008040:	4770      	bx	lr

08008042 <memchr>:
 8008042:	b510      	push	{r4, lr}
 8008044:	b2c9      	uxtb	r1, r1
 8008046:	4402      	add	r2, r0
 8008048:	4290      	cmp	r0, r2
 800804a:	4603      	mov	r3, r0
 800804c:	d101      	bne.n	8008052 <memchr+0x10>
 800804e:	2300      	movs	r3, #0
 8008050:	e003      	b.n	800805a <memchr+0x18>
 8008052:	781c      	ldrb	r4, [r3, #0]
 8008054:	3001      	adds	r0, #1
 8008056:	428c      	cmp	r4, r1
 8008058:	d1f6      	bne.n	8008048 <memchr+0x6>
 800805a:	4618      	mov	r0, r3
 800805c:	bd10      	pop	{r4, pc}

0800805e <memmove>:
 800805e:	4288      	cmp	r0, r1
 8008060:	b510      	push	{r4, lr}
 8008062:	eb01 0302 	add.w	r3, r1, r2
 8008066:	d807      	bhi.n	8008078 <memmove+0x1a>
 8008068:	1e42      	subs	r2, r0, #1
 800806a:	4299      	cmp	r1, r3
 800806c:	d00a      	beq.n	8008084 <memmove+0x26>
 800806e:	f811 4b01 	ldrb.w	r4, [r1], #1
 8008072:	f802 4f01 	strb.w	r4, [r2, #1]!
 8008076:	e7f8      	b.n	800806a <memmove+0xc>
 8008078:	4283      	cmp	r3, r0
 800807a:	d9f5      	bls.n	8008068 <memmove+0xa>
 800807c:	1881      	adds	r1, r0, r2
 800807e:	1ad2      	subs	r2, r2, r3
 8008080:	42d3      	cmn	r3, r2
 8008082:	d100      	bne.n	8008086 <memmove+0x28>
 8008084:	bd10      	pop	{r4, pc}
 8008086:	f813 4d01 	ldrb.w	r4, [r3, #-1]!
 800808a:	f801 4d01 	strb.w	r4, [r1, #-1]!
 800808e:	e7f7      	b.n	8008080 <memmove+0x22>

08008090 <_realloc_r>:
 8008090:	b5f8      	push	{r3, r4, r5, r6, r7, lr}
 8008092:	4607      	mov	r7, r0
 8008094:	4614      	mov	r4, r2
 8008096:	460e      	mov	r6, r1
 8008098:	b921      	cbnz	r1, 80080a4 <_realloc_r+0x14>
 800809a:	e8bd 40f8 	ldmia.w	sp!, {r3, r4, r5, r6, r7, lr}
 800809e:	4611      	mov	r1, r2
 80080a0:	f7ff bb10 	b.w	80076c4 <_malloc_r>
 80080a4:	b922      	cbnz	r2, 80080b0 <_realloc_r+0x20>
 80080a6:	f7ff fac1 	bl	800762c <_free_r>
 80080aa:	4625      	mov	r5, r4
 80080ac:	4628      	mov	r0, r5
 80080ae:	bdf8      	pop	{r3, r4, r5, r6, r7, pc}
 80080b0:	f000 f814 	bl	80080dc <_malloc_usable_size_r>
 80080b4:	42a0      	cmp	r0, r4
 80080b6:	d20f      	bcs.n	80080d8 <_realloc_r+0x48>
 80080b8:	4621      	mov	r1, r4
 80080ba:	4638      	mov	r0, r7
 80080bc:	f7ff fb02 	bl	80076c4 <_malloc_r>
 80080c0:	4605      	mov	r5, r0
 80080c2:	2800      	cmp	r0, #0
 80080c4:	d0f2      	beq.n	80080ac <_realloc_r+0x1c>
 80080c6:	4631      	mov	r1, r6
 80080c8:	4622      	mov	r2, r4
 80080ca:	f7ff fa8d 	bl	80075e8 <memcpy>
 80080ce:	4631      	mov	r1, r6
 80080d0:	4638      	mov	r0, r7
 80080d2:	f7ff faab 	bl	800762c <_free_r>
 80080d6:	e7e9      	b.n	80080ac <_realloc_r+0x1c>
 80080d8:	4635      	mov	r5, r6
 80080da:	e7e7      	b.n	80080ac <_realloc_r+0x1c>

080080dc <_malloc_usable_size_r>:
 80080dc:	f851 3c04 	ldr.w	r3, [r1, #-4]
 80080e0:	1f18      	subs	r0, r3, #4
 80080e2:	2b00      	cmp	r3, #0
 80080e4:	bfbc      	itt	lt
 80080e6:	580b      	ldrlt	r3, [r1, r0]
 80080e8:	18c0      	addlt	r0, r0, r3
 80080ea:	4770      	bx	lr

080080ec <round>:
 80080ec:	b5f8      	push	{r3, r4, r5, r6, r7, lr}
 80080ee:	f3c1 570a 	ubfx	r7, r1, #20, #11
 80080f2:	f2a7 34ff 	subw	r4, r7, #1023	; 0x3ff
 80080f6:	2c13      	cmp	r4, #19
 80080f8:	4606      	mov	r6, r0
 80080fa:	460d      	mov	r5, r1
 80080fc:	460b      	mov	r3, r1
 80080fe:	468c      	mov	ip, r1
 8008100:	4602      	mov	r2, r0
 8008102:	dc17      	bgt.n	8008134 <round+0x48>
 8008104:	2c00      	cmp	r4, #0
 8008106:	da09      	bge.n	800811c <round+0x30>
 8008108:	3401      	adds	r4, #1
 800810a:	f001 4300 	and.w	r3, r1, #2147483648	; 0x80000000
 800810e:	d103      	bne.n	8008118 <round+0x2c>
 8008110:	f043 537f 	orr.w	r3, r3, #1069547520	; 0x3fc00000
 8008114:	f443 1340 	orr.w	r3, r3, #3145728	; 0x300000
 8008118:	2200      	movs	r2, #0
 800811a:	e028      	b.n	800816e <round+0x82>
 800811c:	4915      	ldr	r1, [pc, #84]	; (8008174 <round+0x88>)
 800811e:	4121      	asrs	r1, r4
 8008120:	420d      	tst	r5, r1
 8008122:	d100      	bne.n	8008126 <round+0x3a>
 8008124:	b178      	cbz	r0, 8008146 <round+0x5a>
 8008126:	f44f 2300 	mov.w	r3, #524288	; 0x80000
 800812a:	4123      	asrs	r3, r4
 800812c:	4463      	add	r3, ip
 800812e:	ea23 0301 	bic.w	r3, r3, r1
 8008132:	e7f1      	b.n	8008118 <round+0x2c>
 8008134:	2c33      	cmp	r4, #51	; 0x33
 8008136:	dd09      	ble.n	800814c <round+0x60>
 8008138:	f5b4 6f80 	cmp.w	r4, #1024	; 0x400
 800813c:	d103      	bne.n	8008146 <round+0x5a>
 800813e:	f7f8 f815 	bl	800016c <__adddf3>
 8008142:	4606      	mov	r6, r0
 8008144:	460d      	mov	r5, r1
 8008146:	4630      	mov	r0, r6
 8008148:	4629      	mov	r1, r5
 800814a:	bdf8      	pop	{r3, r4, r5, r6, r7, pc}
 800814c:	f04f 30ff 	mov.w	r0, #4294967295
 8008150:	f2a7 4713 	subw	r7, r7, #1043	; 0x413
 8008154:	40f8      	lsrs	r0, r7
 8008156:	4206      	tst	r6, r0
 8008158:	d0f5      	beq.n	8008146 <round+0x5a>
 800815a:	2101      	movs	r1, #1
 800815c:	f1c4 0433 	rsb	r4, r4, #51	; 0x33
 8008160:	fa01 f404 	lsl.w	r4, r1, r4
 8008164:	1932      	adds	r2, r6, r4
 8008166:	bf28      	it	cs
 8008168:	185b      	addcs	r3, r3, r1
 800816a:	ea22 0200 	bic.w	r2, r2, r0
 800816e:	4619      	mov	r1, r3
 8008170:	4610      	mov	r0, r2
 8008172:	e7e6      	b.n	8008142 <round+0x56>
 8008174:	000fffff 	.word	0x000fffff

08008178 <sin>:
 8008178:	b530      	push	{r4, r5, lr}
 800817a:	4a1a      	ldr	r2, [pc, #104]	; (80081e4 <sin+0x6c>)
 800817c:	f021 4300 	bic.w	r3, r1, #2147483648	; 0x80000000
 8008180:	4293      	cmp	r3, r2
 8008182:	b087      	sub	sp, #28
 8008184:	dc06      	bgt.n	8008194 <sin+0x1c>
 8008186:	2300      	movs	r3, #0
 8008188:	2200      	movs	r2, #0
 800818a:	9300      	str	r3, [sp, #0]
 800818c:	2300      	movs	r3, #0
 800818e:	f001 fd3b 	bl	8009c08 <__kernel_sin>
 8008192:	e006      	b.n	80081a2 <sin+0x2a>
 8008194:	4a14      	ldr	r2, [pc, #80]	; (80081e8 <sin+0x70>)
 8008196:	4293      	cmp	r3, r2
 8008198:	dd05      	ble.n	80081a6 <sin+0x2e>
 800819a:	4602      	mov	r2, r0
 800819c:	460b      	mov	r3, r1
 800819e:	f7f7 ffe3 	bl	8000168 <__aeabi_dsub>
 80081a2:	b007      	add	sp, #28
 80081a4:	bd30      	pop	{r4, r5, pc}
 80081a6:	aa02      	add	r2, sp, #8
 80081a8:	f000 fe8a 	bl	8008ec0 <__ieee754_rem_pio2>
 80081ac:	e9dd 2304 	ldrd	r2, r3, [sp, #16]
 80081b0:	f000 0403 	and.w	r4, r0, #3
 80081b4:	2c01      	cmp	r4, #1
 80081b6:	e9dd 0102 	ldrd	r0, r1, [sp, #8]
 80081ba:	d005      	beq.n	80081c8 <sin+0x50>
 80081bc:	2c02      	cmp	r4, #2
 80081be:	d006      	beq.n	80081ce <sin+0x56>
 80081c0:	b964      	cbnz	r4, 80081dc <sin+0x64>
 80081c2:	2401      	movs	r4, #1
 80081c4:	9400      	str	r4, [sp, #0]
 80081c6:	e7e2      	b.n	800818e <sin+0x16>
 80081c8:	f001 f916 	bl	80093f8 <__kernel_cos>
 80081cc:	e7e9      	b.n	80081a2 <sin+0x2a>
 80081ce:	2401      	movs	r4, #1
 80081d0:	9400      	str	r4, [sp, #0]
 80081d2:	f001 fd19 	bl	8009c08 <__kernel_sin>
 80081d6:	f101 4100 	add.w	r1, r1, #2147483648	; 0x80000000
 80081da:	e7e2      	b.n	80081a2 <sin+0x2a>
 80081dc:	f001 f90c 	bl	80093f8 <__kernel_cos>
 80081e0:	e7f9      	b.n	80081d6 <sin+0x5e>
 80081e2:	bf00      	nop
 80081e4:	3fe921fb 	.word	0x3fe921fb
 80081e8:	7fefffff 	.word	0x7fefffff

080081ec <pow>:
 80081ec:	e92d 4ff0 	stmdb	sp!, {r4, r5, r6, r7, r8, r9, sl, fp, lr}
 80081f0:	b08f      	sub	sp, #60	; 0x3c
 80081f2:	461d      	mov	r5, r3
 80081f4:	4680      	mov	r8, r0
 80081f6:	4689      	mov	r9, r1
 80081f8:	4614      	mov	r4, r2
 80081fa:	f000 f955 	bl	80084a8 <__ieee754_pow>
 80081fe:	4fa1      	ldr	r7, [pc, #644]	; (8008484 <pow+0x298>)
 8008200:	e9cd 0100 	strd	r0, r1, [sp]
 8008204:	f997 3000 	ldrsb.w	r3, [r7]
 8008208:	463e      	mov	r6, r7
 800820a:	9302      	str	r3, [sp, #8]
 800820c:	3301      	adds	r3, #1
 800820e:	d05f      	beq.n	80082d0 <pow+0xe4>
 8008210:	4622      	mov	r2, r4
 8008212:	462b      	mov	r3, r5
 8008214:	4620      	mov	r0, r4
 8008216:	4629      	mov	r1, r5
 8008218:	f7f8 fbf8 	bl	8000a0c <__aeabi_dcmpun>
 800821c:	4682      	mov	sl, r0
 800821e:	2800      	cmp	r0, #0
 8008220:	d156      	bne.n	80082d0 <pow+0xe4>
 8008222:	4642      	mov	r2, r8
 8008224:	464b      	mov	r3, r9
 8008226:	4640      	mov	r0, r8
 8008228:	4649      	mov	r1, r9
 800822a:	f7f8 fbef 	bl	8000a0c <__aeabi_dcmpun>
 800822e:	9003      	str	r0, [sp, #12]
 8008230:	b1e8      	cbz	r0, 800826e <pow+0x82>
 8008232:	2200      	movs	r2, #0
 8008234:	2300      	movs	r3, #0
 8008236:	4620      	mov	r0, r4
 8008238:	4629      	mov	r1, r5
 800823a:	f7f8 fbb5 	bl	80009a8 <__aeabi_dcmpeq>
 800823e:	2800      	cmp	r0, #0
 8008240:	d046      	beq.n	80082d0 <pow+0xe4>
 8008242:	2301      	movs	r3, #1
 8008244:	2200      	movs	r2, #0
 8008246:	9304      	str	r3, [sp, #16]
 8008248:	4b8f      	ldr	r3, [pc, #572]	; (8008488 <pow+0x29c>)
 800824a:	f8cd a030 	str.w	sl, [sp, #48]	; 0x30
 800824e:	9305      	str	r3, [sp, #20]
 8008250:	4b8e      	ldr	r3, [pc, #568]	; (800848c <pow+0x2a0>)
 8008252:	e9cd 8906 	strd	r8, r9, [sp, #24]
 8008256:	e9cd 230a 	strd	r2, r3, [sp, #40]	; 0x28
 800825a:	9b02      	ldr	r3, [sp, #8]
 800825c:	e9cd 4508 	strd	r4, r5, [sp, #32]
 8008260:	2b02      	cmp	r3, #2
 8008262:	d031      	beq.n	80082c8 <pow+0xdc>
 8008264:	a804      	add	r0, sp, #16
 8008266:	f001 fe13 	bl	8009e90 <matherr>
 800826a:	bb38      	cbnz	r0, 80082bc <pow+0xd0>
 800826c:	e058      	b.n	8008320 <pow+0x134>
 800826e:	f04f 0a00 	mov.w	sl, #0
 8008272:	f04f 0b00 	mov.w	fp, #0
 8008276:	4652      	mov	r2, sl
 8008278:	465b      	mov	r3, fp
 800827a:	4640      	mov	r0, r8
 800827c:	4649      	mov	r1, r9
 800827e:	f7f8 fb93 	bl	80009a8 <__aeabi_dcmpeq>
 8008282:	2800      	cmp	r0, #0
 8008284:	d051      	beq.n	800832a <pow+0x13e>
 8008286:	4652      	mov	r2, sl
 8008288:	465b      	mov	r3, fp
 800828a:	4620      	mov	r0, r4
 800828c:	4629      	mov	r1, r5
 800828e:	f7f8 fb8b 	bl	80009a8 <__aeabi_dcmpeq>
 8008292:	4606      	mov	r6, r0
 8008294:	b308      	cbz	r0, 80082da <pow+0xee>
 8008296:	2301      	movs	r3, #1
 8008298:	9304      	str	r3, [sp, #16]
 800829a:	4b7b      	ldr	r3, [pc, #492]	; (8008488 <pow+0x29c>)
 800829c:	e9cd 8906 	strd	r8, r9, [sp, #24]
 80082a0:	9305      	str	r3, [sp, #20]
 80082a2:	9b03      	ldr	r3, [sp, #12]
 80082a4:	e9cd 4508 	strd	r4, r5, [sp, #32]
 80082a8:	930c      	str	r3, [sp, #48]	; 0x30
 80082aa:	9b02      	ldr	r3, [sp, #8]
 80082ac:	e9cd ab0a 	strd	sl, fp, [sp, #40]	; 0x28
 80082b0:	2b00      	cmp	r3, #0
 80082b2:	d0d7      	beq.n	8008264 <pow+0x78>
 80082b4:	2200      	movs	r2, #0
 80082b6:	4b75      	ldr	r3, [pc, #468]	; (800848c <pow+0x2a0>)
 80082b8:	e9cd 230a 	strd	r2, r3, [sp, #40]	; 0x28
 80082bc:	9b0c      	ldr	r3, [sp, #48]	; 0x30
 80082be:	b11b      	cbz	r3, 80082c8 <pow+0xdc>
 80082c0:	f7ff f958 	bl	8007574 <__errno>
 80082c4:	9b0c      	ldr	r3, [sp, #48]	; 0x30
 80082c6:	6003      	str	r3, [r0, #0]
 80082c8:	e9dd 340a 	ldrd	r3, r4, [sp, #40]	; 0x28
 80082cc:	e9cd 3400 	strd	r3, r4, [sp]
 80082d0:	e9dd 0100 	ldrd	r0, r1, [sp]
 80082d4:	b00f      	add	sp, #60	; 0x3c
 80082d6:	e8bd 8ff0 	ldmia.w	sp!, {r4, r5, r6, r7, r8, r9, sl, fp, pc}
 80082da:	4620      	mov	r0, r4
 80082dc:	4629      	mov	r1, r5
 80082de:	f001 fd4d 	bl	8009d7c <finite>
 80082e2:	2800      	cmp	r0, #0
 80082e4:	d0f4      	beq.n	80082d0 <pow+0xe4>
 80082e6:	4652      	mov	r2, sl
 80082e8:	465b      	mov	r3, fp
 80082ea:	4620      	mov	r0, r4
 80082ec:	4629      	mov	r1, r5
 80082ee:	f7f8 fb65 	bl	80009bc <__aeabi_dcmplt>
 80082f2:	2800      	cmp	r0, #0
 80082f4:	d0ec      	beq.n	80082d0 <pow+0xe4>
 80082f6:	2301      	movs	r3, #1
 80082f8:	9304      	str	r3, [sp, #16]
 80082fa:	4b63      	ldr	r3, [pc, #396]	; (8008488 <pow+0x29c>)
 80082fc:	960c      	str	r6, [sp, #48]	; 0x30
 80082fe:	9305      	str	r3, [sp, #20]
 8008300:	f997 3000 	ldrsb.w	r3, [r7]
 8008304:	e9cd 8906 	strd	r8, r9, [sp, #24]
 8008308:	e9cd 4508 	strd	r4, r5, [sp, #32]
 800830c:	b913      	cbnz	r3, 8008314 <pow+0x128>
 800830e:	e9cd ab0a 	strd	sl, fp, [sp, #40]	; 0x28
 8008312:	e7a7      	b.n	8008264 <pow+0x78>
 8008314:	2000      	movs	r0, #0
 8008316:	495e      	ldr	r1, [pc, #376]	; (8008490 <pow+0x2a4>)
 8008318:	2b02      	cmp	r3, #2
 800831a:	e9cd 010a 	strd	r0, r1, [sp, #40]	; 0x28
 800831e:	d1a1      	bne.n	8008264 <pow+0x78>
 8008320:	f7ff f928 	bl	8007574 <__errno>
 8008324:	2321      	movs	r3, #33	; 0x21
 8008326:	6003      	str	r3, [r0, #0]
 8008328:	e7c8      	b.n	80082bc <pow+0xd0>
 800832a:	e9dd 0100 	ldrd	r0, r1, [sp]
 800832e:	f001 fd25 	bl	8009d7c <finite>
 8008332:	9002      	str	r0, [sp, #8]
 8008334:	2800      	cmp	r0, #0
 8008336:	d177      	bne.n	8008428 <pow+0x23c>
 8008338:	4640      	mov	r0, r8
 800833a:	4649      	mov	r1, r9
 800833c:	f001 fd1e 	bl	8009d7c <finite>
 8008340:	2800      	cmp	r0, #0
 8008342:	d071      	beq.n	8008428 <pow+0x23c>
 8008344:	4620      	mov	r0, r4
 8008346:	4629      	mov	r1, r5
 8008348:	f001 fd18 	bl	8009d7c <finite>
 800834c:	2800      	cmp	r0, #0
 800834e:	d06b      	beq.n	8008428 <pow+0x23c>
 8008350:	e9dd 2300 	ldrd	r2, r3, [sp]
 8008354:	4619      	mov	r1, r3
 8008356:	4610      	mov	r0, r2
 8008358:	f7f8 fb58 	bl	8000a0c <__aeabi_dcmpun>
 800835c:	f997 7000 	ldrsb.w	r7, [r7]
 8008360:	4b49      	ldr	r3, [pc, #292]	; (8008488 <pow+0x29c>)
 8008362:	b1a0      	cbz	r0, 800838e <pow+0x1a2>
 8008364:	2201      	movs	r2, #1
 8008366:	e9cd 2304 	strd	r2, r3, [sp, #16]
 800836a:	9b02      	ldr	r3, [sp, #8]
 800836c:	e9cd 8906 	strd	r8, r9, [sp, #24]
 8008370:	930c      	str	r3, [sp, #48]	; 0x30
 8008372:	e9cd 4508 	strd	r4, r5, [sp, #32]
 8008376:	2f00      	cmp	r7, #0
 8008378:	d0c9      	beq.n	800830e <pow+0x122>
 800837a:	4652      	mov	r2, sl
 800837c:	465b      	mov	r3, fp
 800837e:	4650      	mov	r0, sl
 8008380:	4659      	mov	r1, fp
 8008382:	f7f8 f9d3 	bl	800072c <__aeabi_ddiv>
 8008386:	2f02      	cmp	r7, #2
 8008388:	e9cd 010a 	strd	r0, r1, [sp, #40]	; 0x28
 800838c:	e7c7      	b.n	800831e <pow+0x132>
 800838e:	2203      	movs	r2, #3
 8008390:	900c      	str	r0, [sp, #48]	; 0x30
 8008392:	e9cd 2304 	strd	r2, r3, [sp, #16]
 8008396:	4620      	mov	r0, r4
 8008398:	4629      	mov	r1, r5
 800839a:	2200      	movs	r2, #0
 800839c:	4b3d      	ldr	r3, [pc, #244]	; (8008494 <pow+0x2a8>)
 800839e:	e9cd 4508 	strd	r4, r5, [sp, #32]
 80083a2:	e9cd 8906 	strd	r8, r9, [sp, #24]
 80083a6:	f7f8 f897 	bl	80004d8 <__aeabi_dmul>
 80083aa:	4604      	mov	r4, r0
 80083ac:	460d      	mov	r5, r1
 80083ae:	bb17      	cbnz	r7, 80083f6 <pow+0x20a>
 80083b0:	f04f 4260 	mov.w	r2, #3758096384	; 0xe0000000
 80083b4:	4b38      	ldr	r3, [pc, #224]	; (8008498 <pow+0x2ac>)
 80083b6:	4640      	mov	r0, r8
 80083b8:	e9cd 230a 	strd	r2, r3, [sp, #40]	; 0x28
 80083bc:	4649      	mov	r1, r9
 80083be:	4652      	mov	r2, sl
 80083c0:	465b      	mov	r3, fp
 80083c2:	f7f8 fafb 	bl	80009bc <__aeabi_dcmplt>
 80083c6:	2800      	cmp	r0, #0
 80083c8:	d054      	beq.n	8008474 <pow+0x288>
 80083ca:	4620      	mov	r0, r4
 80083cc:	4629      	mov	r1, r5
 80083ce:	f001 fd67 	bl	8009ea0 <rint>
 80083d2:	4622      	mov	r2, r4
 80083d4:	462b      	mov	r3, r5
 80083d6:	f7f8 fae7 	bl	80009a8 <__aeabi_dcmpeq>
 80083da:	b920      	cbnz	r0, 80083e6 <pow+0x1fa>
 80083dc:	f04f 4260 	mov.w	r2, #3758096384	; 0xe0000000
 80083e0:	4b2e      	ldr	r3, [pc, #184]	; (800849c <pow+0x2b0>)
 80083e2:	e9cd 230a 	strd	r2, r3, [sp, #40]	; 0x28
 80083e6:	f996 3000 	ldrsb.w	r3, [r6]
 80083ea:	2b02      	cmp	r3, #2
 80083ec:	d142      	bne.n	8008474 <pow+0x288>
 80083ee:	f7ff f8c1 	bl	8007574 <__errno>
 80083f2:	2322      	movs	r3, #34	; 0x22
 80083f4:	e797      	b.n	8008326 <pow+0x13a>
 80083f6:	2200      	movs	r2, #0
 80083f8:	4b29      	ldr	r3, [pc, #164]	; (80084a0 <pow+0x2b4>)
 80083fa:	4640      	mov	r0, r8
 80083fc:	e9cd 230a 	strd	r2, r3, [sp, #40]	; 0x28
 8008400:	4649      	mov	r1, r9
 8008402:	4652      	mov	r2, sl
 8008404:	465b      	mov	r3, fp
 8008406:	f7f8 fad9 	bl	80009bc <__aeabi_dcmplt>
 800840a:	2800      	cmp	r0, #0
 800840c:	d0eb      	beq.n	80083e6 <pow+0x1fa>
 800840e:	4620      	mov	r0, r4
 8008410:	4629      	mov	r1, r5
 8008412:	f001 fd45 	bl	8009ea0 <rint>
 8008416:	4622      	mov	r2, r4
 8008418:	462b      	mov	r3, r5
 800841a:	f7f8 fac5 	bl	80009a8 <__aeabi_dcmpeq>
 800841e:	2800      	cmp	r0, #0
 8008420:	d1e1      	bne.n	80083e6 <pow+0x1fa>
 8008422:	2200      	movs	r2, #0
 8008424:	4b1a      	ldr	r3, [pc, #104]	; (8008490 <pow+0x2a4>)
 8008426:	e7dc      	b.n	80083e2 <pow+0x1f6>
 8008428:	2200      	movs	r2, #0
 800842a:	e9dd 0100 	ldrd	r0, r1, [sp]
 800842e:	2300      	movs	r3, #0
 8008430:	f7f8 faba 	bl	80009a8 <__aeabi_dcmpeq>
 8008434:	2800      	cmp	r0, #0
 8008436:	f43f af4b 	beq.w	80082d0 <pow+0xe4>
 800843a:	4640      	mov	r0, r8
 800843c:	4649      	mov	r1, r9
 800843e:	f001 fc9d 	bl	8009d7c <finite>
 8008442:	2800      	cmp	r0, #0
 8008444:	f43f af44 	beq.w	80082d0 <pow+0xe4>
 8008448:	4620      	mov	r0, r4
 800844a:	4629      	mov	r1, r5
 800844c:	f001 fc96 	bl	8009d7c <finite>
 8008450:	2800      	cmp	r0, #0
 8008452:	f43f af3d 	beq.w	80082d0 <pow+0xe4>
 8008456:	2304      	movs	r3, #4
 8008458:	9304      	str	r3, [sp, #16]
 800845a:	4b0b      	ldr	r3, [pc, #44]	; (8008488 <pow+0x29c>)
 800845c:	e9cd 4508 	strd	r4, r5, [sp, #32]
 8008460:	9305      	str	r3, [sp, #20]
 8008462:	2300      	movs	r3, #0
 8008464:	2400      	movs	r4, #0
 8008466:	930c      	str	r3, [sp, #48]	; 0x30
 8008468:	2300      	movs	r3, #0
 800846a:	e9cd 8906 	strd	r8, r9, [sp, #24]
 800846e:	e9cd 340a 	strd	r3, r4, [sp, #40]	; 0x28
 8008472:	e7b8      	b.n	80083e6 <pow+0x1fa>
 8008474:	a804      	add	r0, sp, #16
 8008476:	f001 fd0b 	bl	8009e90 <matherr>
 800847a:	2800      	cmp	r0, #0
 800847c:	f47f af1e 	bne.w	80082bc <pow+0xd0>
 8008480:	e7b5      	b.n	80083ee <pow+0x202>
 8008482:	bf00      	nop
 8008484:	20000264 	.word	0x20000264
 8008488:	0800b4de 	.word	0x0800b4de
 800848c:	3ff00000 	.word	0x3ff00000
 8008490:	fff00000 	.word	0xfff00000
 8008494:	3fe00000 	.word	0x3fe00000
 8008498:	47efffff 	.word	0x47efffff
 800849c:	c7efffff 	.word	0xc7efffff
 80084a0:	7ff00000 	.word	0x7ff00000
 80084a4:	00000000 	.word	0x00000000

080084a8 <__ieee754_pow>:
 80084a8:	e92d 4ff0 	stmdb	sp!, {r4, r5, r6, r7, r8, r9, sl, fp, lr}
 80084ac:	b091      	sub	sp, #68	; 0x44
 80084ae:	e9cd 2302 	strd	r2, r3, [sp, #8]
 80084b2:	e9dd 2602 	ldrd	r2, r6, [sp, #8]
 80084b6:	f026 4500 	bic.w	r5, r6, #2147483648	; 0x80000000
 80084ba:	ea55 0302 	orrs.w	r3, r5, r2
 80084be:	4607      	mov	r7, r0
 80084c0:	4688      	mov	r8, r1
 80084c2:	f000 84b7 	beq.w	8008e34 <__ieee754_pow+0x98c>
 80084c6:	4b80      	ldr	r3, [pc, #512]	; (80086c8 <__ieee754_pow+0x220>)
 80084c8:	f021 4400 	bic.w	r4, r1, #2147483648	; 0x80000000
 80084cc:	429c      	cmp	r4, r3
 80084ce:	4689      	mov	r9, r1
 80084d0:	4682      	mov	sl, r0
 80084d2:	dc09      	bgt.n	80084e8 <__ieee754_pow+0x40>
 80084d4:	d103      	bne.n	80084de <__ieee754_pow+0x36>
 80084d6:	b938      	cbnz	r0, 80084e8 <__ieee754_pow+0x40>
 80084d8:	42a5      	cmp	r5, r4
 80084da:	dc0d      	bgt.n	80084f8 <__ieee754_pow+0x50>
 80084dc:	e001      	b.n	80084e2 <__ieee754_pow+0x3a>
 80084de:	429d      	cmp	r5, r3
 80084e0:	dc02      	bgt.n	80084e8 <__ieee754_pow+0x40>
 80084e2:	429d      	cmp	r5, r3
 80084e4:	d10e      	bne.n	8008504 <__ieee754_pow+0x5c>
 80084e6:	b16a      	cbz	r2, 8008504 <__ieee754_pow+0x5c>
 80084e8:	f104 4440 	add.w	r4, r4, #3221225472	; 0xc0000000
 80084ec:	f504 1480 	add.w	r4, r4, #1048576	; 0x100000
 80084f0:	ea54 030a 	orrs.w	r3, r4, sl
 80084f4:	f000 849e 	beq.w	8008e34 <__ieee754_pow+0x98c>
 80084f8:	4874      	ldr	r0, [pc, #464]	; (80086cc <__ieee754_pow+0x224>)
 80084fa:	b011      	add	sp, #68	; 0x44
 80084fc:	e8bd 4ff0 	ldmia.w	sp!, {r4, r5, r6, r7, r8, r9, sl, fp, lr}
 8008500:	f001 bcc8 	b.w	8009e94 <nan>
 8008504:	f1b9 0f00 	cmp.w	r9, #0
 8008508:	da53      	bge.n	80085b2 <__ieee754_pow+0x10a>
 800850a:	4b71      	ldr	r3, [pc, #452]	; (80086d0 <__ieee754_pow+0x228>)
 800850c:	429d      	cmp	r5, r3
 800850e:	dc4e      	bgt.n	80085ae <__ieee754_pow+0x106>
 8008510:	f1a3 7354 	sub.w	r3, r3, #55574528	; 0x3500000
 8008514:	429d      	cmp	r5, r3
 8008516:	dd4c      	ble.n	80085b2 <__ieee754_pow+0x10a>
 8008518:	152b      	asrs	r3, r5, #20
 800851a:	f2a3 33ff 	subw	r3, r3, #1023	; 0x3ff
 800851e:	2b14      	cmp	r3, #20
 8008520:	dd28      	ble.n	8008574 <__ieee754_pow+0xcc>
 8008522:	f1c3 0334 	rsb	r3, r3, #52	; 0x34
 8008526:	fa22 f103 	lsr.w	r1, r2, r3
 800852a:	fa01 f303 	lsl.w	r3, r1, r3
 800852e:	4293      	cmp	r3, r2
 8008530:	d13f      	bne.n	80085b2 <__ieee754_pow+0x10a>
 8008532:	f001 0101 	and.w	r1, r1, #1
 8008536:	f1c1 0302 	rsb	r3, r1, #2
 800853a:	9300      	str	r3, [sp, #0]
 800853c:	2a00      	cmp	r2, #0
 800853e:	d15c      	bne.n	80085fa <__ieee754_pow+0x152>
 8008540:	4b61      	ldr	r3, [pc, #388]	; (80086c8 <__ieee754_pow+0x220>)
 8008542:	429d      	cmp	r5, r3
 8008544:	d126      	bne.n	8008594 <__ieee754_pow+0xec>
 8008546:	f104 4340 	add.w	r3, r4, #3221225472	; 0xc0000000
 800854a:	f503 1380 	add.w	r3, r3, #1048576	; 0x100000
 800854e:	ea53 030a 	orrs.w	r3, r3, sl
 8008552:	f000 846f 	beq.w	8008e34 <__ieee754_pow+0x98c>
 8008556:	4b5f      	ldr	r3, [pc, #380]	; (80086d4 <__ieee754_pow+0x22c>)
 8008558:	429c      	cmp	r4, r3
 800855a:	dd2c      	ble.n	80085b6 <__ieee754_pow+0x10e>
 800855c:	2e00      	cmp	r6, #0
 800855e:	f280 846f 	bge.w	8008e40 <__ieee754_pow+0x998>
 8008562:	f04f 0b00 	mov.w	fp, #0
 8008566:	f04f 0c00 	mov.w	ip, #0
 800856a:	4658      	mov	r0, fp
 800856c:	4661      	mov	r1, ip
 800856e:	b011      	add	sp, #68	; 0x44
 8008570:	e8bd 8ff0 	ldmia.w	sp!, {r4, r5, r6, r7, r8, r9, sl, fp, pc}
 8008574:	2a00      	cmp	r2, #0
 8008576:	d13e      	bne.n	80085f6 <__ieee754_pow+0x14e>
 8008578:	f1c3 0314 	rsb	r3, r3, #20
 800857c:	fa45 f103 	asr.w	r1, r5, r3
 8008580:	fa01 f303 	lsl.w	r3, r1, r3
 8008584:	42ab      	cmp	r3, r5
 8008586:	f040 8463 	bne.w	8008e50 <__ieee754_pow+0x9a8>
 800858a:	f001 0101 	and.w	r1, r1, #1
 800858e:	f1c1 0302 	rsb	r3, r1, #2
 8008592:	9300      	str	r3, [sp, #0]
 8008594:	4b50      	ldr	r3, [pc, #320]	; (80086d8 <__ieee754_pow+0x230>)
 8008596:	429d      	cmp	r5, r3
 8008598:	d114      	bne.n	80085c4 <__ieee754_pow+0x11c>
 800859a:	2e00      	cmp	r6, #0
 800859c:	f280 8454 	bge.w	8008e48 <__ieee754_pow+0x9a0>
 80085a0:	463a      	mov	r2, r7
 80085a2:	4643      	mov	r3, r8
 80085a4:	2000      	movs	r0, #0
 80085a6:	494c      	ldr	r1, [pc, #304]	; (80086d8 <__ieee754_pow+0x230>)
 80085a8:	f7f8 f8c0 	bl	800072c <__aeabi_ddiv>
 80085ac:	e013      	b.n	80085d6 <__ieee754_pow+0x12e>
 80085ae:	2302      	movs	r3, #2
 80085b0:	e7c3      	b.n	800853a <__ieee754_pow+0x92>
 80085b2:	2300      	movs	r3, #0
 80085b4:	e7c1      	b.n	800853a <__ieee754_pow+0x92>
 80085b6:	2e00      	cmp	r6, #0
 80085b8:	dad3      	bge.n	8008562 <__ieee754_pow+0xba>
 80085ba:	e9dd b302 	ldrd	fp, r3, [sp, #8]
 80085be:	f103 4c00 	add.w	ip, r3, #2147483648	; 0x80000000
 80085c2:	e7d2      	b.n	800856a <__ieee754_pow+0xc2>
 80085c4:	f1b6 4f80 	cmp.w	r6, #1073741824	; 0x40000000
 80085c8:	d108      	bne.n	80085dc <__ieee754_pow+0x134>
 80085ca:	463a      	mov	r2, r7
 80085cc:	4643      	mov	r3, r8
 80085ce:	4638      	mov	r0, r7
 80085d0:	4641      	mov	r1, r8
 80085d2:	f7f7 ff81 	bl	80004d8 <__aeabi_dmul>
 80085d6:	4683      	mov	fp, r0
 80085d8:	468c      	mov	ip, r1
 80085da:	e7c6      	b.n	800856a <__ieee754_pow+0xc2>
 80085dc:	4b3f      	ldr	r3, [pc, #252]	; (80086dc <__ieee754_pow+0x234>)
 80085de:	429e      	cmp	r6, r3
 80085e0:	d10b      	bne.n	80085fa <__ieee754_pow+0x152>
 80085e2:	f1b9 0f00 	cmp.w	r9, #0
 80085e6:	db08      	blt.n	80085fa <__ieee754_pow+0x152>
 80085e8:	4638      	mov	r0, r7
 80085ea:	4641      	mov	r1, r8
 80085ec:	b011      	add	sp, #68	; 0x44
 80085ee:	e8bd 4ff0 	ldmia.w	sp!, {r4, r5, r6, r7, r8, r9, sl, fp, lr}
 80085f2:	f000 be55 	b.w	80092a0 <__ieee754_sqrt>
 80085f6:	2300      	movs	r3, #0
 80085f8:	9300      	str	r3, [sp, #0]
 80085fa:	4638      	mov	r0, r7
 80085fc:	4641      	mov	r1, r8
 80085fe:	f001 fbb9 	bl	8009d74 <fabs>
 8008602:	4683      	mov	fp, r0
 8008604:	468c      	mov	ip, r1
 8008606:	f1ba 0f00 	cmp.w	sl, #0
 800860a:	d12b      	bne.n	8008664 <__ieee754_pow+0x1bc>
 800860c:	b124      	cbz	r4, 8008618 <__ieee754_pow+0x170>
 800860e:	4b32      	ldr	r3, [pc, #200]	; (80086d8 <__ieee754_pow+0x230>)
 8008610:	f029 4240 	bic.w	r2, r9, #3221225472	; 0xc0000000
 8008614:	429a      	cmp	r2, r3
 8008616:	d125      	bne.n	8008664 <__ieee754_pow+0x1bc>
 8008618:	2e00      	cmp	r6, #0
 800861a:	da07      	bge.n	800862c <__ieee754_pow+0x184>
 800861c:	465a      	mov	r2, fp
 800861e:	4663      	mov	r3, ip
 8008620:	2000      	movs	r0, #0
 8008622:	492d      	ldr	r1, [pc, #180]	; (80086d8 <__ieee754_pow+0x230>)
 8008624:	f7f8 f882 	bl	800072c <__aeabi_ddiv>
 8008628:	4683      	mov	fp, r0
 800862a:	468c      	mov	ip, r1
 800862c:	f1b9 0f00 	cmp.w	r9, #0
 8008630:	da9b      	bge.n	800856a <__ieee754_pow+0xc2>
 8008632:	f104 4440 	add.w	r4, r4, #3221225472	; 0xc0000000
 8008636:	9b00      	ldr	r3, [sp, #0]
 8008638:	f504 1480 	add.w	r4, r4, #1048576	; 0x100000
 800863c:	4323      	orrs	r3, r4
 800863e:	d108      	bne.n	8008652 <__ieee754_pow+0x1aa>
 8008640:	465a      	mov	r2, fp
 8008642:	4663      	mov	r3, ip
 8008644:	4658      	mov	r0, fp
 8008646:	4661      	mov	r1, ip
 8008648:	f7f7 fd8e 	bl	8000168 <__aeabi_dsub>
 800864c:	4602      	mov	r2, r0
 800864e:	460b      	mov	r3, r1
 8008650:	e7aa      	b.n	80085a8 <__ieee754_pow+0x100>
 8008652:	9b00      	ldr	r3, [sp, #0]
 8008654:	2b01      	cmp	r3, #1
 8008656:	d188      	bne.n	800856a <__ieee754_pow+0xc2>
 8008658:	4658      	mov	r0, fp
 800865a:	f10c 4300 	add.w	r3, ip, #2147483648	; 0x80000000
 800865e:	4683      	mov	fp, r0
 8008660:	469c      	mov	ip, r3
 8008662:	e782      	b.n	800856a <__ieee754_pow+0xc2>
 8008664:	ea4f 79d9 	mov.w	r9, r9, lsr #31
 8008668:	f109 33ff 	add.w	r3, r9, #4294967295
 800866c:	930d      	str	r3, [sp, #52]	; 0x34
 800866e:	9a0d      	ldr	r2, [sp, #52]	; 0x34
 8008670:	9b00      	ldr	r3, [sp, #0]
 8008672:	4313      	orrs	r3, r2
 8008674:	d104      	bne.n	8008680 <__ieee754_pow+0x1d8>
 8008676:	463a      	mov	r2, r7
 8008678:	4643      	mov	r3, r8
 800867a:	4638      	mov	r0, r7
 800867c:	4641      	mov	r1, r8
 800867e:	e7e3      	b.n	8008648 <__ieee754_pow+0x1a0>
 8008680:	4b17      	ldr	r3, [pc, #92]	; (80086e0 <__ieee754_pow+0x238>)
 8008682:	429d      	cmp	r5, r3
 8008684:	f340 80fe 	ble.w	8008884 <__ieee754_pow+0x3dc>
 8008688:	f103 7304 	add.w	r3, r3, #34603008	; 0x2100000
 800868c:	429d      	cmp	r5, r3
 800868e:	dd0b      	ble.n	80086a8 <__ieee754_pow+0x200>
 8008690:	4b10      	ldr	r3, [pc, #64]	; (80086d4 <__ieee754_pow+0x22c>)
 8008692:	429c      	cmp	r4, r3
 8008694:	dc0e      	bgt.n	80086b4 <__ieee754_pow+0x20c>
 8008696:	2e00      	cmp	r6, #0
 8008698:	f6bf af63 	bge.w	8008562 <__ieee754_pow+0xba>
 800869c:	a308      	add	r3, pc, #32	; (adr r3, 80086c0 <__ieee754_pow+0x218>)
 800869e:	e9d3 2300 	ldrd	r2, r3, [r3]
 80086a2:	4610      	mov	r0, r2
 80086a4:	4619      	mov	r1, r3
 80086a6:	e794      	b.n	80085d2 <__ieee754_pow+0x12a>
 80086a8:	4b0e      	ldr	r3, [pc, #56]	; (80086e4 <__ieee754_pow+0x23c>)
 80086aa:	429c      	cmp	r4, r3
 80086ac:	ddf3      	ble.n	8008696 <__ieee754_pow+0x1ee>
 80086ae:	4b0a      	ldr	r3, [pc, #40]	; (80086d8 <__ieee754_pow+0x230>)
 80086b0:	429c      	cmp	r4, r3
 80086b2:	dd19      	ble.n	80086e8 <__ieee754_pow+0x240>
 80086b4:	2e00      	cmp	r6, #0
 80086b6:	dcf1      	bgt.n	800869c <__ieee754_pow+0x1f4>
 80086b8:	e753      	b.n	8008562 <__ieee754_pow+0xba>
 80086ba:	bf00      	nop
 80086bc:	f3af 8000 	nop.w
 80086c0:	8800759c 	.word	0x8800759c
 80086c4:	7e37e43c 	.word	0x7e37e43c
 80086c8:	7ff00000 	.word	0x7ff00000
 80086cc:	0800a92f 	.word	0x0800a92f
 80086d0:	433fffff 	.word	0x433fffff
 80086d4:	3fefffff 	.word	0x3fefffff
 80086d8:	3ff00000 	.word	0x3ff00000
 80086dc:	3fe00000 	.word	0x3fe00000
 80086e0:	41e00000 	.word	0x41e00000
 80086e4:	3feffffe 	.word	0x3feffffe
 80086e8:	4661      	mov	r1, ip
 80086ea:	2200      	movs	r2, #0
 80086ec:	4b60      	ldr	r3, [pc, #384]	; (8008870 <__ieee754_pow+0x3c8>)
 80086ee:	4658      	mov	r0, fp
 80086f0:	f7f7 fd3a 	bl	8000168 <__aeabi_dsub>
 80086f4:	a354      	add	r3, pc, #336	; (adr r3, 8008848 <__ieee754_pow+0x3a0>)
 80086f6:	e9d3 2300 	ldrd	r2, r3, [r3]
 80086fa:	4604      	mov	r4, r0
 80086fc:	460d      	mov	r5, r1
 80086fe:	f7f7 feeb 	bl	80004d8 <__aeabi_dmul>
 8008702:	a353      	add	r3, pc, #332	; (adr r3, 8008850 <__ieee754_pow+0x3a8>)
 8008704:	e9d3 2300 	ldrd	r2, r3, [r3]
 8008708:	4606      	mov	r6, r0
 800870a:	460f      	mov	r7, r1
 800870c:	4620      	mov	r0, r4
 800870e:	4629      	mov	r1, r5
 8008710:	f7f7 fee2 	bl	80004d8 <__aeabi_dmul>
 8008714:	2200      	movs	r2, #0
 8008716:	4682      	mov	sl, r0
 8008718:	468b      	mov	fp, r1
 800871a:	4b56      	ldr	r3, [pc, #344]	; (8008874 <__ieee754_pow+0x3cc>)
 800871c:	4620      	mov	r0, r4
 800871e:	4629      	mov	r1, r5
 8008720:	f7f7 feda 	bl	80004d8 <__aeabi_dmul>
 8008724:	4602      	mov	r2, r0
 8008726:	460b      	mov	r3, r1
 8008728:	a14b      	add	r1, pc, #300	; (adr r1, 8008858 <__ieee754_pow+0x3b0>)
 800872a:	e9d1 0100 	ldrd	r0, r1, [r1]
 800872e:	f7f7 fd1b 	bl	8000168 <__aeabi_dsub>
 8008732:	4622      	mov	r2, r4
 8008734:	462b      	mov	r3, r5
 8008736:	f7f7 fecf 	bl	80004d8 <__aeabi_dmul>
 800873a:	4602      	mov	r2, r0
 800873c:	460b      	mov	r3, r1
 800873e:	2000      	movs	r0, #0
 8008740:	494d      	ldr	r1, [pc, #308]	; (8008878 <__ieee754_pow+0x3d0>)
 8008742:	f7f7 fd11 	bl	8000168 <__aeabi_dsub>
 8008746:	4622      	mov	r2, r4
 8008748:	462b      	mov	r3, r5
 800874a:	4680      	mov	r8, r0
 800874c:	4689      	mov	r9, r1
 800874e:	4620      	mov	r0, r4
 8008750:	4629      	mov	r1, r5
 8008752:	f7f7 fec1 	bl	80004d8 <__aeabi_dmul>
 8008756:	4602      	mov	r2, r0
 8008758:	460b      	mov	r3, r1
 800875a:	4640      	mov	r0, r8
 800875c:	4649      	mov	r1, r9
 800875e:	f7f7 febb 	bl	80004d8 <__aeabi_dmul>
 8008762:	a33f      	add	r3, pc, #252	; (adr r3, 8008860 <__ieee754_pow+0x3b8>)
 8008764:	e9d3 2300 	ldrd	r2, r3, [r3]
 8008768:	f7f7 feb6 	bl	80004d8 <__aeabi_dmul>
 800876c:	4602      	mov	r2, r0
 800876e:	460b      	mov	r3, r1
 8008770:	4650      	mov	r0, sl
 8008772:	4659      	mov	r1, fp
 8008774:	f7f7 fcf8 	bl	8000168 <__aeabi_dsub>
 8008778:	4602      	mov	r2, r0
 800877a:	460b      	mov	r3, r1
 800877c:	4604      	mov	r4, r0
 800877e:	460d      	mov	r5, r1
 8008780:	4630      	mov	r0, r6
 8008782:	4639      	mov	r1, r7
 8008784:	f7f7 fcf2 	bl	800016c <__adddf3>
 8008788:	2000      	movs	r0, #0
 800878a:	468b      	mov	fp, r1
 800878c:	4682      	mov	sl, r0
 800878e:	4632      	mov	r2, r6
 8008790:	463b      	mov	r3, r7
 8008792:	f7f7 fce9 	bl	8000168 <__aeabi_dsub>
 8008796:	4602      	mov	r2, r0
 8008798:	460b      	mov	r3, r1
 800879a:	4620      	mov	r0, r4
 800879c:	4629      	mov	r1, r5
 800879e:	f7f7 fce3 	bl	8000168 <__aeabi_dsub>
 80087a2:	9b00      	ldr	r3, [sp, #0]
 80087a4:	9a0d      	ldr	r2, [sp, #52]	; 0x34
 80087a6:	3b01      	subs	r3, #1
 80087a8:	4313      	orrs	r3, r2
 80087aa:	f04f 0300 	mov.w	r3, #0
 80087ae:	bf0c      	ite	eq
 80087b0:	4c32      	ldreq	r4, [pc, #200]	; (800887c <__ieee754_pow+0x3d4>)
 80087b2:	4c2f      	ldrne	r4, [pc, #188]	; (8008870 <__ieee754_pow+0x3c8>)
 80087b4:	4606      	mov	r6, r0
 80087b6:	e9cd 3400 	strd	r3, r4, [sp]
 80087ba:	e9dd 4502 	ldrd	r4, r5, [sp, #8]
 80087be:	2400      	movs	r4, #0
 80087c0:	460f      	mov	r7, r1
 80087c2:	e9dd 0102 	ldrd	r0, r1, [sp, #8]
 80087c6:	4622      	mov	r2, r4
 80087c8:	462b      	mov	r3, r5
 80087ca:	f7f7 fccd 	bl	8000168 <__aeabi_dsub>
 80087ce:	4652      	mov	r2, sl
 80087d0:	465b      	mov	r3, fp
 80087d2:	f7f7 fe81 	bl	80004d8 <__aeabi_dmul>
 80087d6:	e9dd 2302 	ldrd	r2, r3, [sp, #8]
 80087da:	4680      	mov	r8, r0
 80087dc:	4689      	mov	r9, r1
 80087de:	4630      	mov	r0, r6
 80087e0:	4639      	mov	r1, r7
 80087e2:	f7f7 fe79 	bl	80004d8 <__aeabi_dmul>
 80087e6:	4602      	mov	r2, r0
 80087e8:	460b      	mov	r3, r1
 80087ea:	4640      	mov	r0, r8
 80087ec:	4649      	mov	r1, r9
 80087ee:	f7f7 fcbd 	bl	800016c <__adddf3>
 80087f2:	4622      	mov	r2, r4
 80087f4:	462b      	mov	r3, r5
 80087f6:	4680      	mov	r8, r0
 80087f8:	4689      	mov	r9, r1
 80087fa:	4650      	mov	r0, sl
 80087fc:	4659      	mov	r1, fp
 80087fe:	f7f7 fe6b 	bl	80004d8 <__aeabi_dmul>
 8008802:	4604      	mov	r4, r0
 8008804:	460d      	mov	r5, r1
 8008806:	460b      	mov	r3, r1
 8008808:	4602      	mov	r2, r0
 800880a:	4649      	mov	r1, r9
 800880c:	4640      	mov	r0, r8
 800880e:	e9cd 4502 	strd	r4, r5, [sp, #8]
 8008812:	f7f7 fcab 	bl	800016c <__adddf3>
 8008816:	4b1a      	ldr	r3, [pc, #104]	; (8008880 <__ieee754_pow+0x3d8>)
 8008818:	4682      	mov	sl, r0
 800881a:	4299      	cmp	r1, r3
 800881c:	460f      	mov	r7, r1
 800881e:	460e      	mov	r6, r1
 8008820:	f340 82e1 	ble.w	8008de6 <__ieee754_pow+0x93e>
 8008824:	f101 433f 	add.w	r3, r1, #3204448256	; 0xbf000000
 8008828:	f503 03e0 	add.w	r3, r3, #7340032	; 0x700000
 800882c:	4303      	orrs	r3, r0
 800882e:	f000 81db 	beq.w	8008be8 <__ieee754_pow+0x740>
 8008832:	a30d      	add	r3, pc, #52	; (adr r3, 8008868 <__ieee754_pow+0x3c0>)
 8008834:	e9d3 2300 	ldrd	r2, r3, [r3]
 8008838:	e9dd 0100 	ldrd	r0, r1, [sp]
 800883c:	f7f7 fe4c 	bl	80004d8 <__aeabi_dmul>
 8008840:	a309      	add	r3, pc, #36	; (adr r3, 8008868 <__ieee754_pow+0x3c0>)
 8008842:	e9d3 2300 	ldrd	r2, r3, [r3]
 8008846:	e6c4      	b.n	80085d2 <__ieee754_pow+0x12a>
 8008848:	60000000 	.word	0x60000000
 800884c:	3ff71547 	.word	0x3ff71547
 8008850:	f85ddf44 	.word	0xf85ddf44
 8008854:	3e54ae0b 	.word	0x3e54ae0b
 8008858:	55555555 	.word	0x55555555
 800885c:	3fd55555 	.word	0x3fd55555
 8008860:	652b82fe 	.word	0x652b82fe
 8008864:	3ff71547 	.word	0x3ff71547
 8008868:	8800759c 	.word	0x8800759c
 800886c:	7e37e43c 	.word	0x7e37e43c
 8008870:	3ff00000 	.word	0x3ff00000
 8008874:	3fd00000 	.word	0x3fd00000
 8008878:	3fe00000 	.word	0x3fe00000
 800887c:	bff00000 	.word	0xbff00000
 8008880:	408fffff 	.word	0x408fffff
 8008884:	f5b4 1f80 	cmp.w	r4, #1048576	; 0x100000
 8008888:	f04f 0200 	mov.w	r2, #0
 800888c:	da08      	bge.n	80088a0 <__ieee754_pow+0x3f8>
 800888e:	4658      	mov	r0, fp
 8008890:	4bcd      	ldr	r3, [pc, #820]	; (8008bc8 <__ieee754_pow+0x720>)
 8008892:	4661      	mov	r1, ip
 8008894:	f7f7 fe20 	bl	80004d8 <__aeabi_dmul>
 8008898:	f06f 0234 	mvn.w	r2, #52	; 0x34
 800889c:	4683      	mov	fp, r0
 800889e:	460c      	mov	r4, r1
 80088a0:	1523      	asrs	r3, r4, #20
 80088a2:	f2a3 33ff 	subw	r3, r3, #1023	; 0x3ff
 80088a6:	4413      	add	r3, r2
 80088a8:	930c      	str	r3, [sp, #48]	; 0x30
 80088aa:	4bc8      	ldr	r3, [pc, #800]	; (8008bcc <__ieee754_pow+0x724>)
 80088ac:	f3c4 0413 	ubfx	r4, r4, #0, #20
 80088b0:	f044 557f 	orr.w	r5, r4, #1069547520	; 0x3fc00000
 80088b4:	429c      	cmp	r4, r3
 80088b6:	f445 1540 	orr.w	r5, r5, #3145728	; 0x300000
 80088ba:	dd08      	ble.n	80088ce <__ieee754_pow+0x426>
 80088bc:	4bc4      	ldr	r3, [pc, #784]	; (8008bd0 <__ieee754_pow+0x728>)
 80088be:	429c      	cmp	r4, r3
 80088c0:	f340 815b 	ble.w	8008b7a <__ieee754_pow+0x6d2>
 80088c4:	9b0c      	ldr	r3, [sp, #48]	; 0x30
 80088c6:	f5a5 1580 	sub.w	r5, r5, #1048576	; 0x100000
 80088ca:	3301      	adds	r3, #1
 80088cc:	930c      	str	r3, [sp, #48]	; 0x30
 80088ce:	f04f 0800 	mov.w	r8, #0
 80088d2:	4658      	mov	r0, fp
 80088d4:	4629      	mov	r1, r5
 80088d6:	4bbf      	ldr	r3, [pc, #764]	; (8008bd4 <__ieee754_pow+0x72c>)
 80088d8:	ea4f 09c8 	mov.w	r9, r8, lsl #3
 80088dc:	444b      	add	r3, r9
 80088de:	e9d3 3400 	ldrd	r3, r4, [r3]
 80088e2:	e9cd 3408 	strd	r3, r4, [sp, #32]
 80088e6:	461a      	mov	r2, r3
 80088e8:	4623      	mov	r3, r4
 80088ea:	e9cd 010a 	strd	r0, r1, [sp, #40]	; 0x28
 80088ee:	f7f7 fc3b 	bl	8000168 <__aeabi_dsub>
 80088f2:	e9dd 230a 	ldrd	r2, r3, [sp, #40]	; 0x28
 80088f6:	4606      	mov	r6, r0
 80088f8:	460f      	mov	r7, r1
 80088fa:	e9dd 0108 	ldrd	r0, r1, [sp, #32]
 80088fe:	f7f7 fc35 	bl	800016c <__adddf3>
 8008902:	4602      	mov	r2, r0
 8008904:	460b      	mov	r3, r1
 8008906:	2000      	movs	r0, #0
 8008908:	49b3      	ldr	r1, [pc, #716]	; (8008bd8 <__ieee754_pow+0x730>)
 800890a:	f7f7 ff0f 	bl	800072c <__aeabi_ddiv>
 800890e:	e9cd 010e 	strd	r0, r1, [sp, #56]	; 0x38
 8008912:	4602      	mov	r2, r0
 8008914:	460b      	mov	r3, r1
 8008916:	4630      	mov	r0, r6
 8008918:	4639      	mov	r1, r7
 800891a:	f7f7 fddd 	bl	80004d8 <__aeabi_dmul>
 800891e:	e9cd 0106 	strd	r0, r1, [sp, #24]
 8008922:	e9dd 3406 	ldrd	r3, r4, [sp, #24]
 8008926:	e9cd 3404 	strd	r3, r4, [sp, #16]
 800892a:	2300      	movs	r3, #0
 800892c:	2200      	movs	r2, #0
 800892e:	106d      	asrs	r5, r5, #1
 8008930:	f045 5500 	orr.w	r5, r5, #536870912	; 0x20000000
 8008934:	9304      	str	r3, [sp, #16]
 8008936:	f505 2500 	add.w	r5, r5, #524288	; 0x80000
 800893a:	e9dd ab04 	ldrd	sl, fp, [sp, #16]
 800893e:	eb05 4388 	add.w	r3, r5, r8, lsl #18
 8008942:	4650      	mov	r0, sl
 8008944:	4659      	mov	r1, fp
 8008946:	4614      	mov	r4, r2
 8008948:	461d      	mov	r5, r3
 800894a:	f7f7 fdc5 	bl	80004d8 <__aeabi_dmul>
 800894e:	4602      	mov	r2, r0
 8008950:	460b      	mov	r3, r1
 8008952:	4630      	mov	r0, r6
 8008954:	4639      	mov	r1, r7
 8008956:	f7f7 fc07 	bl	8000168 <__aeabi_dsub>
 800895a:	e9dd 2308 	ldrd	r2, r3, [sp, #32]
 800895e:	4606      	mov	r6, r0
 8008960:	460f      	mov	r7, r1
 8008962:	4620      	mov	r0, r4
 8008964:	4629      	mov	r1, r5
 8008966:	f7f7 fbff 	bl	8000168 <__aeabi_dsub>
 800896a:	4602      	mov	r2, r0
 800896c:	460b      	mov	r3, r1
 800896e:	e9dd 010a 	ldrd	r0, r1, [sp, #40]	; 0x28
 8008972:	f7f7 fbf9 	bl	8000168 <__aeabi_dsub>
 8008976:	4652      	mov	r2, sl
 8008978:	465b      	mov	r3, fp
 800897a:	f7f7 fdad 	bl	80004d8 <__aeabi_dmul>
 800897e:	4602      	mov	r2, r0
 8008980:	460b      	mov	r3, r1
 8008982:	4630      	mov	r0, r6
 8008984:	4639      	mov	r1, r7
 8008986:	f7f7 fbef 	bl	8000168 <__aeabi_dsub>
 800898a:	e9dd 230e 	ldrd	r2, r3, [sp, #56]	; 0x38
 800898e:	f7f7 fda3 	bl	80004d8 <__aeabi_dmul>
 8008992:	e9dd 2306 	ldrd	r2, r3, [sp, #24]
 8008996:	e9cd 0108 	strd	r0, r1, [sp, #32]
 800899a:	4610      	mov	r0, r2
 800899c:	4619      	mov	r1, r3
 800899e:	f7f7 fd9b 	bl	80004d8 <__aeabi_dmul>
 80089a2:	a377      	add	r3, pc, #476	; (adr r3, 8008b80 <__ieee754_pow+0x6d8>)
 80089a4:	e9d3 2300 	ldrd	r2, r3, [r3]
 80089a8:	4604      	mov	r4, r0
 80089aa:	460d      	mov	r5, r1
 80089ac:	f7f7 fd94 	bl	80004d8 <__aeabi_dmul>
 80089b0:	a375      	add	r3, pc, #468	; (adr r3, 8008b88 <__ieee754_pow+0x6e0>)
 80089b2:	e9d3 2300 	ldrd	r2, r3, [r3]
 80089b6:	f7f7 fbd9 	bl	800016c <__adddf3>
 80089ba:	4622      	mov	r2, r4
 80089bc:	462b      	mov	r3, r5
 80089be:	f7f7 fd8b 	bl	80004d8 <__aeabi_dmul>
 80089c2:	a373      	add	r3, pc, #460	; (adr r3, 8008b90 <__ieee754_pow+0x6e8>)
 80089c4:	e9d3 2300 	ldrd	r2, r3, [r3]
 80089c8:	f7f7 fbd0 	bl	800016c <__adddf3>
 80089cc:	4622      	mov	r2, r4
 80089ce:	462b      	mov	r3, r5
 80089d0:	f7f7 fd82 	bl	80004d8 <__aeabi_dmul>
 80089d4:	a370      	add	r3, pc, #448	; (adr r3, 8008b98 <__ieee754_pow+0x6f0>)
 80089d6:	e9d3 2300 	ldrd	r2, r3, [r3]
 80089da:	f7f7 fbc7 	bl	800016c <__adddf3>
 80089de:	4622      	mov	r2, r4
 80089e0:	462b      	mov	r3, r5
 80089e2:	f7f7 fd79 	bl	80004d8 <__aeabi_dmul>
 80089e6:	a36e      	add	r3, pc, #440	; (adr r3, 8008ba0 <__ieee754_pow+0x6f8>)
 80089e8:	e9d3 2300 	ldrd	r2, r3, [r3]
 80089ec:	f7f7 fbbe 	bl	800016c <__adddf3>
 80089f0:	4622      	mov	r2, r4
 80089f2:	462b      	mov	r3, r5
 80089f4:	f7f7 fd70 	bl	80004d8 <__aeabi_dmul>
 80089f8:	a36b      	add	r3, pc, #428	; (adr r3, 8008ba8 <__ieee754_pow+0x700>)
 80089fa:	e9d3 2300 	ldrd	r2, r3, [r3]
 80089fe:	f7f7 fbb5 	bl	800016c <__adddf3>
 8008a02:	4622      	mov	r2, r4
 8008a04:	4606      	mov	r6, r0
 8008a06:	460f      	mov	r7, r1
 8008a08:	462b      	mov	r3, r5
 8008a0a:	4620      	mov	r0, r4
 8008a0c:	4629      	mov	r1, r5
 8008a0e:	f7f7 fd63 	bl	80004d8 <__aeabi_dmul>
 8008a12:	4602      	mov	r2, r0
 8008a14:	460b      	mov	r3, r1
 8008a16:	4630      	mov	r0, r6
 8008a18:	4639      	mov	r1, r7
 8008a1a:	f7f7 fd5d 	bl	80004d8 <__aeabi_dmul>
 8008a1e:	4604      	mov	r4, r0
 8008a20:	460d      	mov	r5, r1
 8008a22:	e9dd 0106 	ldrd	r0, r1, [sp, #24]
 8008a26:	4652      	mov	r2, sl
 8008a28:	465b      	mov	r3, fp
 8008a2a:	f7f7 fb9f 	bl	800016c <__adddf3>
 8008a2e:	e9dd 2308 	ldrd	r2, r3, [sp, #32]
 8008a32:	f7f7 fd51 	bl	80004d8 <__aeabi_dmul>
 8008a36:	4622      	mov	r2, r4
 8008a38:	462b      	mov	r3, r5
 8008a3a:	f7f7 fb97 	bl	800016c <__adddf3>
 8008a3e:	4652      	mov	r2, sl
 8008a40:	4606      	mov	r6, r0
 8008a42:	460f      	mov	r7, r1
 8008a44:	465b      	mov	r3, fp
 8008a46:	4650      	mov	r0, sl
 8008a48:	4659      	mov	r1, fp
 8008a4a:	f7f7 fd45 	bl	80004d8 <__aeabi_dmul>
 8008a4e:	2200      	movs	r2, #0
 8008a50:	4b62      	ldr	r3, [pc, #392]	; (8008bdc <__ieee754_pow+0x734>)
 8008a52:	e9cd 010a 	strd	r0, r1, [sp, #40]	; 0x28
 8008a56:	f7f7 fb89 	bl	800016c <__adddf3>
 8008a5a:	4632      	mov	r2, r6
 8008a5c:	463b      	mov	r3, r7
 8008a5e:	f7f7 fb85 	bl	800016c <__adddf3>
 8008a62:	9804      	ldr	r0, [sp, #16]
 8008a64:	460d      	mov	r5, r1
 8008a66:	4604      	mov	r4, r0
 8008a68:	4602      	mov	r2, r0
 8008a6a:	460b      	mov	r3, r1
 8008a6c:	4650      	mov	r0, sl
 8008a6e:	4659      	mov	r1, fp
 8008a70:	f7f7 fd32 	bl	80004d8 <__aeabi_dmul>
 8008a74:	2200      	movs	r2, #0
 8008a76:	4682      	mov	sl, r0
 8008a78:	468b      	mov	fp, r1
 8008a7a:	4b58      	ldr	r3, [pc, #352]	; (8008bdc <__ieee754_pow+0x734>)
 8008a7c:	4620      	mov	r0, r4
 8008a7e:	4629      	mov	r1, r5
 8008a80:	f7f7 fb72 	bl	8000168 <__aeabi_dsub>
 8008a84:	e9dd 230a 	ldrd	r2, r3, [sp, #40]	; 0x28
 8008a88:	f7f7 fb6e 	bl	8000168 <__aeabi_dsub>
 8008a8c:	4602      	mov	r2, r0
 8008a8e:	460b      	mov	r3, r1
 8008a90:	4630      	mov	r0, r6
 8008a92:	4639      	mov	r1, r7
 8008a94:	f7f7 fb68 	bl	8000168 <__aeabi_dsub>
 8008a98:	e9dd 2306 	ldrd	r2, r3, [sp, #24]
 8008a9c:	f7f7 fd1c 	bl	80004d8 <__aeabi_dmul>
 8008aa0:	4622      	mov	r2, r4
 8008aa2:	4606      	mov	r6, r0
 8008aa4:	460f      	mov	r7, r1
 8008aa6:	e9dd 0108 	ldrd	r0, r1, [sp, #32]
 8008aaa:	462b      	mov	r3, r5
 8008aac:	f7f7 fd14 	bl	80004d8 <__aeabi_dmul>
 8008ab0:	4602      	mov	r2, r0
 8008ab2:	460b      	mov	r3, r1
 8008ab4:	4630      	mov	r0, r6
 8008ab6:	4639      	mov	r1, r7
 8008ab8:	f7f7 fb58 	bl	800016c <__adddf3>
 8008abc:	4606      	mov	r6, r0
 8008abe:	460f      	mov	r7, r1
 8008ac0:	4602      	mov	r2, r0
 8008ac2:	460b      	mov	r3, r1
 8008ac4:	4650      	mov	r0, sl
 8008ac6:	4659      	mov	r1, fp
 8008ac8:	f7f7 fb50 	bl	800016c <__adddf3>
 8008acc:	a338      	add	r3, pc, #224	; (adr r3, 8008bb0 <__ieee754_pow+0x708>)
 8008ace:	e9d3 2300 	ldrd	r2, r3, [r3]
 8008ad2:	9804      	ldr	r0, [sp, #16]
 8008ad4:	460d      	mov	r5, r1
 8008ad6:	4604      	mov	r4, r0
 8008ad8:	f7f7 fcfe 	bl	80004d8 <__aeabi_dmul>
 8008adc:	4652      	mov	r2, sl
 8008ade:	e9cd 0106 	strd	r0, r1, [sp, #24]
 8008ae2:	465b      	mov	r3, fp
 8008ae4:	4620      	mov	r0, r4
 8008ae6:	4629      	mov	r1, r5
 8008ae8:	f7f7 fb3e 	bl	8000168 <__aeabi_dsub>
 8008aec:	4602      	mov	r2, r0
 8008aee:	460b      	mov	r3, r1
 8008af0:	4630      	mov	r0, r6
 8008af2:	4639      	mov	r1, r7
 8008af4:	f7f7 fb38 	bl	8000168 <__aeabi_dsub>
 8008af8:	a32f      	add	r3, pc, #188	; (adr r3, 8008bb8 <__ieee754_pow+0x710>)
 8008afa:	e9d3 2300 	ldrd	r2, r3, [r3]
 8008afe:	f7f7 fceb 	bl	80004d8 <__aeabi_dmul>
 8008b02:	a32f      	add	r3, pc, #188	; (adr r3, 8008bc0 <__ieee754_pow+0x718>)
 8008b04:	e9d3 2300 	ldrd	r2, r3, [r3]
 8008b08:	4606      	mov	r6, r0
 8008b0a:	460f      	mov	r7, r1
 8008b0c:	4620      	mov	r0, r4
 8008b0e:	4629      	mov	r1, r5
 8008b10:	f7f7 fce2 	bl	80004d8 <__aeabi_dmul>
 8008b14:	4602      	mov	r2, r0
 8008b16:	460b      	mov	r3, r1
 8008b18:	4630      	mov	r0, r6
 8008b1a:	4639      	mov	r1, r7
 8008b1c:	f7f7 fb26 	bl	800016c <__adddf3>
 8008b20:	4b2f      	ldr	r3, [pc, #188]	; (8008be0 <__ieee754_pow+0x738>)
 8008b22:	444b      	add	r3, r9
 8008b24:	e9d3 2300 	ldrd	r2, r3, [r3]
 8008b28:	f7f7 fb20 	bl	800016c <__adddf3>
 8008b2c:	4604      	mov	r4, r0
 8008b2e:	980c      	ldr	r0, [sp, #48]	; 0x30
 8008b30:	460d      	mov	r5, r1
 8008b32:	f7f7 fc67 	bl	8000404 <__aeabi_i2d>
 8008b36:	4606      	mov	r6, r0
 8008b38:	460f      	mov	r7, r1
 8008b3a:	4b2a      	ldr	r3, [pc, #168]	; (8008be4 <__ieee754_pow+0x73c>)
 8008b3c:	4622      	mov	r2, r4
 8008b3e:	444b      	add	r3, r9
 8008b40:	e9d3 8900 	ldrd	r8, r9, [r3]
 8008b44:	462b      	mov	r3, r5
 8008b46:	e9dd 0106 	ldrd	r0, r1, [sp, #24]
 8008b4a:	f7f7 fb0f 	bl	800016c <__adddf3>
 8008b4e:	4642      	mov	r2, r8
 8008b50:	464b      	mov	r3, r9
 8008b52:	f7f7 fb0b 	bl	800016c <__adddf3>
 8008b56:	4632      	mov	r2, r6
 8008b58:	463b      	mov	r3, r7
 8008b5a:	f7f7 fb07 	bl	800016c <__adddf3>
 8008b5e:	9804      	ldr	r0, [sp, #16]
 8008b60:	4632      	mov	r2, r6
 8008b62:	463b      	mov	r3, r7
 8008b64:	4682      	mov	sl, r0
 8008b66:	468b      	mov	fp, r1
 8008b68:	f7f7 fafe 	bl	8000168 <__aeabi_dsub>
 8008b6c:	4642      	mov	r2, r8
 8008b6e:	464b      	mov	r3, r9
 8008b70:	f7f7 fafa 	bl	8000168 <__aeabi_dsub>
 8008b74:	e9dd 2306 	ldrd	r2, r3, [sp, #24]
 8008b78:	e60b      	b.n	8008792 <__ieee754_pow+0x2ea>
 8008b7a:	f04f 0801 	mov.w	r8, #1
 8008b7e:	e6a8      	b.n	80088d2 <__ieee754_pow+0x42a>
 8008b80:	4a454eef 	.word	0x4a454eef
 8008b84:	3fca7e28 	.word	0x3fca7e28
 8008b88:	93c9db65 	.word	0x93c9db65
 8008b8c:	3fcd864a 	.word	0x3fcd864a
 8008b90:	a91d4101 	.word	0xa91d4101
 8008b94:	3fd17460 	.word	0x3fd17460
 8008b98:	518f264d 	.word	0x518f264d
 8008b9c:	3fd55555 	.word	0x3fd55555
 8008ba0:	db6fabff 	.word	0xdb6fabff
 8008ba4:	3fdb6db6 	.word	0x3fdb6db6
 8008ba8:	33333303 	.word	0x33333303
 8008bac:	3fe33333 	.word	0x3fe33333
 8008bb0:	e0000000 	.word	0xe0000000
 8008bb4:	3feec709 	.word	0x3feec709
 8008bb8:	dc3a03fd 	.word	0xdc3a03fd
 8008bbc:	3feec709 	.word	0x3feec709
 8008bc0:	145b01f5 	.word	0x145b01f5
 8008bc4:	be3e2fe0 	.word	0xbe3e2fe0
 8008bc8:	43400000 	.word	0x43400000
 8008bcc:	0003988e 	.word	0x0003988e
 8008bd0:	000bb679 	.word	0x000bb679
 8008bd4:	0800b4e8 	.word	0x0800b4e8
 8008bd8:	3ff00000 	.word	0x3ff00000
 8008bdc:	40080000 	.word	0x40080000
 8008be0:	0800b508 	.word	0x0800b508
 8008be4:	0800b4f8 	.word	0x0800b4f8
 8008be8:	a39b      	add	r3, pc, #620	; (adr r3, 8008e58 <__ieee754_pow+0x9b0>)
 8008bea:	e9d3 2300 	ldrd	r2, r3, [r3]
 8008bee:	4640      	mov	r0, r8
 8008bf0:	4649      	mov	r1, r9
 8008bf2:	f7f7 fabb 	bl	800016c <__adddf3>
 8008bf6:	4622      	mov	r2, r4
 8008bf8:	e9cd 0104 	strd	r0, r1, [sp, #16]
 8008bfc:	462b      	mov	r3, r5
 8008bfe:	4650      	mov	r0, sl
 8008c00:	4639      	mov	r1, r7
 8008c02:	f7f7 fab1 	bl	8000168 <__aeabi_dsub>
 8008c06:	4602      	mov	r2, r0
 8008c08:	460b      	mov	r3, r1
 8008c0a:	e9dd 0104 	ldrd	r0, r1, [sp, #16]
 8008c0e:	f7f7 fef3 	bl	80009f8 <__aeabi_dcmpgt>
 8008c12:	2800      	cmp	r0, #0
 8008c14:	f47f ae0d 	bne.w	8008832 <__ieee754_pow+0x38a>
 8008c18:	4aa3      	ldr	r2, [pc, #652]	; (8008ea8 <__ieee754_pow+0xa00>)
 8008c1a:	f026 4300 	bic.w	r3, r6, #2147483648	; 0x80000000
 8008c1e:	4293      	cmp	r3, r2
 8008c20:	f340 8103 	ble.w	8008e2a <__ieee754_pow+0x982>
 8008c24:	f44f 1a80 	mov.w	sl, #1048576	; 0x100000
 8008c28:	2000      	movs	r0, #0
 8008c2a:	151b      	asrs	r3, r3, #20
 8008c2c:	f2a3 33fe 	subw	r3, r3, #1022	; 0x3fe
 8008c30:	fa4a f303 	asr.w	r3, sl, r3
 8008c34:	4433      	add	r3, r6
 8008c36:	f3c3 520a 	ubfx	r2, r3, #20, #11
 8008c3a:	4f9c      	ldr	r7, [pc, #624]	; (8008eac <__ieee754_pow+0xa04>)
 8008c3c:	f2a2 32ff 	subw	r2, r2, #1023	; 0x3ff
 8008c40:	4117      	asrs	r7, r2
 8008c42:	f3c3 0a13 	ubfx	sl, r3, #0, #20
 8008c46:	ea23 0107 	bic.w	r1, r3, r7
 8008c4a:	f1c2 0214 	rsb	r2, r2, #20
 8008c4e:	f44a 1a80 	orr.w	sl, sl, #1048576	; 0x100000
 8008c52:	fa4a fa02 	asr.w	sl, sl, r2
 8008c56:	2e00      	cmp	r6, #0
 8008c58:	4602      	mov	r2, r0
 8008c5a:	460b      	mov	r3, r1
 8008c5c:	4620      	mov	r0, r4
 8008c5e:	4629      	mov	r1, r5
 8008c60:	bfb8      	it	lt
 8008c62:	f1ca 0a00 	rsblt	sl, sl, #0
 8008c66:	f7f7 fa7f 	bl	8000168 <__aeabi_dsub>
 8008c6a:	e9cd 0102 	strd	r0, r1, [sp, #8]
 8008c6e:	e9dd 0102 	ldrd	r0, r1, [sp, #8]
 8008c72:	4642      	mov	r2, r8
 8008c74:	464b      	mov	r3, r9
 8008c76:	f7f7 fa79 	bl	800016c <__adddf3>
 8008c7a:	a379      	add	r3, pc, #484	; (adr r3, 8008e60 <__ieee754_pow+0x9b8>)
 8008c7c:	e9d3 2300 	ldrd	r2, r3, [r3]
 8008c80:	2000      	movs	r0, #0
 8008c82:	460d      	mov	r5, r1
 8008c84:	4604      	mov	r4, r0
 8008c86:	f7f7 fc27 	bl	80004d8 <__aeabi_dmul>
 8008c8a:	e9dd 2302 	ldrd	r2, r3, [sp, #8]
 8008c8e:	4606      	mov	r6, r0
 8008c90:	460f      	mov	r7, r1
 8008c92:	4620      	mov	r0, r4
 8008c94:	4629      	mov	r1, r5
 8008c96:	f7f7 fa67 	bl	8000168 <__aeabi_dsub>
 8008c9a:	4602      	mov	r2, r0
 8008c9c:	460b      	mov	r3, r1
 8008c9e:	4640      	mov	r0, r8
 8008ca0:	4649      	mov	r1, r9
 8008ca2:	f7f7 fa61 	bl	8000168 <__aeabi_dsub>
 8008ca6:	a370      	add	r3, pc, #448	; (adr r3, 8008e68 <__ieee754_pow+0x9c0>)
 8008ca8:	e9d3 2300 	ldrd	r2, r3, [r3]
 8008cac:	f7f7 fc14 	bl	80004d8 <__aeabi_dmul>
 8008cb0:	a36f      	add	r3, pc, #444	; (adr r3, 8008e70 <__ieee754_pow+0x9c8>)
 8008cb2:	e9d3 2300 	ldrd	r2, r3, [r3]
 8008cb6:	4680      	mov	r8, r0
 8008cb8:	4689      	mov	r9, r1
 8008cba:	4620      	mov	r0, r4
 8008cbc:	4629      	mov	r1, r5
 8008cbe:	f7f7 fc0b 	bl	80004d8 <__aeabi_dmul>
 8008cc2:	4602      	mov	r2, r0
 8008cc4:	460b      	mov	r3, r1
 8008cc6:	4640      	mov	r0, r8
 8008cc8:	4649      	mov	r1, r9
 8008cca:	f7f7 fa4f 	bl	800016c <__adddf3>
 8008cce:	4604      	mov	r4, r0
 8008cd0:	460d      	mov	r5, r1
 8008cd2:	4602      	mov	r2, r0
 8008cd4:	460b      	mov	r3, r1
 8008cd6:	4630      	mov	r0, r6
 8008cd8:	4639      	mov	r1, r7
 8008cda:	f7f7 fa47 	bl	800016c <__adddf3>
 8008cde:	4632      	mov	r2, r6
 8008ce0:	463b      	mov	r3, r7
 8008ce2:	4680      	mov	r8, r0
 8008ce4:	4689      	mov	r9, r1
 8008ce6:	f7f7 fa3f 	bl	8000168 <__aeabi_dsub>
 8008cea:	4602      	mov	r2, r0
 8008cec:	460b      	mov	r3, r1
 8008cee:	4620      	mov	r0, r4
 8008cf0:	4629      	mov	r1, r5
 8008cf2:	f7f7 fa39 	bl	8000168 <__aeabi_dsub>
 8008cf6:	4642      	mov	r2, r8
 8008cf8:	4606      	mov	r6, r0
 8008cfa:	460f      	mov	r7, r1
 8008cfc:	464b      	mov	r3, r9
 8008cfe:	4640      	mov	r0, r8
 8008d00:	4649      	mov	r1, r9
 8008d02:	f7f7 fbe9 	bl	80004d8 <__aeabi_dmul>
 8008d06:	a35c      	add	r3, pc, #368	; (adr r3, 8008e78 <__ieee754_pow+0x9d0>)
 8008d08:	e9d3 2300 	ldrd	r2, r3, [r3]
 8008d0c:	4604      	mov	r4, r0
 8008d0e:	460d      	mov	r5, r1
 8008d10:	f7f7 fbe2 	bl	80004d8 <__aeabi_dmul>
 8008d14:	a35a      	add	r3, pc, #360	; (adr r3, 8008e80 <__ieee754_pow+0x9d8>)
 8008d16:	e9d3 2300 	ldrd	r2, r3, [r3]
 8008d1a:	f7f7 fa25 	bl	8000168 <__aeabi_dsub>
 8008d1e:	4622      	mov	r2, r4
 8008d20:	462b      	mov	r3, r5
 8008d22:	f7f7 fbd9 	bl	80004d8 <__aeabi_dmul>
 8008d26:	a358      	add	r3, pc, #352	; (adr r3, 8008e88 <__ieee754_pow+0x9e0>)
 8008d28:	e9d3 2300 	ldrd	r2, r3, [r3]
 8008d2c:	f7f7 fa1e 	bl	800016c <__adddf3>
 8008d30:	4622      	mov	r2, r4
 8008d32:	462b      	mov	r3, r5
 8008d34:	f7f7 fbd0 	bl	80004d8 <__aeabi_dmul>
 8008d38:	a355      	add	r3, pc, #340	; (adr r3, 8008e90 <__ieee754_pow+0x9e8>)
 8008d3a:	e9d3 2300 	ldrd	r2, r3, [r3]
 8008d3e:	f7f7 fa13 	bl	8000168 <__aeabi_dsub>
 8008d42:	4622      	mov	r2, r4
 8008d44:	462b      	mov	r3, r5
 8008d46:	f7f7 fbc7 	bl	80004d8 <__aeabi_dmul>
 8008d4a:	a353      	add	r3, pc, #332	; (adr r3, 8008e98 <__ieee754_pow+0x9f0>)
 8008d4c:	e9d3 2300 	ldrd	r2, r3, [r3]
 8008d50:	f7f7 fa0c 	bl	800016c <__adddf3>
 8008d54:	4622      	mov	r2, r4
 8008d56:	462b      	mov	r3, r5
 8008d58:	f7f7 fbbe 	bl	80004d8 <__aeabi_dmul>
 8008d5c:	4602      	mov	r2, r0
 8008d5e:	460b      	mov	r3, r1
 8008d60:	4640      	mov	r0, r8
 8008d62:	4649      	mov	r1, r9
 8008d64:	f7f7 fa00 	bl	8000168 <__aeabi_dsub>
 8008d68:	4604      	mov	r4, r0
 8008d6a:	460d      	mov	r5, r1
 8008d6c:	4602      	mov	r2, r0
 8008d6e:	460b      	mov	r3, r1
 8008d70:	4640      	mov	r0, r8
 8008d72:	4649      	mov	r1, r9
 8008d74:	f7f7 fbb0 	bl	80004d8 <__aeabi_dmul>
 8008d78:	2200      	movs	r2, #0
 8008d7a:	e9cd 0102 	strd	r0, r1, [sp, #8]
 8008d7e:	f04f 4380 	mov.w	r3, #1073741824	; 0x40000000
 8008d82:	4620      	mov	r0, r4
 8008d84:	4629      	mov	r1, r5
 8008d86:	f7f7 f9ef 	bl	8000168 <__aeabi_dsub>
 8008d8a:	4602      	mov	r2, r0
 8008d8c:	460b      	mov	r3, r1
 8008d8e:	e9dd 0102 	ldrd	r0, r1, [sp, #8]
 8008d92:	f7f7 fccb 	bl	800072c <__aeabi_ddiv>
 8008d96:	4632      	mov	r2, r6
 8008d98:	4604      	mov	r4, r0
 8008d9a:	460d      	mov	r5, r1
 8008d9c:	463b      	mov	r3, r7
 8008d9e:	4640      	mov	r0, r8
 8008da0:	4649      	mov	r1, r9
 8008da2:	f7f7 fb99 	bl	80004d8 <__aeabi_dmul>
 8008da6:	4632      	mov	r2, r6
 8008da8:	463b      	mov	r3, r7
 8008daa:	f7f7 f9df 	bl	800016c <__adddf3>
 8008dae:	4602      	mov	r2, r0
 8008db0:	460b      	mov	r3, r1
 8008db2:	4620      	mov	r0, r4
 8008db4:	4629      	mov	r1, r5
 8008db6:	f7f7 f9d7 	bl	8000168 <__aeabi_dsub>
 8008dba:	4642      	mov	r2, r8
 8008dbc:	464b      	mov	r3, r9
 8008dbe:	f7f7 f9d3 	bl	8000168 <__aeabi_dsub>
 8008dc2:	4602      	mov	r2, r0
 8008dc4:	460b      	mov	r3, r1
 8008dc6:	2000      	movs	r0, #0
 8008dc8:	4939      	ldr	r1, [pc, #228]	; (8008eb0 <__ieee754_pow+0xa08>)
 8008dca:	f7f7 f9cd 	bl	8000168 <__aeabi_dsub>
 8008dce:	eb01 540a 	add.w	r4, r1, sl, lsl #20
 8008dd2:	f5b4 1f80 	cmp.w	r4, #1048576	; 0x100000
 8008dd6:	da2b      	bge.n	8008e30 <__ieee754_pow+0x988>
 8008dd8:	4652      	mov	r2, sl
 8008dda:	f001 f8ed 	bl	8009fb8 <scalbn>
 8008dde:	e9dd 2300 	ldrd	r2, r3, [sp]
 8008de2:	f7ff bbf6 	b.w	80085d2 <__ieee754_pow+0x12a>
 8008de6:	4b33      	ldr	r3, [pc, #204]	; (8008eb4 <__ieee754_pow+0xa0c>)
 8008de8:	f021 4700 	bic.w	r7, r1, #2147483648	; 0x80000000
 8008dec:	429f      	cmp	r7, r3
 8008dee:	f77f af13 	ble.w	8008c18 <__ieee754_pow+0x770>
 8008df2:	4b31      	ldr	r3, [pc, #196]	; (8008eb8 <__ieee754_pow+0xa10>)
 8008df4:	440b      	add	r3, r1
 8008df6:	4303      	orrs	r3, r0
 8008df8:	d00b      	beq.n	8008e12 <__ieee754_pow+0x96a>
 8008dfa:	a329      	add	r3, pc, #164	; (adr r3, 8008ea0 <__ieee754_pow+0x9f8>)
 8008dfc:	e9d3 2300 	ldrd	r2, r3, [r3]
 8008e00:	e9dd 0100 	ldrd	r0, r1, [sp]
 8008e04:	f7f7 fb68 	bl	80004d8 <__aeabi_dmul>
 8008e08:	a325      	add	r3, pc, #148	; (adr r3, 8008ea0 <__ieee754_pow+0x9f8>)
 8008e0a:	e9d3 2300 	ldrd	r2, r3, [r3]
 8008e0e:	f7ff bbe0 	b.w	80085d2 <__ieee754_pow+0x12a>
 8008e12:	4622      	mov	r2, r4
 8008e14:	462b      	mov	r3, r5
 8008e16:	f7f7 f9a7 	bl	8000168 <__aeabi_dsub>
 8008e1a:	4642      	mov	r2, r8
 8008e1c:	464b      	mov	r3, r9
 8008e1e:	f7f7 fde1 	bl	80009e4 <__aeabi_dcmpge>
 8008e22:	2800      	cmp	r0, #0
 8008e24:	f43f aef8 	beq.w	8008c18 <__ieee754_pow+0x770>
 8008e28:	e7e7      	b.n	8008dfa <__ieee754_pow+0x952>
 8008e2a:	f04f 0a00 	mov.w	sl, #0
 8008e2e:	e71e      	b.n	8008c6e <__ieee754_pow+0x7c6>
 8008e30:	4621      	mov	r1, r4
 8008e32:	e7d4      	b.n	8008dde <__ieee754_pow+0x936>
 8008e34:	f04f 0b00 	mov.w	fp, #0
 8008e38:	f8df c074 	ldr.w	ip, [pc, #116]	; 8008eb0 <__ieee754_pow+0xa08>
 8008e3c:	f7ff bb95 	b.w	800856a <__ieee754_pow+0xc2>
 8008e40:	e9dd bc02 	ldrd	fp, ip, [sp, #8]
 8008e44:	f7ff bb91 	b.w	800856a <__ieee754_pow+0xc2>
 8008e48:	4638      	mov	r0, r7
 8008e4a:	4641      	mov	r1, r8
 8008e4c:	f7ff bbc3 	b.w	80085d6 <__ieee754_pow+0x12e>
 8008e50:	9200      	str	r2, [sp, #0]
 8008e52:	f7ff bb9f 	b.w	8008594 <__ieee754_pow+0xec>
 8008e56:	bf00      	nop
 8008e58:	652b82fe 	.word	0x652b82fe
 8008e5c:	3c971547 	.word	0x3c971547
 8008e60:	00000000 	.word	0x00000000
 8008e64:	3fe62e43 	.word	0x3fe62e43
 8008e68:	fefa39ef 	.word	0xfefa39ef
 8008e6c:	3fe62e42 	.word	0x3fe62e42
 8008e70:	0ca86c39 	.word	0x0ca86c39
 8008e74:	be205c61 	.word	0xbe205c61
 8008e78:	72bea4d0 	.word	0x72bea4d0
 8008e7c:	3e663769 	.word	0x3e663769
 8008e80:	c5d26bf1 	.word	0xc5d26bf1
 8008e84:	3ebbbd41 	.word	0x3ebbbd41
 8008e88:	af25de2c 	.word	0xaf25de2c
 8008e8c:	3f11566a 	.word	0x3f11566a
 8008e90:	16bebd93 	.word	0x16bebd93
 8008e94:	3f66c16c 	.word	0x3f66c16c
 8008e98:	5555553e 	.word	0x5555553e
 8008e9c:	3fc55555 	.word	0x3fc55555
 8008ea0:	c2f8f359 	.word	0xc2f8f359
 8008ea4:	01a56e1f 	.word	0x01a56e1f
 8008ea8:	3fe00000 	.word	0x3fe00000
 8008eac:	000fffff 	.word	0x000fffff
 8008eb0:	3ff00000 	.word	0x3ff00000
 8008eb4:	4090cbff 	.word	0x4090cbff
 8008eb8:	3f6f3400 	.word	0x3f6f3400
 8008ebc:	00000000 	.word	0x00000000

08008ec0 <__ieee754_rem_pio2>:
 8008ec0:	e92d 4ff0 	stmdb	sp!, {r4, r5, r6, r7, r8, r9, sl, fp, lr}
 8008ec4:	4614      	mov	r4, r2
 8008ec6:	4ac2      	ldr	r2, [pc, #776]	; (80091d0 <__ieee754_rem_pio2+0x310>)
 8008ec8:	f021 4a00 	bic.w	sl, r1, #2147483648	; 0x80000000
 8008ecc:	4592      	cmp	sl, r2
 8008ece:	b08d      	sub	sp, #52	; 0x34
 8008ed0:	468b      	mov	fp, r1
 8008ed2:	dc07      	bgt.n	8008ee4 <__ieee754_rem_pio2+0x24>
 8008ed4:	2200      	movs	r2, #0
 8008ed6:	2300      	movs	r3, #0
 8008ed8:	e9c4 0100 	strd	r0, r1, [r4]
 8008edc:	e9c4 2302 	strd	r2, r3, [r4, #8]
 8008ee0:	2500      	movs	r5, #0
 8008ee2:	e023      	b.n	8008f2c <__ieee754_rem_pio2+0x6c>
 8008ee4:	4abb      	ldr	r2, [pc, #748]	; (80091d4 <__ieee754_rem_pio2+0x314>)
 8008ee6:	4592      	cmp	sl, r2
 8008ee8:	dc71      	bgt.n	8008fce <__ieee754_rem_pio2+0x10e>
 8008eea:	a3ab      	add	r3, pc, #684	; (adr r3, 8009198 <__ieee754_rem_pio2+0x2d8>)
 8008eec:	e9d3 2300 	ldrd	r2, r3, [r3]
 8008ef0:	2900      	cmp	r1, #0
 8008ef2:	4db9      	ldr	r5, [pc, #740]	; (80091d8 <__ieee754_rem_pio2+0x318>)
 8008ef4:	dd36      	ble.n	8008f64 <__ieee754_rem_pio2+0xa4>
 8008ef6:	f7f7 f937 	bl	8000168 <__aeabi_dsub>
 8008efa:	45aa      	cmp	sl, r5
 8008efc:	4606      	mov	r6, r0
 8008efe:	460f      	mov	r7, r1
 8008f00:	d018      	beq.n	8008f34 <__ieee754_rem_pio2+0x74>
 8008f02:	a3a7      	add	r3, pc, #668	; (adr r3, 80091a0 <__ieee754_rem_pio2+0x2e0>)
 8008f04:	e9d3 2300 	ldrd	r2, r3, [r3]
 8008f08:	f7f7 f92e 	bl	8000168 <__aeabi_dsub>
 8008f0c:	4602      	mov	r2, r0
 8008f0e:	460b      	mov	r3, r1
 8008f10:	4630      	mov	r0, r6
 8008f12:	e9c4 2300 	strd	r2, r3, [r4]
 8008f16:	4639      	mov	r1, r7
 8008f18:	f7f7 f926 	bl	8000168 <__aeabi_dsub>
 8008f1c:	a3a0      	add	r3, pc, #640	; (adr r3, 80091a0 <__ieee754_rem_pio2+0x2e0>)
 8008f1e:	e9d3 2300 	ldrd	r2, r3, [r3]
 8008f22:	f7f7 f921 	bl	8000168 <__aeabi_dsub>
 8008f26:	2501      	movs	r5, #1
 8008f28:	e9c4 0102 	strd	r0, r1, [r4, #8]
 8008f2c:	4628      	mov	r0, r5
 8008f2e:	b00d      	add	sp, #52	; 0x34
 8008f30:	e8bd 8ff0 	ldmia.w	sp!, {r4, r5, r6, r7, r8, r9, sl, fp, pc}
 8008f34:	a39c      	add	r3, pc, #624	; (adr r3, 80091a8 <__ieee754_rem_pio2+0x2e8>)
 8008f36:	e9d3 2300 	ldrd	r2, r3, [r3]
 8008f3a:	f7f7 f915 	bl	8000168 <__aeabi_dsub>
 8008f3e:	a39c      	add	r3, pc, #624	; (adr r3, 80091b0 <__ieee754_rem_pio2+0x2f0>)
 8008f40:	e9d3 2300 	ldrd	r2, r3, [r3]
 8008f44:	4606      	mov	r6, r0
 8008f46:	460f      	mov	r7, r1
 8008f48:	f7f7 f90e 	bl	8000168 <__aeabi_dsub>
 8008f4c:	4602      	mov	r2, r0
 8008f4e:	460b      	mov	r3, r1
 8008f50:	4630      	mov	r0, r6
 8008f52:	e9c4 2300 	strd	r2, r3, [r4]
 8008f56:	4639      	mov	r1, r7
 8008f58:	f7f7 f906 	bl	8000168 <__aeabi_dsub>
 8008f5c:	a394      	add	r3, pc, #592	; (adr r3, 80091b0 <__ieee754_rem_pio2+0x2f0>)
 8008f5e:	e9d3 2300 	ldrd	r2, r3, [r3]
 8008f62:	e7de      	b.n	8008f22 <__ieee754_rem_pio2+0x62>
 8008f64:	f7f7 f902 	bl	800016c <__adddf3>
 8008f68:	45aa      	cmp	sl, r5
 8008f6a:	4606      	mov	r6, r0
 8008f6c:	460f      	mov	r7, r1
 8008f6e:	d016      	beq.n	8008f9e <__ieee754_rem_pio2+0xde>
 8008f70:	a38b      	add	r3, pc, #556	; (adr r3, 80091a0 <__ieee754_rem_pio2+0x2e0>)
 8008f72:	e9d3 2300 	ldrd	r2, r3, [r3]
 8008f76:	f7f7 f8f9 	bl	800016c <__adddf3>
 8008f7a:	4602      	mov	r2, r0
 8008f7c:	460b      	mov	r3, r1
 8008f7e:	4630      	mov	r0, r6
 8008f80:	e9c4 2300 	strd	r2, r3, [r4]
 8008f84:	4639      	mov	r1, r7
 8008f86:	f7f7 f8ef 	bl	8000168 <__aeabi_dsub>
 8008f8a:	a385      	add	r3, pc, #532	; (adr r3, 80091a0 <__ieee754_rem_pio2+0x2e0>)
 8008f8c:	e9d3 2300 	ldrd	r2, r3, [r3]
 8008f90:	f7f7 f8ec 	bl	800016c <__adddf3>
 8008f94:	f04f 35ff 	mov.w	r5, #4294967295
 8008f98:	e9c4 0102 	strd	r0, r1, [r4, #8]
 8008f9c:	e7c6      	b.n	8008f2c <__ieee754_rem_pio2+0x6c>
 8008f9e:	a382      	add	r3, pc, #520	; (adr r3, 80091a8 <__ieee754_rem_pio2+0x2e8>)
 8008fa0:	e9d3 2300 	ldrd	r2, r3, [r3]
 8008fa4:	f7f7 f8e2 	bl	800016c <__adddf3>
 8008fa8:	a381      	add	r3, pc, #516	; (adr r3, 80091b0 <__ieee754_rem_pio2+0x2f0>)
 8008faa:	e9d3 2300 	ldrd	r2, r3, [r3]
 8008fae:	4606      	mov	r6, r0
 8008fb0:	460f      	mov	r7, r1
 8008fb2:	f7f7 f8db 	bl	800016c <__adddf3>
 8008fb6:	4602      	mov	r2, r0
 8008fb8:	460b      	mov	r3, r1
 8008fba:	4630      	mov	r0, r6
 8008fbc:	e9c4 2300 	strd	r2, r3, [r4]
 8008fc0:	4639      	mov	r1, r7
 8008fc2:	f7f7 f8d1 	bl	8000168 <__aeabi_dsub>
 8008fc6:	a37a      	add	r3, pc, #488	; (adr r3, 80091b0 <__ieee754_rem_pio2+0x2f0>)
 8008fc8:	e9d3 2300 	ldrd	r2, r3, [r3]
 8008fcc:	e7e0      	b.n	8008f90 <__ieee754_rem_pio2+0xd0>
 8008fce:	4a83      	ldr	r2, [pc, #524]	; (80091dc <__ieee754_rem_pio2+0x31c>)
 8008fd0:	4592      	cmp	sl, r2
 8008fd2:	f300 80d2 	bgt.w	800917a <__ieee754_rem_pio2+0x2ba>
 8008fd6:	f000 fecd 	bl	8009d74 <fabs>
 8008fda:	a377      	add	r3, pc, #476	; (adr r3, 80091b8 <__ieee754_rem_pio2+0x2f8>)
 8008fdc:	e9d3 2300 	ldrd	r2, r3, [r3]
 8008fe0:	4606      	mov	r6, r0
 8008fe2:	460f      	mov	r7, r1
 8008fe4:	f7f7 fa78 	bl	80004d8 <__aeabi_dmul>
 8008fe8:	2200      	movs	r2, #0
 8008fea:	4b7d      	ldr	r3, [pc, #500]	; (80091e0 <__ieee754_rem_pio2+0x320>)
 8008fec:	f7f7 f8be 	bl	800016c <__adddf3>
 8008ff0:	f7f7 fd22 	bl	8000a38 <__aeabi_d2iz>
 8008ff4:	4605      	mov	r5, r0
 8008ff6:	f7f7 fa05 	bl	8000404 <__aeabi_i2d>
 8008ffa:	a367      	add	r3, pc, #412	; (adr r3, 8009198 <__ieee754_rem_pio2+0x2d8>)
 8008ffc:	e9d3 2300 	ldrd	r2, r3, [r3]
 8009000:	e9cd 0102 	strd	r0, r1, [sp, #8]
 8009004:	f7f7 fa68 	bl	80004d8 <__aeabi_dmul>
 8009008:	4602      	mov	r2, r0
 800900a:	460b      	mov	r3, r1
 800900c:	4630      	mov	r0, r6
 800900e:	4639      	mov	r1, r7
 8009010:	f7f7 f8aa 	bl	8000168 <__aeabi_dsub>
 8009014:	a362      	add	r3, pc, #392	; (adr r3, 80091a0 <__ieee754_rem_pio2+0x2e0>)
 8009016:	e9d3 2300 	ldrd	r2, r3, [r3]
 800901a:	4606      	mov	r6, r0
 800901c:	460f      	mov	r7, r1
 800901e:	e9dd 0102 	ldrd	r0, r1, [sp, #8]
 8009022:	f7f7 fa59 	bl	80004d8 <__aeabi_dmul>
 8009026:	2d1f      	cmp	r5, #31
 8009028:	4680      	mov	r8, r0
 800902a:	4689      	mov	r9, r1
 800902c:	dc0e      	bgt.n	800904c <__ieee754_rem_pio2+0x18c>
 800902e:	4b6d      	ldr	r3, [pc, #436]	; (80091e4 <__ieee754_rem_pio2+0x324>)
 8009030:	1e6a      	subs	r2, r5, #1
 8009032:	f853 3022 	ldr.w	r3, [r3, r2, lsl #2]
 8009036:	4553      	cmp	r3, sl
 8009038:	d008      	beq.n	800904c <__ieee754_rem_pio2+0x18c>
 800903a:	4642      	mov	r2, r8
 800903c:	464b      	mov	r3, r9
 800903e:	4630      	mov	r0, r6
 8009040:	4639      	mov	r1, r7
 8009042:	f7f7 f891 	bl	8000168 <__aeabi_dsub>
 8009046:	e9c4 0100 	strd	r0, r1, [r4]
 800904a:	e011      	b.n	8009070 <__ieee754_rem_pio2+0x1b0>
 800904c:	464b      	mov	r3, r9
 800904e:	4642      	mov	r2, r8
 8009050:	4630      	mov	r0, r6
 8009052:	4639      	mov	r1, r7
 8009054:	f7f7 f888 	bl	8000168 <__aeabi_dsub>
 8009058:	ea4f 5a2a 	mov.w	sl, sl, asr #20
 800905c:	f3c1 530a 	ubfx	r3, r1, #20, #11
 8009060:	ebaa 0303 	sub.w	r3, sl, r3
 8009064:	2b10      	cmp	r3, #16
 8009066:	dc1f      	bgt.n	80090a8 <__ieee754_rem_pio2+0x1e8>
 8009068:	4602      	mov	r2, r0
 800906a:	460b      	mov	r3, r1
 800906c:	e9c4 2300 	strd	r2, r3, [r4]
 8009070:	e9d4 2a00 	ldrd	r2, sl, [r4]
 8009074:	4630      	mov	r0, r6
 8009076:	4653      	mov	r3, sl
 8009078:	4639      	mov	r1, r7
 800907a:	f7f7 f875 	bl	8000168 <__aeabi_dsub>
 800907e:	4642      	mov	r2, r8
 8009080:	464b      	mov	r3, r9
 8009082:	f7f7 f871 	bl	8000168 <__aeabi_dsub>
 8009086:	4602      	mov	r2, r0
 8009088:	460b      	mov	r3, r1
 800908a:	f1bb 0f00 	cmp.w	fp, #0
 800908e:	e9c4 2302 	strd	r2, r3, [r4, #8]
 8009092:	f6bf af4b 	bge.w	8008f2c <__ieee754_rem_pio2+0x6c>
 8009096:	f10a 4300 	add.w	r3, sl, #2147483648	; 0x80000000
 800909a:	e9c4 3001 	strd	r3, r0, [r4, #4]
 800909e:	f101 4100 	add.w	r1, r1, #2147483648	; 0x80000000
 80090a2:	60e1      	str	r1, [r4, #12]
 80090a4:	426d      	negs	r5, r5
 80090a6:	e741      	b.n	8008f2c <__ieee754_rem_pio2+0x6c>
 80090a8:	a33f      	add	r3, pc, #252	; (adr r3, 80091a8 <__ieee754_rem_pio2+0x2e8>)
 80090aa:	e9d3 2300 	ldrd	r2, r3, [r3]
 80090ae:	e9dd 0102 	ldrd	r0, r1, [sp, #8]
 80090b2:	f7f7 fa11 	bl	80004d8 <__aeabi_dmul>
 80090b6:	4680      	mov	r8, r0
 80090b8:	4689      	mov	r9, r1
 80090ba:	4602      	mov	r2, r0
 80090bc:	460b      	mov	r3, r1
 80090be:	4630      	mov	r0, r6
 80090c0:	4639      	mov	r1, r7
 80090c2:	f7f7 f851 	bl	8000168 <__aeabi_dsub>
 80090c6:	e9cd 0104 	strd	r0, r1, [sp, #16]
 80090ca:	4602      	mov	r2, r0
 80090cc:	460b      	mov	r3, r1
 80090ce:	4630      	mov	r0, r6
 80090d0:	4639      	mov	r1, r7
 80090d2:	f7f7 f849 	bl	8000168 <__aeabi_dsub>
 80090d6:	4642      	mov	r2, r8
 80090d8:	464b      	mov	r3, r9
 80090da:	f7f7 f845 	bl	8000168 <__aeabi_dsub>
 80090de:	a334      	add	r3, pc, #208	; (adr r3, 80091b0 <__ieee754_rem_pio2+0x2f0>)
 80090e0:	e9d3 2300 	ldrd	r2, r3, [r3]
 80090e4:	4606      	mov	r6, r0
 80090e6:	460f      	mov	r7, r1
 80090e8:	e9dd 0102 	ldrd	r0, r1, [sp, #8]
 80090ec:	f7f7 f9f4 	bl	80004d8 <__aeabi_dmul>
 80090f0:	4632      	mov	r2, r6
 80090f2:	463b      	mov	r3, r7
 80090f4:	f7f7 f838 	bl	8000168 <__aeabi_dsub>
 80090f8:	460b      	mov	r3, r1
 80090fa:	4602      	mov	r2, r0
 80090fc:	4680      	mov	r8, r0
 80090fe:	4689      	mov	r9, r1
 8009100:	e9dd 0104 	ldrd	r0, r1, [sp, #16]
 8009104:	f7f7 f830 	bl	8000168 <__aeabi_dsub>
 8009108:	f3c1 530a 	ubfx	r3, r1, #20, #11
 800910c:	ebaa 0a03 	sub.w	sl, sl, r3
 8009110:	f1ba 0f31 	cmp.w	sl, #49	; 0x31
 8009114:	dc06      	bgt.n	8009124 <__ieee754_rem_pio2+0x264>
 8009116:	e9dd 6704 	ldrd	r6, r7, [sp, #16]
 800911a:	4602      	mov	r2, r0
 800911c:	460b      	mov	r3, r1
 800911e:	e9c4 2300 	strd	r2, r3, [r4]
 8009122:	e7a5      	b.n	8009070 <__ieee754_rem_pio2+0x1b0>
 8009124:	a326      	add	r3, pc, #152	; (adr r3, 80091c0 <__ieee754_rem_pio2+0x300>)
 8009126:	e9d3 2300 	ldrd	r2, r3, [r3]
 800912a:	e9dd 0102 	ldrd	r0, r1, [sp, #8]
 800912e:	f7f7 f9d3 	bl	80004d8 <__aeabi_dmul>
 8009132:	4680      	mov	r8, r0
 8009134:	4689      	mov	r9, r1
 8009136:	4602      	mov	r2, r0
 8009138:	460b      	mov	r3, r1
 800913a:	e9dd 0104 	ldrd	r0, r1, [sp, #16]
 800913e:	f7f7 f813 	bl	8000168 <__aeabi_dsub>
 8009142:	4602      	mov	r2, r0
 8009144:	460b      	mov	r3, r1
 8009146:	4606      	mov	r6, r0
 8009148:	460f      	mov	r7, r1
 800914a:	e9dd 0104 	ldrd	r0, r1, [sp, #16]
 800914e:	f7f7 f80b 	bl	8000168 <__aeabi_dsub>
 8009152:	4642      	mov	r2, r8
 8009154:	464b      	mov	r3, r9
 8009156:	f7f7 f807 	bl	8000168 <__aeabi_dsub>
 800915a:	a31b      	add	r3, pc, #108	; (adr r3, 80091c8 <__ieee754_rem_pio2+0x308>)
 800915c:	e9d3 2300 	ldrd	r2, r3, [r3]
 8009160:	4680      	mov	r8, r0
 8009162:	4689      	mov	r9, r1
 8009164:	e9dd 0102 	ldrd	r0, r1, [sp, #8]
 8009168:	f7f7 f9b6 	bl	80004d8 <__aeabi_dmul>
 800916c:	4642      	mov	r2, r8
 800916e:	464b      	mov	r3, r9
 8009170:	f7f6 fffa 	bl	8000168 <__aeabi_dsub>
 8009174:	4680      	mov	r8, r0
 8009176:	4689      	mov	r9, r1
 8009178:	e75f      	b.n	800903a <__ieee754_rem_pio2+0x17a>
 800917a:	4a1b      	ldr	r2, [pc, #108]	; (80091e8 <__ieee754_rem_pio2+0x328>)
 800917c:	4592      	cmp	sl, r2
 800917e:	dd35      	ble.n	80091ec <__ieee754_rem_pio2+0x32c>
 8009180:	4602      	mov	r2, r0
 8009182:	460b      	mov	r3, r1
 8009184:	f7f6 fff0 	bl	8000168 <__aeabi_dsub>
 8009188:	e9c4 0102 	strd	r0, r1, [r4, #8]
 800918c:	e9c4 0100 	strd	r0, r1, [r4]
 8009190:	e6a6      	b.n	8008ee0 <__ieee754_rem_pio2+0x20>
 8009192:	bf00      	nop
 8009194:	f3af 8000 	nop.w
 8009198:	54400000 	.word	0x54400000
 800919c:	3ff921fb 	.word	0x3ff921fb
 80091a0:	1a626331 	.word	0x1a626331
 80091a4:	3dd0b461 	.word	0x3dd0b461
 80091a8:	1a600000 	.word	0x1a600000
 80091ac:	3dd0b461 	.word	0x3dd0b461
 80091b0:	2e037073 	.word	0x2e037073
 80091b4:	3ba3198a 	.word	0x3ba3198a
 80091b8:	6dc9c883 	.word	0x6dc9c883
 80091bc:	3fe45f30 	.word	0x3fe45f30
 80091c0:	2e000000 	.word	0x2e000000
 80091c4:	3ba3198a 	.word	0x3ba3198a
 80091c8:	252049c1 	.word	0x252049c1
 80091cc:	397b839a 	.word	0x397b839a
 80091d0:	3fe921fb 	.word	0x3fe921fb
 80091d4:	4002d97b 	.word	0x4002d97b
 80091d8:	3ff921fb 	.word	0x3ff921fb
 80091dc:	413921fb 	.word	0x413921fb
 80091e0:	3fe00000 	.word	0x3fe00000
 80091e4:	0800b518 	.word	0x0800b518
 80091e8:	7fefffff 	.word	0x7fefffff
 80091ec:	ea4f 552a 	mov.w	r5, sl, asr #20
 80091f0:	f2a5 4516 	subw	r5, r5, #1046	; 0x416
 80091f4:	ebaa 5105 	sub.w	r1, sl, r5, lsl #20
 80091f8:	460f      	mov	r7, r1
 80091fa:	4606      	mov	r6, r0
 80091fc:	f7f7 fc1c 	bl	8000a38 <__aeabi_d2iz>
 8009200:	f7f7 f900 	bl	8000404 <__aeabi_i2d>
 8009204:	4602      	mov	r2, r0
 8009206:	460b      	mov	r3, r1
 8009208:	4630      	mov	r0, r6
 800920a:	4639      	mov	r1, r7
 800920c:	e9cd 2306 	strd	r2, r3, [sp, #24]
 8009210:	f7f6 ffaa 	bl	8000168 <__aeabi_dsub>
 8009214:	2200      	movs	r2, #0
 8009216:	4b20      	ldr	r3, [pc, #128]	; (8009298 <__ieee754_rem_pio2+0x3d8>)
 8009218:	f7f7 f95e 	bl	80004d8 <__aeabi_dmul>
 800921c:	460f      	mov	r7, r1
 800921e:	4606      	mov	r6, r0
 8009220:	f7f7 fc0a 	bl	8000a38 <__aeabi_d2iz>
 8009224:	f7f7 f8ee 	bl	8000404 <__aeabi_i2d>
 8009228:	4602      	mov	r2, r0
 800922a:	460b      	mov	r3, r1
 800922c:	4630      	mov	r0, r6
 800922e:	4639      	mov	r1, r7
 8009230:	e9cd 2308 	strd	r2, r3, [sp, #32]
 8009234:	f7f6 ff98 	bl	8000168 <__aeabi_dsub>
 8009238:	2200      	movs	r2, #0
 800923a:	4b17      	ldr	r3, [pc, #92]	; (8009298 <__ieee754_rem_pio2+0x3d8>)
 800923c:	f7f7 f94c 	bl	80004d8 <__aeabi_dmul>
 8009240:	f04f 0803 	mov.w	r8, #3
 8009244:	2600      	movs	r6, #0
 8009246:	2700      	movs	r7, #0
 8009248:	e9cd 010a 	strd	r0, r1, [sp, #40]	; 0x28
 800924c:	f10d 0930 	add.w	r9, sp, #48	; 0x30
 8009250:	4632      	mov	r2, r6
 8009252:	e979 0102 	ldrd	r0, r1, [r9, #-8]!
 8009256:	463b      	mov	r3, r7
 8009258:	f108 3aff 	add.w	sl, r8, #4294967295
 800925c:	f7f7 fba4 	bl	80009a8 <__aeabi_dcmpeq>
 8009260:	b9b8      	cbnz	r0, 8009292 <__ieee754_rem_pio2+0x3d2>
 8009262:	4b0e      	ldr	r3, [pc, #56]	; (800929c <__ieee754_rem_pio2+0x3dc>)
 8009264:	462a      	mov	r2, r5
 8009266:	9301      	str	r3, [sp, #4]
 8009268:	2302      	movs	r3, #2
 800926a:	4621      	mov	r1, r4
 800926c:	9300      	str	r3, [sp, #0]
 800926e:	a806      	add	r0, sp, #24
 8009270:	4643      	mov	r3, r8
 8009272:	f000 f97f 	bl	8009574 <__kernel_rem_pio2>
 8009276:	f1bb 0f00 	cmp.w	fp, #0
 800927a:	4605      	mov	r5, r0
 800927c:	f6bf ae56 	bge.w	8008f2c <__ieee754_rem_pio2+0x6c>
 8009280:	6863      	ldr	r3, [r4, #4]
 8009282:	f103 4300 	add.w	r3, r3, #2147483648	; 0x80000000
 8009286:	6063      	str	r3, [r4, #4]
 8009288:	68e3      	ldr	r3, [r4, #12]
 800928a:	f103 4300 	add.w	r3, r3, #2147483648	; 0x80000000
 800928e:	60e3      	str	r3, [r4, #12]
 8009290:	e708      	b.n	80090a4 <__ieee754_rem_pio2+0x1e4>
 8009292:	46d0      	mov	r8, sl
 8009294:	e7dc      	b.n	8009250 <__ieee754_rem_pio2+0x390>
 8009296:	bf00      	nop
 8009298:	41700000 	.word	0x41700000
 800929c:	0800b598 	.word	0x0800b598

080092a0 <__ieee754_sqrt>:
 80092a0:	4b54      	ldr	r3, [pc, #336]	; (80093f4 <__ieee754_sqrt+0x154>)
 80092a2:	e92d 41f0 	stmdb	sp!, {r4, r5, r6, r7, r8, lr}
 80092a6:	438b      	bics	r3, r1
 80092a8:	4606      	mov	r6, r0
 80092aa:	460d      	mov	r5, r1
 80092ac:	460a      	mov	r2, r1
 80092ae:	460c      	mov	r4, r1
 80092b0:	d10f      	bne.n	80092d2 <__ieee754_sqrt+0x32>
 80092b2:	4602      	mov	r2, r0
 80092b4:	460b      	mov	r3, r1
 80092b6:	f7f7 f90f 	bl	80004d8 <__aeabi_dmul>
 80092ba:	4602      	mov	r2, r0
 80092bc:	460b      	mov	r3, r1
 80092be:	4630      	mov	r0, r6
 80092c0:	4629      	mov	r1, r5
 80092c2:	f7f6 ff53 	bl	800016c <__adddf3>
 80092c6:	4606      	mov	r6, r0
 80092c8:	460d      	mov	r5, r1
 80092ca:	4630      	mov	r0, r6
 80092cc:	4629      	mov	r1, r5
 80092ce:	e8bd 81f0 	ldmia.w	sp!, {r4, r5, r6, r7, r8, pc}
 80092d2:	2900      	cmp	r1, #0
 80092d4:	4607      	mov	r7, r0
 80092d6:	4603      	mov	r3, r0
 80092d8:	dc0e      	bgt.n	80092f8 <__ieee754_sqrt+0x58>
 80092da:	f021 4c00 	bic.w	ip, r1, #2147483648	; 0x80000000
 80092de:	ea5c 0707 	orrs.w	r7, ip, r7
 80092e2:	d0f2      	beq.n	80092ca <__ieee754_sqrt+0x2a>
 80092e4:	b141      	cbz	r1, 80092f8 <__ieee754_sqrt+0x58>
 80092e6:	4602      	mov	r2, r0
 80092e8:	460b      	mov	r3, r1
 80092ea:	f7f6 ff3d 	bl	8000168 <__aeabi_dsub>
 80092ee:	4602      	mov	r2, r0
 80092f0:	460b      	mov	r3, r1
 80092f2:	f7f7 fa1b 	bl	800072c <__aeabi_ddiv>
 80092f6:	e7e6      	b.n	80092c6 <__ieee754_sqrt+0x26>
 80092f8:	1512      	asrs	r2, r2, #20
 80092fa:	d074      	beq.n	80093e6 <__ieee754_sqrt+0x146>
 80092fc:	f2a2 32ff 	subw	r2, r2, #1023	; 0x3ff
 8009300:	07d5      	lsls	r5, r2, #31
 8009302:	f04f 0500 	mov.w	r5, #0
 8009306:	f3c4 0413 	ubfx	r4, r4, #0, #20
 800930a:	bf48      	it	mi
 800930c:	0fd9      	lsrmi	r1, r3, #31
 800930e:	f444 1480 	orr.w	r4, r4, #1048576	; 0x100000
 8009312:	bf44      	itt	mi
 8009314:	005b      	lslmi	r3, r3, #1
 8009316:	eb01 0444 	addmi.w	r4, r1, r4, lsl #1
 800931a:	1051      	asrs	r1, r2, #1
 800931c:	0fda      	lsrs	r2, r3, #31
 800931e:	eb02 0444 	add.w	r4, r2, r4, lsl #1
 8009322:	4628      	mov	r0, r5
 8009324:	2216      	movs	r2, #22
 8009326:	f44f 1600 	mov.w	r6, #2097152	; 0x200000
 800932a:	005b      	lsls	r3, r3, #1
 800932c:	1987      	adds	r7, r0, r6
 800932e:	42a7      	cmp	r7, r4
 8009330:	bfde      	ittt	le
 8009332:	19b8      	addle	r0, r7, r6
 8009334:	1be4      	suble	r4, r4, r7
 8009336:	19ad      	addle	r5, r5, r6
 8009338:	0fdf      	lsrs	r7, r3, #31
 800933a:	3a01      	subs	r2, #1
 800933c:	eb07 0444 	add.w	r4, r7, r4, lsl #1
 8009340:	ea4f 0343 	mov.w	r3, r3, lsl #1
 8009344:	ea4f 0656 	mov.w	r6, r6, lsr #1
 8009348:	d1f0      	bne.n	800932c <__ieee754_sqrt+0x8c>
 800934a:	f04f 0c20 	mov.w	ip, #32
 800934e:	4696      	mov	lr, r2
 8009350:	f04f 4600 	mov.w	r6, #2147483648	; 0x80000000
 8009354:	4284      	cmp	r4, r0
 8009356:	eb06 070e 	add.w	r7, r6, lr
 800935a:	dc02      	bgt.n	8009362 <__ieee754_sqrt+0xc2>
 800935c:	d112      	bne.n	8009384 <__ieee754_sqrt+0xe4>
 800935e:	429f      	cmp	r7, r3
 8009360:	d810      	bhi.n	8009384 <__ieee754_sqrt+0xe4>
 8009362:	2f00      	cmp	r7, #0
 8009364:	eb07 0e06 	add.w	lr, r7, r6
 8009368:	da42      	bge.n	80093f0 <__ieee754_sqrt+0x150>
 800936a:	f1be 0f00 	cmp.w	lr, #0
 800936e:	db3f      	blt.n	80093f0 <__ieee754_sqrt+0x150>
 8009370:	f100 0801 	add.w	r8, r0, #1
 8009374:	1a24      	subs	r4, r4, r0
 8009376:	4640      	mov	r0, r8
 8009378:	429f      	cmp	r7, r3
 800937a:	bf88      	it	hi
 800937c:	f104 34ff 	addhi.w	r4, r4, #4294967295
 8009380:	1bdb      	subs	r3, r3, r7
 8009382:	4432      	add	r2, r6
 8009384:	0064      	lsls	r4, r4, #1
 8009386:	f1bc 0c01 	subs.w	ip, ip, #1
 800938a:	eb04 74d3 	add.w	r4, r4, r3, lsr #31
 800938e:	ea4f 0656 	mov.w	r6, r6, lsr #1
 8009392:	ea4f 0343 	mov.w	r3, r3, lsl #1
 8009396:	d1dd      	bne.n	8009354 <__ieee754_sqrt+0xb4>
 8009398:	4323      	orrs	r3, r4
 800939a:	d006      	beq.n	80093aa <__ieee754_sqrt+0x10a>
 800939c:	1c54      	adds	r4, r2, #1
 800939e:	bf0b      	itete	eq
 80093a0:	4662      	moveq	r2, ip
 80093a2:	3201      	addne	r2, #1
 80093a4:	3501      	addeq	r5, #1
 80093a6:	f022 0201 	bicne.w	r2, r2, #1
 80093aa:	106b      	asrs	r3, r5, #1
 80093ac:	0852      	lsrs	r2, r2, #1
 80093ae:	07e8      	lsls	r0, r5, #31
 80093b0:	f103 537f 	add.w	r3, r3, #1069547520	; 0x3fc00000
 80093b4:	f503 1300 	add.w	r3, r3, #2097152	; 0x200000
 80093b8:	bf48      	it	mi
 80093ba:	f042 4200 	orrmi.w	r2, r2, #2147483648	; 0x80000000
 80093be:	eb03 5501 	add.w	r5, r3, r1, lsl #20
 80093c2:	4616      	mov	r6, r2
 80093c4:	e781      	b.n	80092ca <__ieee754_sqrt+0x2a>
 80093c6:	0adc      	lsrs	r4, r3, #11
 80093c8:	3915      	subs	r1, #21
 80093ca:	055b      	lsls	r3, r3, #21
 80093cc:	2c00      	cmp	r4, #0
 80093ce:	d0fa      	beq.n	80093c6 <__ieee754_sqrt+0x126>
 80093d0:	02e6      	lsls	r6, r4, #11
 80093d2:	d50a      	bpl.n	80093ea <__ieee754_sqrt+0x14a>
 80093d4:	f1c2 0020 	rsb	r0, r2, #32
 80093d8:	fa23 f000 	lsr.w	r0, r3, r0
 80093dc:	1e55      	subs	r5, r2, #1
 80093de:	4093      	lsls	r3, r2
 80093e0:	4304      	orrs	r4, r0
 80093e2:	1b4a      	subs	r2, r1, r5
 80093e4:	e78a      	b.n	80092fc <__ieee754_sqrt+0x5c>
 80093e6:	4611      	mov	r1, r2
 80093e8:	e7f0      	b.n	80093cc <__ieee754_sqrt+0x12c>
 80093ea:	0064      	lsls	r4, r4, #1
 80093ec:	3201      	adds	r2, #1
 80093ee:	e7ef      	b.n	80093d0 <__ieee754_sqrt+0x130>
 80093f0:	4680      	mov	r8, r0
 80093f2:	e7bf      	b.n	8009374 <__ieee754_sqrt+0xd4>
 80093f4:	7ff00000 	.word	0x7ff00000

080093f8 <__kernel_cos>:
 80093f8:	e92d 4ff7 	stmdb	sp!, {r0, r1, r2, r4, r5, r6, r7, r8, r9, sl, fp, lr}
 80093fc:	f021 4600 	bic.w	r6, r1, #2147483648	; 0x80000000
 8009400:	f1b6 5f79 	cmp.w	r6, #1044381696	; 0x3e400000
 8009404:	4680      	mov	r8, r0
 8009406:	460f      	mov	r7, r1
 8009408:	e9cd 2300 	strd	r2, r3, [sp]
 800940c:	da04      	bge.n	8009418 <__kernel_cos+0x20>
 800940e:	f7f7 fb13 	bl	8000a38 <__aeabi_d2iz>
 8009412:	2800      	cmp	r0, #0
 8009414:	f000 8086 	beq.w	8009524 <__kernel_cos+0x12c>
 8009418:	4642      	mov	r2, r8
 800941a:	463b      	mov	r3, r7
 800941c:	4640      	mov	r0, r8
 800941e:	4639      	mov	r1, r7
 8009420:	f7f7 f85a 	bl	80004d8 <__aeabi_dmul>
 8009424:	2200      	movs	r2, #0
 8009426:	4b4e      	ldr	r3, [pc, #312]	; (8009560 <__kernel_cos+0x168>)
 8009428:	4604      	mov	r4, r0
 800942a:	460d      	mov	r5, r1
 800942c:	f7f7 f854 	bl	80004d8 <__aeabi_dmul>
 8009430:	a33f      	add	r3, pc, #252	; (adr r3, 8009530 <__kernel_cos+0x138>)
 8009432:	e9d3 2300 	ldrd	r2, r3, [r3]
 8009436:	4682      	mov	sl, r0
 8009438:	468b      	mov	fp, r1
 800943a:	4620      	mov	r0, r4
 800943c:	4629      	mov	r1, r5
 800943e:	f7f7 f84b 	bl	80004d8 <__aeabi_dmul>
 8009442:	a33d      	add	r3, pc, #244	; (adr r3, 8009538 <__kernel_cos+0x140>)
 8009444:	e9d3 2300 	ldrd	r2, r3, [r3]
 8009448:	f7f6 fe90 	bl	800016c <__adddf3>
 800944c:	4622      	mov	r2, r4
 800944e:	462b      	mov	r3, r5
 8009450:	f7f7 f842 	bl	80004d8 <__aeabi_dmul>
 8009454:	a33a      	add	r3, pc, #232	; (adr r3, 8009540 <__kernel_cos+0x148>)
 8009456:	e9d3 2300 	ldrd	r2, r3, [r3]
 800945a:	f7f6 fe85 	bl	8000168 <__aeabi_dsub>
 800945e:	4622      	mov	r2, r4
 8009460:	462b      	mov	r3, r5
 8009462:	f7f7 f839 	bl	80004d8 <__aeabi_dmul>
 8009466:	a338      	add	r3, pc, #224	; (adr r3, 8009548 <__kernel_cos+0x150>)
 8009468:	e9d3 2300 	ldrd	r2, r3, [r3]
 800946c:	f7f6 fe7e 	bl	800016c <__adddf3>
 8009470:	4622      	mov	r2, r4
 8009472:	462b      	mov	r3, r5
 8009474:	f7f7 f830 	bl	80004d8 <__aeabi_dmul>
 8009478:	a335      	add	r3, pc, #212	; (adr r3, 8009550 <__kernel_cos+0x158>)
 800947a:	e9d3 2300 	ldrd	r2, r3, [r3]
 800947e:	f7f6 fe73 	bl	8000168 <__aeabi_dsub>
 8009482:	4622      	mov	r2, r4
 8009484:	462b      	mov	r3, r5
 8009486:	f7f7 f827 	bl	80004d8 <__aeabi_dmul>
 800948a:	a333      	add	r3, pc, #204	; (adr r3, 8009558 <__kernel_cos+0x160>)
 800948c:	e9d3 2300 	ldrd	r2, r3, [r3]
 8009490:	f7f6 fe6c 	bl	800016c <__adddf3>
 8009494:	4622      	mov	r2, r4
 8009496:	462b      	mov	r3, r5
 8009498:	f7f7 f81e 	bl	80004d8 <__aeabi_dmul>
 800949c:	4622      	mov	r2, r4
 800949e:	462b      	mov	r3, r5
 80094a0:	f7f7 f81a 	bl	80004d8 <__aeabi_dmul>
 80094a4:	e9dd 2300 	ldrd	r2, r3, [sp]
 80094a8:	4604      	mov	r4, r0
 80094aa:	460d      	mov	r5, r1
 80094ac:	4640      	mov	r0, r8
 80094ae:	4639      	mov	r1, r7
 80094b0:	f7f7 f812 	bl	80004d8 <__aeabi_dmul>
 80094b4:	460b      	mov	r3, r1
 80094b6:	4602      	mov	r2, r0
 80094b8:	4629      	mov	r1, r5
 80094ba:	4620      	mov	r0, r4
 80094bc:	f7f6 fe54 	bl	8000168 <__aeabi_dsub>
 80094c0:	4b28      	ldr	r3, [pc, #160]	; (8009564 <__kernel_cos+0x16c>)
 80094c2:	4680      	mov	r8, r0
 80094c4:	429e      	cmp	r6, r3
 80094c6:	4689      	mov	r9, r1
 80094c8:	dc0e      	bgt.n	80094e8 <__kernel_cos+0xf0>
 80094ca:	4602      	mov	r2, r0
 80094cc:	460b      	mov	r3, r1
 80094ce:	4650      	mov	r0, sl
 80094d0:	4659      	mov	r1, fp
 80094d2:	f7f6 fe49 	bl	8000168 <__aeabi_dsub>
 80094d6:	4602      	mov	r2, r0
 80094d8:	2000      	movs	r0, #0
 80094da:	460b      	mov	r3, r1
 80094dc:	4922      	ldr	r1, [pc, #136]	; (8009568 <__kernel_cos+0x170>)
 80094de:	f7f6 fe43 	bl	8000168 <__aeabi_dsub>
 80094e2:	b003      	add	sp, #12
 80094e4:	e8bd 8ff0 	ldmia.w	sp!, {r4, r5, r6, r7, r8, r9, sl, fp, pc}
 80094e8:	2400      	movs	r4, #0
 80094ea:	4b20      	ldr	r3, [pc, #128]	; (800956c <__kernel_cos+0x174>)
 80094ec:	4622      	mov	r2, r4
 80094ee:	429e      	cmp	r6, r3
 80094f0:	bfcc      	ite	gt
 80094f2:	4d1f      	ldrgt	r5, [pc, #124]	; (8009570 <__kernel_cos+0x178>)
 80094f4:	f5a6 1500 	suble.w	r5, r6, #2097152	; 0x200000
 80094f8:	462b      	mov	r3, r5
 80094fa:	2000      	movs	r0, #0
 80094fc:	491a      	ldr	r1, [pc, #104]	; (8009568 <__kernel_cos+0x170>)
 80094fe:	f7f6 fe33 	bl	8000168 <__aeabi_dsub>
 8009502:	4622      	mov	r2, r4
 8009504:	4606      	mov	r6, r0
 8009506:	460f      	mov	r7, r1
 8009508:	462b      	mov	r3, r5
 800950a:	4650      	mov	r0, sl
 800950c:	4659      	mov	r1, fp
 800950e:	f7f6 fe2b 	bl	8000168 <__aeabi_dsub>
 8009512:	4642      	mov	r2, r8
 8009514:	464b      	mov	r3, r9
 8009516:	f7f6 fe27 	bl	8000168 <__aeabi_dsub>
 800951a:	4602      	mov	r2, r0
 800951c:	460b      	mov	r3, r1
 800951e:	4630      	mov	r0, r6
 8009520:	4639      	mov	r1, r7
 8009522:	e7dc      	b.n	80094de <__kernel_cos+0xe6>
 8009524:	2000      	movs	r0, #0
 8009526:	4910      	ldr	r1, [pc, #64]	; (8009568 <__kernel_cos+0x170>)
 8009528:	e7db      	b.n	80094e2 <__kernel_cos+0xea>
 800952a:	bf00      	nop
 800952c:	f3af 8000 	nop.w
 8009530:	be8838d4 	.word	0xbe8838d4
 8009534:	bda8fae9 	.word	0xbda8fae9
 8009538:	bdb4b1c4 	.word	0xbdb4b1c4
 800953c:	3e21ee9e 	.word	0x3e21ee9e
 8009540:	809c52ad 	.word	0x809c52ad
 8009544:	3e927e4f 	.word	0x3e927e4f
 8009548:	19cb1590 	.word	0x19cb1590
 800954c:	3efa01a0 	.word	0x3efa01a0
 8009550:	16c15177 	.word	0x16c15177
 8009554:	3f56c16c 	.word	0x3f56c16c
 8009558:	5555554c 	.word	0x5555554c
 800955c:	3fa55555 	.word	0x3fa55555
 8009560:	3fe00000 	.word	0x3fe00000
 8009564:	3fd33332 	.word	0x3fd33332
 8009568:	3ff00000 	.word	0x3ff00000
 800956c:	3fe90000 	.word	0x3fe90000
 8009570:	3fd20000 	.word	0x3fd20000

08009574 <__kernel_rem_pio2>:
 8009574:	e92d 4ff0 	stmdb	sp!, {r4, r5, r6, r7, r8, r9, sl, fp, lr}
 8009578:	f5ad 7d19 	sub.w	sp, sp, #612	; 0x264
 800957c:	9307      	str	r3, [sp, #28]
 800957e:	9104      	str	r1, [sp, #16]
 8009580:	4bbf      	ldr	r3, [pc, #764]	; (8009880 <__kernel_rem_pio2+0x30c>)
 8009582:	99a2      	ldr	r1, [sp, #648]	; 0x288
 8009584:	1ed4      	subs	r4, r2, #3
 8009586:	f853 3021 	ldr.w	r3, [r3, r1, lsl #2]
 800958a:	2500      	movs	r5, #0
 800958c:	9302      	str	r3, [sp, #8]
 800958e:	9b07      	ldr	r3, [sp, #28]
 8009590:	9008      	str	r0, [sp, #32]
 8009592:	3b01      	subs	r3, #1
 8009594:	9306      	str	r3, [sp, #24]
 8009596:	2318      	movs	r3, #24
 8009598:	fb94 f4f3 	sdiv	r4, r4, r3
 800959c:	f06f 0317 	mvn.w	r3, #23
 80095a0:	ea24 74e4 	bic.w	r4, r4, r4, asr #31
 80095a4:	fb04 3303 	mla	r3, r4, r3, r3
 80095a8:	eb03 0a02 	add.w	sl, r3, r2
 80095ac:	9a06      	ldr	r2, [sp, #24]
 80095ae:	9b02      	ldr	r3, [sp, #8]
 80095b0:	1aa7      	subs	r7, r4, r2
 80095b2:	eb03 0802 	add.w	r8, r3, r2
 80095b6:	9ba3      	ldr	r3, [sp, #652]	; 0x28c
 80095b8:	2200      	movs	r2, #0
 80095ba:	eb03 0987 	add.w	r9, r3, r7, lsl #2
 80095be:	2300      	movs	r3, #0
 80095c0:	ae1e      	add	r6, sp, #120	; 0x78
 80095c2:	4545      	cmp	r5, r8
 80095c4:	dd14      	ble.n	80095f0 <__kernel_rem_pio2+0x7c>
 80095c6:	2600      	movs	r6, #0
 80095c8:	f50d 7bdc 	add.w	fp, sp, #440	; 0x1b8
 80095cc:	9b02      	ldr	r3, [sp, #8]
 80095ce:	429e      	cmp	r6, r3
 80095d0:	dc39      	bgt.n	8009646 <__kernel_rem_pio2+0xd2>
 80095d2:	9b08      	ldr	r3, [sp, #32]
 80095d4:	f04f 0800 	mov.w	r8, #0
 80095d8:	3b08      	subs	r3, #8
 80095da:	9300      	str	r3, [sp, #0]
 80095dc:	9b07      	ldr	r3, [sp, #28]
 80095de:	f04f 0900 	mov.w	r9, #0
 80095e2:	199d      	adds	r5, r3, r6
 80095e4:	ab20      	add	r3, sp, #128	; 0x80
 80095e6:	eb03 03c5 	add.w	r3, r3, r5, lsl #3
 80095ea:	9305      	str	r3, [sp, #20]
 80095ec:	2700      	movs	r7, #0
 80095ee:	e023      	b.n	8009638 <__kernel_rem_pio2+0xc4>
 80095f0:	42ef      	cmn	r7, r5
 80095f2:	d40b      	bmi.n	800960c <__kernel_rem_pio2+0x98>
 80095f4:	f859 0025 	ldr.w	r0, [r9, r5, lsl #2]
 80095f8:	e9cd 2300 	strd	r2, r3, [sp]
 80095fc:	f7f6 ff02 	bl	8000404 <__aeabi_i2d>
 8009600:	e9dd 2300 	ldrd	r2, r3, [sp]
 8009604:	e9e6 0102 	strd	r0, r1, [r6, #8]!
 8009608:	3501      	adds	r5, #1
 800960a:	e7da      	b.n	80095c2 <__kernel_rem_pio2+0x4e>
 800960c:	4610      	mov	r0, r2
 800960e:	4619      	mov	r1, r3
 8009610:	e7f8      	b.n	8009604 <__kernel_rem_pio2+0x90>
 8009612:	9905      	ldr	r1, [sp, #20]
 8009614:	9d00      	ldr	r5, [sp, #0]
 8009616:	e971 2302 	ldrd	r2, r3, [r1, #-8]!
 800961a:	9105      	str	r1, [sp, #20]
 800961c:	e9f5 0102 	ldrd	r0, r1, [r5, #8]!
 8009620:	9500      	str	r5, [sp, #0]
 8009622:	f7f6 ff59 	bl	80004d8 <__aeabi_dmul>
 8009626:	4602      	mov	r2, r0
 8009628:	460b      	mov	r3, r1
 800962a:	4640      	mov	r0, r8
 800962c:	4649      	mov	r1, r9
 800962e:	f7f6 fd9d 	bl	800016c <__adddf3>
 8009632:	4680      	mov	r8, r0
 8009634:	4689      	mov	r9, r1
 8009636:	3701      	adds	r7, #1
 8009638:	9b06      	ldr	r3, [sp, #24]
 800963a:	429f      	cmp	r7, r3
 800963c:	dde9      	ble.n	8009612 <__kernel_rem_pio2+0x9e>
 800963e:	e9eb 8902 	strd	r8, r9, [fp, #8]!
 8009642:	3601      	adds	r6, #1
 8009644:	e7c2      	b.n	80095cc <__kernel_rem_pio2+0x58>
 8009646:	9b02      	ldr	r3, [sp, #8]
 8009648:	aa0c      	add	r2, sp, #48	; 0x30
 800964a:	eb02 0383 	add.w	r3, r2, r3, lsl #2
 800964e:	930b      	str	r3, [sp, #44]	; 0x2c
 8009650:	9ba3      	ldr	r3, [sp, #652]	; 0x28c
 8009652:	9f02      	ldr	r7, [sp, #8]
 8009654:	eb03 0384 	add.w	r3, r3, r4, lsl #2
 8009658:	930a      	str	r3, [sp, #40]	; 0x28
 800965a:	2600      	movs	r6, #0
 800965c:	ab98      	add	r3, sp, #608	; 0x260
 800965e:	f107 5b00 	add.w	fp, r7, #536870912	; 0x20000000
 8009662:	eb03 03c7 	add.w	r3, r3, r7, lsl #3
 8009666:	f10b 3bff 	add.w	fp, fp, #4294967295
 800966a:	e953 8928 	ldrd	r8, r9, [r3, #-160]	; 0xa0
 800966e:	ea4f 0bcb 	mov.w	fp, fp, lsl #3
 8009672:	ab98      	add	r3, sp, #608	; 0x260
 8009674:	445b      	add	r3, fp
 8009676:	f1a3 0498 	sub.w	r4, r3, #152	; 0x98
 800967a:	1bbb      	subs	r3, r7, r6
 800967c:	2b00      	cmp	r3, #0
 800967e:	dc71      	bgt.n	8009764 <__kernel_rem_pio2+0x1f0>
 8009680:	4652      	mov	r2, sl
 8009682:	4640      	mov	r0, r8
 8009684:	4649      	mov	r1, r9
 8009686:	f000 fc97 	bl	8009fb8 <scalbn>
 800968a:	2200      	movs	r2, #0
 800968c:	f04f 537f 	mov.w	r3, #1069547520	; 0x3fc00000
 8009690:	4604      	mov	r4, r0
 8009692:	460d      	mov	r5, r1
 8009694:	f7f6 ff20 	bl	80004d8 <__aeabi_dmul>
 8009698:	f000 fb76 	bl	8009d88 <floor>
 800969c:	2200      	movs	r2, #0
 800969e:	4b79      	ldr	r3, [pc, #484]	; (8009884 <__kernel_rem_pio2+0x310>)
 80096a0:	f7f6 ff1a 	bl	80004d8 <__aeabi_dmul>
 80096a4:	4602      	mov	r2, r0
 80096a6:	460b      	mov	r3, r1
 80096a8:	4620      	mov	r0, r4
 80096aa:	4629      	mov	r1, r5
 80096ac:	f7f6 fd5c 	bl	8000168 <__aeabi_dsub>
 80096b0:	460d      	mov	r5, r1
 80096b2:	4604      	mov	r4, r0
 80096b4:	f7f7 f9c0 	bl	8000a38 <__aeabi_d2iz>
 80096b8:	9005      	str	r0, [sp, #20]
 80096ba:	f7f6 fea3 	bl	8000404 <__aeabi_i2d>
 80096be:	4602      	mov	r2, r0
 80096c0:	460b      	mov	r3, r1
 80096c2:	4620      	mov	r0, r4
 80096c4:	4629      	mov	r1, r5
 80096c6:	f7f6 fd4f 	bl	8000168 <__aeabi_dsub>
 80096ca:	f1ba 0f00 	cmp.w	sl, #0
 80096ce:	4680      	mov	r8, r0
 80096d0:	4689      	mov	r9, r1
 80096d2:	dd6c      	ble.n	80097ae <__kernel_rem_pio2+0x23a>
 80096d4:	1e7a      	subs	r2, r7, #1
 80096d6:	ab0c      	add	r3, sp, #48	; 0x30
 80096d8:	f853 0022 	ldr.w	r0, [r3, r2, lsl #2]
 80096dc:	f1ca 0118 	rsb	r1, sl, #24
 80096e0:	9c05      	ldr	r4, [sp, #20]
 80096e2:	fa40 f301 	asr.w	r3, r0, r1
 80096e6:	441c      	add	r4, r3
 80096e8:	408b      	lsls	r3, r1
 80096ea:	1ac0      	subs	r0, r0, r3
 80096ec:	ab0c      	add	r3, sp, #48	; 0x30
 80096ee:	f843 0022 	str.w	r0, [r3, r2, lsl #2]
 80096f2:	f1ca 0317 	rsb	r3, sl, #23
 80096f6:	9405      	str	r4, [sp, #20]
 80096f8:	fa40 f303 	asr.w	r3, r0, r3
 80096fc:	9300      	str	r3, [sp, #0]
 80096fe:	9b00      	ldr	r3, [sp, #0]
 8009700:	2b00      	cmp	r3, #0
 8009702:	dd62      	ble.n	80097ca <__kernel_rem_pio2+0x256>
 8009704:	2200      	movs	r2, #0
 8009706:	f06f 417f 	mvn.w	r1, #4278190080	; 0xff000000
 800970a:	4614      	mov	r4, r2
 800970c:	9b05      	ldr	r3, [sp, #20]
 800970e:	3301      	adds	r3, #1
 8009710:	9305      	str	r3, [sp, #20]
 8009712:	4297      	cmp	r7, r2
 8009714:	f300 809f 	bgt.w	8009856 <__kernel_rem_pio2+0x2e2>
 8009718:	f1ba 0f00 	cmp.w	sl, #0
 800971c:	dd07      	ble.n	800972e <__kernel_rem_pio2+0x1ba>
 800971e:	f1ba 0f01 	cmp.w	sl, #1
 8009722:	f000 80bb 	beq.w	800989c <__kernel_rem_pio2+0x328>
 8009726:	f1ba 0f02 	cmp.w	sl, #2
 800972a:	f000 80c1 	beq.w	80098b0 <__kernel_rem_pio2+0x33c>
 800972e:	9b00      	ldr	r3, [sp, #0]
 8009730:	2b02      	cmp	r3, #2
 8009732:	d14a      	bne.n	80097ca <__kernel_rem_pio2+0x256>
 8009734:	4642      	mov	r2, r8
 8009736:	464b      	mov	r3, r9
 8009738:	2000      	movs	r0, #0
 800973a:	4953      	ldr	r1, [pc, #332]	; (8009888 <__kernel_rem_pio2+0x314>)
 800973c:	f7f6 fd14 	bl	8000168 <__aeabi_dsub>
 8009740:	4680      	mov	r8, r0
 8009742:	4689      	mov	r9, r1
 8009744:	2c00      	cmp	r4, #0
 8009746:	d040      	beq.n	80097ca <__kernel_rem_pio2+0x256>
 8009748:	4652      	mov	r2, sl
 800974a:	2000      	movs	r0, #0
 800974c:	494e      	ldr	r1, [pc, #312]	; (8009888 <__kernel_rem_pio2+0x314>)
 800974e:	f000 fc33 	bl	8009fb8 <scalbn>
 8009752:	4602      	mov	r2, r0
 8009754:	460b      	mov	r3, r1
 8009756:	4640      	mov	r0, r8
 8009758:	4649      	mov	r1, r9
 800975a:	f7f6 fd05 	bl	8000168 <__aeabi_dsub>
 800975e:	4680      	mov	r8, r0
 8009760:	4689      	mov	r9, r1
 8009762:	e032      	b.n	80097ca <__kernel_rem_pio2+0x256>
 8009764:	2200      	movs	r2, #0
 8009766:	4b49      	ldr	r3, [pc, #292]	; (800988c <__kernel_rem_pio2+0x318>)
 8009768:	4640      	mov	r0, r8
 800976a:	4649      	mov	r1, r9
 800976c:	f7f6 feb4 	bl	80004d8 <__aeabi_dmul>
 8009770:	f7f7 f962 	bl	8000a38 <__aeabi_d2iz>
 8009774:	f7f6 fe46 	bl	8000404 <__aeabi_i2d>
 8009778:	2200      	movs	r2, #0
 800977a:	4b45      	ldr	r3, [pc, #276]	; (8009890 <__kernel_rem_pio2+0x31c>)
 800977c:	e9cd 0100 	strd	r0, r1, [sp]
 8009780:	f7f6 feaa 	bl	80004d8 <__aeabi_dmul>
 8009784:	4602      	mov	r2, r0
 8009786:	460b      	mov	r3, r1
 8009788:	4640      	mov	r0, r8
 800978a:	4649      	mov	r1, r9
 800978c:	f7f6 fcec 	bl	8000168 <__aeabi_dsub>
 8009790:	f7f7 f952 	bl	8000a38 <__aeabi_d2iz>
 8009794:	ab0c      	add	r3, sp, #48	; 0x30
 8009796:	f843 0026 	str.w	r0, [r3, r6, lsl #2]
 800979a:	e974 2302 	ldrd	r2, r3, [r4, #-8]!
 800979e:	e9dd 0100 	ldrd	r0, r1, [sp]
 80097a2:	f7f6 fce3 	bl	800016c <__adddf3>
 80097a6:	3601      	adds	r6, #1
 80097a8:	4680      	mov	r8, r0
 80097aa:	4689      	mov	r9, r1
 80097ac:	e765      	b.n	800967a <__kernel_rem_pio2+0x106>
 80097ae:	d105      	bne.n	80097bc <__kernel_rem_pio2+0x248>
 80097b0:	1e7b      	subs	r3, r7, #1
 80097b2:	aa0c      	add	r2, sp, #48	; 0x30
 80097b4:	f852 0023 	ldr.w	r0, [r2, r3, lsl #2]
 80097b8:	15c3      	asrs	r3, r0, #23
 80097ba:	e79f      	b.n	80096fc <__kernel_rem_pio2+0x188>
 80097bc:	2200      	movs	r2, #0
 80097be:	4b35      	ldr	r3, [pc, #212]	; (8009894 <__kernel_rem_pio2+0x320>)
 80097c0:	f7f7 f910 	bl	80009e4 <__aeabi_dcmpge>
 80097c4:	2800      	cmp	r0, #0
 80097c6:	d143      	bne.n	8009850 <__kernel_rem_pio2+0x2dc>
 80097c8:	9000      	str	r0, [sp, #0]
 80097ca:	2200      	movs	r2, #0
 80097cc:	2300      	movs	r3, #0
 80097ce:	4640      	mov	r0, r8
 80097d0:	4649      	mov	r1, r9
 80097d2:	f7f7 f8e9 	bl	80009a8 <__aeabi_dcmpeq>
 80097d6:	2800      	cmp	r0, #0
 80097d8:	f000 80c3 	beq.w	8009962 <__kernel_rem_pio2+0x3ee>
 80097dc:	1e7c      	subs	r4, r7, #1
 80097de:	4623      	mov	r3, r4
 80097e0:	2200      	movs	r2, #0
 80097e2:	9902      	ldr	r1, [sp, #8]
 80097e4:	428b      	cmp	r3, r1
 80097e6:	da6a      	bge.n	80098be <__kernel_rem_pio2+0x34a>
 80097e8:	2a00      	cmp	r2, #0
 80097ea:	f000 8084 	beq.w	80098f6 <__kernel_rem_pio2+0x382>
 80097ee:	ab0c      	add	r3, sp, #48	; 0x30
 80097f0:	f853 3024 	ldr.w	r3, [r3, r4, lsl #2]
 80097f4:	f1aa 0a18 	sub.w	sl, sl, #24
 80097f8:	2b00      	cmp	r3, #0
 80097fa:	f000 80b0 	beq.w	800995e <__kernel_rem_pio2+0x3ea>
 80097fe:	4652      	mov	r2, sl
 8009800:	2000      	movs	r0, #0
 8009802:	4921      	ldr	r1, [pc, #132]	; (8009888 <__kernel_rem_pio2+0x314>)
 8009804:	f000 fbd8 	bl	8009fb8 <scalbn>
 8009808:	4625      	mov	r5, r4
 800980a:	4606      	mov	r6, r0
 800980c:	460f      	mov	r7, r1
 800980e:	f04f 0a00 	mov.w	sl, #0
 8009812:	00e3      	lsls	r3, r4, #3
 8009814:	aa98      	add	r2, sp, #608	; 0x260
 8009816:	eb02 0803 	add.w	r8, r2, r3
 800981a:	f8df b070 	ldr.w	fp, [pc, #112]	; 800988c <__kernel_rem_pio2+0x318>
 800981e:	9306      	str	r3, [sp, #24]
 8009820:	f1a8 0898 	sub.w	r8, r8, #152	; 0x98
 8009824:	2d00      	cmp	r5, #0
 8009826:	f280 80d2 	bge.w	80099ce <__kernel_rem_pio2+0x45a>
 800982a:	2500      	movs	r5, #0
 800982c:	9a06      	ldr	r2, [sp, #24]
 800982e:	ab98      	add	r3, sp, #608	; 0x260
 8009830:	189e      	adds	r6, r3, r2
 8009832:	3ea8      	subs	r6, #168	; 0xa8
 8009834:	1b63      	subs	r3, r4, r5
 8009836:	2b00      	cmp	r3, #0
 8009838:	f2c0 80f9 	blt.w	8009a2e <__kernel_rem_pio2+0x4ba>
 800983c:	f8df 9058 	ldr.w	r9, [pc, #88]	; 8009898 <__kernel_rem_pio2+0x324>
 8009840:	eba6 08c5 	sub.w	r8, r6, r5, lsl #3
 8009844:	f04f 0a00 	mov.w	sl, #0
 8009848:	f04f 0b00 	mov.w	fp, #0
 800984c:	2700      	movs	r7, #0
 800984e:	e0e2      	b.n	8009a16 <__kernel_rem_pio2+0x4a2>
 8009850:	2302      	movs	r3, #2
 8009852:	9300      	str	r3, [sp, #0]
 8009854:	e756      	b.n	8009704 <__kernel_rem_pio2+0x190>
 8009856:	ab0c      	add	r3, sp, #48	; 0x30
 8009858:	f853 3022 	ldr.w	r3, [r3, r2, lsl #2]
 800985c:	b94c      	cbnz	r4, 8009872 <__kernel_rem_pio2+0x2fe>
 800985e:	b12b      	cbz	r3, 800986c <__kernel_rem_pio2+0x2f8>
 8009860:	f1c3 7380 	rsb	r3, r3, #16777216	; 0x1000000
 8009864:	a80c      	add	r0, sp, #48	; 0x30
 8009866:	f840 3022 	str.w	r3, [r0, r2, lsl #2]
 800986a:	2301      	movs	r3, #1
 800986c:	3201      	adds	r2, #1
 800986e:	461c      	mov	r4, r3
 8009870:	e74f      	b.n	8009712 <__kernel_rem_pio2+0x19e>
 8009872:	1acb      	subs	r3, r1, r3
 8009874:	a80c      	add	r0, sp, #48	; 0x30
 8009876:	f840 3022 	str.w	r3, [r0, r2, lsl #2]
 800987a:	4623      	mov	r3, r4
 800987c:	e7f6      	b.n	800986c <__kernel_rem_pio2+0x2f8>
 800987e:	bf00      	nop
 8009880:	0800b6e0 	.word	0x0800b6e0
 8009884:	40200000 	.word	0x40200000
 8009888:	3ff00000 	.word	0x3ff00000
 800988c:	3e700000 	.word	0x3e700000
 8009890:	41700000 	.word	0x41700000
 8009894:	3fe00000 	.word	0x3fe00000
 8009898:	0800b698 	.word	0x0800b698
 800989c:	1e7a      	subs	r2, r7, #1
 800989e:	ab0c      	add	r3, sp, #48	; 0x30
 80098a0:	f853 3022 	ldr.w	r3, [r3, r2, lsl #2]
 80098a4:	f3c3 0316 	ubfx	r3, r3, #0, #23
 80098a8:	a90c      	add	r1, sp, #48	; 0x30
 80098aa:	f841 3022 	str.w	r3, [r1, r2, lsl #2]
 80098ae:	e73e      	b.n	800972e <__kernel_rem_pio2+0x1ba>
 80098b0:	1e7a      	subs	r2, r7, #1
 80098b2:	ab0c      	add	r3, sp, #48	; 0x30
 80098b4:	f853 3022 	ldr.w	r3, [r3, r2, lsl #2]
 80098b8:	f3c3 0315 	ubfx	r3, r3, #0, #22
 80098bc:	e7f4      	b.n	80098a8 <__kernel_rem_pio2+0x334>
 80098be:	a90c      	add	r1, sp, #48	; 0x30
 80098c0:	f851 1023 	ldr.w	r1, [r1, r3, lsl #2]
 80098c4:	3b01      	subs	r3, #1
 80098c6:	430a      	orrs	r2, r1
 80098c8:	e78b      	b.n	80097e2 <__kernel_rem_pio2+0x26e>
 80098ca:	3401      	adds	r4, #1
 80098cc:	f853 2d04 	ldr.w	r2, [r3, #-4]!
 80098d0:	2a00      	cmp	r2, #0
 80098d2:	d0fa      	beq.n	80098ca <__kernel_rem_pio2+0x356>
 80098d4:	ab98      	add	r3, sp, #608	; 0x260
 80098d6:	449b      	add	fp, r3
 80098d8:	9b07      	ldr	r3, [sp, #28]
 80098da:	1c7e      	adds	r6, r7, #1
 80098dc:	19dd      	adds	r5, r3, r7
 80098de:	ab98      	add	r3, sp, #608	; 0x260
 80098e0:	eb03 05c5 	add.w	r5, r3, r5, lsl #3
 80098e4:	f1ab 0b98 	sub.w	fp, fp, #152	; 0x98
 80098e8:	f5a5 75f4 	sub.w	r5, r5, #488	; 0x1e8
 80098ec:	443c      	add	r4, r7
 80098ee:	42b4      	cmp	r4, r6
 80098f0:	da04      	bge.n	80098fc <__kernel_rem_pio2+0x388>
 80098f2:	4627      	mov	r7, r4
 80098f4:	e6b1      	b.n	800965a <__kernel_rem_pio2+0xe6>
 80098f6:	9b0b      	ldr	r3, [sp, #44]	; 0x2c
 80098f8:	2401      	movs	r4, #1
 80098fa:	e7e7      	b.n	80098cc <__kernel_rem_pio2+0x358>
 80098fc:	f105 0308 	add.w	r3, r5, #8
 8009900:	9309      	str	r3, [sp, #36]	; 0x24
 8009902:	9b0a      	ldr	r3, [sp, #40]	; 0x28
 8009904:	2700      	movs	r7, #0
 8009906:	f853 0026 	ldr.w	r0, [r3, r6, lsl #2]
 800990a:	f7f6 fd7b 	bl	8000404 <__aeabi_i2d>
 800990e:	f04f 0800 	mov.w	r8, #0
 8009912:	f04f 0900 	mov.w	r9, #0
 8009916:	9b08      	ldr	r3, [sp, #32]
 8009918:	e9c5 0102 	strd	r0, r1, [r5, #8]
 800991c:	3b08      	subs	r3, #8
 800991e:	9300      	str	r3, [sp, #0]
 8009920:	f105 0310 	add.w	r3, r5, #16
 8009924:	9305      	str	r3, [sp, #20]
 8009926:	9b06      	ldr	r3, [sp, #24]
 8009928:	429f      	cmp	r7, r3
 800992a:	dd04      	ble.n	8009936 <__kernel_rem_pio2+0x3c2>
 800992c:	e9eb 8902 	strd	r8, r9, [fp, #8]!
 8009930:	3601      	adds	r6, #1
 8009932:	9d09      	ldr	r5, [sp, #36]	; 0x24
 8009934:	e7db      	b.n	80098ee <__kernel_rem_pio2+0x37a>
 8009936:	9905      	ldr	r1, [sp, #20]
 8009938:	9d00      	ldr	r5, [sp, #0]
 800993a:	e971 2302 	ldrd	r2, r3, [r1, #-8]!
 800993e:	9105      	str	r1, [sp, #20]
 8009940:	e9f5 0102 	ldrd	r0, r1, [r5, #8]!
 8009944:	9500      	str	r5, [sp, #0]
 8009946:	f7f6 fdc7 	bl	80004d8 <__aeabi_dmul>
 800994a:	4602      	mov	r2, r0
 800994c:	460b      	mov	r3, r1
 800994e:	4640      	mov	r0, r8
 8009950:	4649      	mov	r1, r9
 8009952:	f7f6 fc0b 	bl	800016c <__adddf3>
 8009956:	3701      	adds	r7, #1
 8009958:	4680      	mov	r8, r0
 800995a:	4689      	mov	r9, r1
 800995c:	e7e3      	b.n	8009926 <__kernel_rem_pio2+0x3b2>
 800995e:	3c01      	subs	r4, #1
 8009960:	e745      	b.n	80097ee <__kernel_rem_pio2+0x27a>
 8009962:	f1ca 0200 	rsb	r2, sl, #0
 8009966:	4640      	mov	r0, r8
 8009968:	4649      	mov	r1, r9
 800996a:	f000 fb25 	bl	8009fb8 <scalbn>
 800996e:	2200      	movs	r2, #0
 8009970:	4ba3      	ldr	r3, [pc, #652]	; (8009c00 <__kernel_rem_pio2+0x68c>)
 8009972:	4604      	mov	r4, r0
 8009974:	460d      	mov	r5, r1
 8009976:	f7f7 f835 	bl	80009e4 <__aeabi_dcmpge>
 800997a:	b1f8      	cbz	r0, 80099bc <__kernel_rem_pio2+0x448>
 800997c:	2200      	movs	r2, #0
 800997e:	4ba1      	ldr	r3, [pc, #644]	; (8009c04 <__kernel_rem_pio2+0x690>)
 8009980:	4620      	mov	r0, r4
 8009982:	4629      	mov	r1, r5
 8009984:	f7f6 fda8 	bl	80004d8 <__aeabi_dmul>
 8009988:	f7f7 f856 	bl	8000a38 <__aeabi_d2iz>
 800998c:	4606      	mov	r6, r0
 800998e:	f7f6 fd39 	bl	8000404 <__aeabi_i2d>
 8009992:	2200      	movs	r2, #0
 8009994:	4b9a      	ldr	r3, [pc, #616]	; (8009c00 <__kernel_rem_pio2+0x68c>)
 8009996:	f7f6 fd9f 	bl	80004d8 <__aeabi_dmul>
 800999a:	460b      	mov	r3, r1
 800999c:	4602      	mov	r2, r0
 800999e:	4629      	mov	r1, r5
 80099a0:	4620      	mov	r0, r4
 80099a2:	f7f6 fbe1 	bl	8000168 <__aeabi_dsub>
 80099a6:	f7f7 f847 	bl	8000a38 <__aeabi_d2iz>
 80099aa:	1c7c      	adds	r4, r7, #1
 80099ac:	ab0c      	add	r3, sp, #48	; 0x30
 80099ae:	f843 0027 	str.w	r0, [r3, r7, lsl #2]
 80099b2:	f10a 0a18 	add.w	sl, sl, #24
 80099b6:	f843 6024 	str.w	r6, [r3, r4, lsl #2]
 80099ba:	e720      	b.n	80097fe <__kernel_rem_pio2+0x28a>
 80099bc:	4620      	mov	r0, r4
 80099be:	4629      	mov	r1, r5
 80099c0:	f7f7 f83a 	bl	8000a38 <__aeabi_d2iz>
 80099c4:	ab0c      	add	r3, sp, #48	; 0x30
 80099c6:	f843 0027 	str.w	r0, [r3, r7, lsl #2]
 80099ca:	463c      	mov	r4, r7
 80099cc:	e717      	b.n	80097fe <__kernel_rem_pio2+0x28a>
 80099ce:	ab0c      	add	r3, sp, #48	; 0x30
 80099d0:	f853 0025 	ldr.w	r0, [r3, r5, lsl #2]
 80099d4:	f7f6 fd16 	bl	8000404 <__aeabi_i2d>
 80099d8:	4632      	mov	r2, r6
 80099da:	463b      	mov	r3, r7
 80099dc:	f7f6 fd7c 	bl	80004d8 <__aeabi_dmul>
 80099e0:	4652      	mov	r2, sl
 80099e2:	e968 0102 	strd	r0, r1, [r8, #-8]!
 80099e6:	465b      	mov	r3, fp
 80099e8:	4630      	mov	r0, r6
 80099ea:	4639      	mov	r1, r7
 80099ec:	f7f6 fd74 	bl	80004d8 <__aeabi_dmul>
 80099f0:	3d01      	subs	r5, #1
 80099f2:	4606      	mov	r6, r0
 80099f4:	460f      	mov	r7, r1
 80099f6:	e715      	b.n	8009824 <__kernel_rem_pio2+0x2b0>
 80099f8:	e9f8 2302 	ldrd	r2, r3, [r8, #8]!
 80099fc:	e9f9 0102 	ldrd	r0, r1, [r9, #8]!
 8009a00:	f7f6 fd6a 	bl	80004d8 <__aeabi_dmul>
 8009a04:	4602      	mov	r2, r0
 8009a06:	460b      	mov	r3, r1
 8009a08:	4650      	mov	r0, sl
 8009a0a:	4659      	mov	r1, fp
 8009a0c:	f7f6 fbae 	bl	800016c <__adddf3>
 8009a10:	4682      	mov	sl, r0
 8009a12:	468b      	mov	fp, r1
 8009a14:	3701      	adds	r7, #1
 8009a16:	9b02      	ldr	r3, [sp, #8]
 8009a18:	429f      	cmp	r7, r3
 8009a1a:	dc01      	bgt.n	8009a20 <__kernel_rem_pio2+0x4ac>
 8009a1c:	42bd      	cmp	r5, r7
 8009a1e:	daeb      	bge.n	80099f8 <__kernel_rem_pio2+0x484>
 8009a20:	ab48      	add	r3, sp, #288	; 0x120
 8009a22:	eb03 03c5 	add.w	r3, r3, r5, lsl #3
 8009a26:	e9c3 ab00 	strd	sl, fp, [r3]
 8009a2a:	3501      	adds	r5, #1
 8009a2c:	e702      	b.n	8009834 <__kernel_rem_pio2+0x2c0>
 8009a2e:	9ba2      	ldr	r3, [sp, #648]	; 0x288
 8009a30:	2b03      	cmp	r3, #3
 8009a32:	d86c      	bhi.n	8009b0e <__kernel_rem_pio2+0x59a>
 8009a34:	e8df f003 	tbb	[pc, r3]
 8009a38:	022f2f59 	.word	0x022f2f59
 8009a3c:	9a06      	ldr	r2, [sp, #24]
 8009a3e:	ab48      	add	r3, sp, #288	; 0x120
 8009a40:	189d      	adds	r5, r3, r2
 8009a42:	46aa      	mov	sl, r5
 8009a44:	46a3      	mov	fp, r4
 8009a46:	f1bb 0f00 	cmp.w	fp, #0
 8009a4a:	f300 8087 	bgt.w	8009b5c <__kernel_rem_pio2+0x5e8>
 8009a4e:	46a2      	mov	sl, r4
 8009a50:	f1ba 0f01 	cmp.w	sl, #1
 8009a54:	f300 809f 	bgt.w	8009b96 <__kernel_rem_pio2+0x622>
 8009a58:	2700      	movs	r7, #0
 8009a5a:	463e      	mov	r6, r7
 8009a5c:	9d06      	ldr	r5, [sp, #24]
 8009a5e:	ab48      	add	r3, sp, #288	; 0x120
 8009a60:	3508      	adds	r5, #8
 8009a62:	441d      	add	r5, r3
 8009a64:	2c01      	cmp	r4, #1
 8009a66:	f300 80b3 	bgt.w	8009bd0 <__kernel_rem_pio2+0x65c>
 8009a6a:	9b00      	ldr	r3, [sp, #0]
 8009a6c:	9d48      	ldr	r5, [sp, #288]	; 0x120
 8009a6e:	9849      	ldr	r0, [sp, #292]	; 0x124
 8009a70:	9c4a      	ldr	r4, [sp, #296]	; 0x128
 8009a72:	994b      	ldr	r1, [sp, #300]	; 0x12c
 8009a74:	2b00      	cmp	r3, #0
 8009a76:	f040 80b5 	bne.w	8009be4 <__kernel_rem_pio2+0x670>
 8009a7a:	4603      	mov	r3, r0
 8009a7c:	462a      	mov	r2, r5
 8009a7e:	9804      	ldr	r0, [sp, #16]
 8009a80:	e9c0 2300 	strd	r2, r3, [r0]
 8009a84:	4622      	mov	r2, r4
 8009a86:	460b      	mov	r3, r1
 8009a88:	e9c0 2302 	strd	r2, r3, [r0, #8]
 8009a8c:	463a      	mov	r2, r7
 8009a8e:	4633      	mov	r3, r6
 8009a90:	e9c0 2304 	strd	r2, r3, [r0, #16]
 8009a94:	e03b      	b.n	8009b0e <__kernel_rem_pio2+0x59a>
 8009a96:	f04f 0c00 	mov.w	ip, #0
 8009a9a:	4626      	mov	r6, r4
 8009a9c:	4667      	mov	r7, ip
 8009a9e:	9d06      	ldr	r5, [sp, #24]
 8009aa0:	ab48      	add	r3, sp, #288	; 0x120
 8009aa2:	3508      	adds	r5, #8
 8009aa4:	441d      	add	r5, r3
 8009aa6:	2e00      	cmp	r6, #0
 8009aa8:	da42      	bge.n	8009b30 <__kernel_rem_pio2+0x5bc>
 8009aaa:	9b00      	ldr	r3, [sp, #0]
 8009aac:	2b00      	cmp	r3, #0
 8009aae:	d049      	beq.n	8009b44 <__kernel_rem_pio2+0x5d0>
 8009ab0:	f107 4100 	add.w	r1, r7, #2147483648	; 0x80000000
 8009ab4:	4662      	mov	r2, ip
 8009ab6:	460b      	mov	r3, r1
 8009ab8:	9904      	ldr	r1, [sp, #16]
 8009aba:	2601      	movs	r6, #1
 8009abc:	e9c1 2300 	strd	r2, r3, [r1]
 8009ac0:	a948      	add	r1, sp, #288	; 0x120
 8009ac2:	463b      	mov	r3, r7
 8009ac4:	e9d1 0100 	ldrd	r0, r1, [r1]
 8009ac8:	f7f6 fb4e 	bl	8000168 <__aeabi_dsub>
 8009acc:	4684      	mov	ip, r0
 8009ace:	460f      	mov	r7, r1
 8009ad0:	ad48      	add	r5, sp, #288	; 0x120
 8009ad2:	42b4      	cmp	r4, r6
 8009ad4:	da38      	bge.n	8009b48 <__kernel_rem_pio2+0x5d4>
 8009ad6:	9b00      	ldr	r3, [sp, #0]
 8009ad8:	b10b      	cbz	r3, 8009ade <__kernel_rem_pio2+0x56a>
 8009ada:	f107 4700 	add.w	r7, r7, #2147483648	; 0x80000000
 8009ade:	4662      	mov	r2, ip
 8009ae0:	463b      	mov	r3, r7
 8009ae2:	9904      	ldr	r1, [sp, #16]
 8009ae4:	e9c1 2302 	strd	r2, r3, [r1, #8]
 8009ae8:	e011      	b.n	8009b0e <__kernel_rem_pio2+0x59a>
 8009aea:	2700      	movs	r7, #0
 8009aec:	463d      	mov	r5, r7
 8009aee:	9b06      	ldr	r3, [sp, #24]
 8009af0:	aa98      	add	r2, sp, #608	; 0x260
 8009af2:	4413      	add	r3, r2
 8009af4:	f5a3 769c 	sub.w	r6, r3, #312	; 0x138
 8009af8:	2c00      	cmp	r4, #0
 8009afa:	da0f      	bge.n	8009b1c <__kernel_rem_pio2+0x5a8>
 8009afc:	9b00      	ldr	r3, [sp, #0]
 8009afe:	b10b      	cbz	r3, 8009b04 <__kernel_rem_pio2+0x590>
 8009b00:	f105 4500 	add.w	r5, r5, #2147483648	; 0x80000000
 8009b04:	463a      	mov	r2, r7
 8009b06:	462b      	mov	r3, r5
 8009b08:	9904      	ldr	r1, [sp, #16]
 8009b0a:	e9c1 2300 	strd	r2, r3, [r1]
 8009b0e:	9b05      	ldr	r3, [sp, #20]
 8009b10:	f003 0007 	and.w	r0, r3, #7
 8009b14:	f50d 7d19 	add.w	sp, sp, #612	; 0x264
 8009b18:	e8bd 8ff0 	ldmia.w	sp!, {r4, r5, r6, r7, r8, r9, sl, fp, pc}
 8009b1c:	4638      	mov	r0, r7
 8009b1e:	e976 2302 	ldrd	r2, r3, [r6, #-8]!
 8009b22:	4629      	mov	r1, r5
 8009b24:	f7f6 fb22 	bl	800016c <__adddf3>
 8009b28:	3c01      	subs	r4, #1
 8009b2a:	4607      	mov	r7, r0
 8009b2c:	460d      	mov	r5, r1
 8009b2e:	e7e3      	b.n	8009af8 <__kernel_rem_pio2+0x584>
 8009b30:	4660      	mov	r0, ip
 8009b32:	e975 2302 	ldrd	r2, r3, [r5, #-8]!
 8009b36:	4639      	mov	r1, r7
 8009b38:	f7f6 fb18 	bl	800016c <__adddf3>
 8009b3c:	3e01      	subs	r6, #1
 8009b3e:	4684      	mov	ip, r0
 8009b40:	460f      	mov	r7, r1
 8009b42:	e7b0      	b.n	8009aa6 <__kernel_rem_pio2+0x532>
 8009b44:	4639      	mov	r1, r7
 8009b46:	e7b5      	b.n	8009ab4 <__kernel_rem_pio2+0x540>
 8009b48:	4660      	mov	r0, ip
 8009b4a:	e9f5 2302 	ldrd	r2, r3, [r5, #8]!
 8009b4e:	4639      	mov	r1, r7
 8009b50:	f7f6 fb0c 	bl	800016c <__adddf3>
 8009b54:	3601      	adds	r6, #1
 8009b56:	4684      	mov	ip, r0
 8009b58:	460f      	mov	r7, r1
 8009b5a:	e7ba      	b.n	8009ad2 <__kernel_rem_pio2+0x55e>
 8009b5c:	e97a 8902 	ldrd	r8, r9, [sl, #-8]!
 8009b60:	e9da 2302 	ldrd	r2, r3, [sl, #8]
 8009b64:	4640      	mov	r0, r8
 8009b66:	4649      	mov	r1, r9
 8009b68:	e9cd 2302 	strd	r2, r3, [sp, #8]
 8009b6c:	f7f6 fafe 	bl	800016c <__adddf3>
 8009b70:	4602      	mov	r2, r0
 8009b72:	460b      	mov	r3, r1
 8009b74:	4606      	mov	r6, r0
 8009b76:	460f      	mov	r7, r1
 8009b78:	4640      	mov	r0, r8
 8009b7a:	4649      	mov	r1, r9
 8009b7c:	f7f6 faf4 	bl	8000168 <__aeabi_dsub>
 8009b80:	e9dd 2302 	ldrd	r2, r3, [sp, #8]
 8009b84:	f7f6 faf2 	bl	800016c <__adddf3>
 8009b88:	f10b 3bff 	add.w	fp, fp, #4294967295
 8009b8c:	e9ca 0102 	strd	r0, r1, [sl, #8]
 8009b90:	e9ca 6700 	strd	r6, r7, [sl]
 8009b94:	e757      	b.n	8009a46 <__kernel_rem_pio2+0x4d2>
 8009b96:	e975 6702 	ldrd	r6, r7, [r5, #-8]!
 8009b9a:	e9d5 2302 	ldrd	r2, r3, [r5, #8]
 8009b9e:	4630      	mov	r0, r6
 8009ba0:	4639      	mov	r1, r7
 8009ba2:	e9cd 2302 	strd	r2, r3, [sp, #8]
 8009ba6:	f7f6 fae1 	bl	800016c <__adddf3>
 8009baa:	4602      	mov	r2, r0
 8009bac:	460b      	mov	r3, r1
 8009bae:	4680      	mov	r8, r0
 8009bb0:	4689      	mov	r9, r1
 8009bb2:	4630      	mov	r0, r6
 8009bb4:	4639      	mov	r1, r7
 8009bb6:	f7f6 fad7 	bl	8000168 <__aeabi_dsub>
 8009bba:	e9dd 2302 	ldrd	r2, r3, [sp, #8]
 8009bbe:	f7f6 fad5 	bl	800016c <__adddf3>
 8009bc2:	f10a 3aff 	add.w	sl, sl, #4294967295
 8009bc6:	e9c5 0102 	strd	r0, r1, [r5, #8]
 8009bca:	e9c5 8900 	strd	r8, r9, [r5]
 8009bce:	e73f      	b.n	8009a50 <__kernel_rem_pio2+0x4dc>
 8009bd0:	4638      	mov	r0, r7
 8009bd2:	e975 2302 	ldrd	r2, r3, [r5, #-8]!
 8009bd6:	4631      	mov	r1, r6
 8009bd8:	f7f6 fac8 	bl	800016c <__adddf3>
 8009bdc:	3c01      	subs	r4, #1
 8009bde:	4607      	mov	r7, r0
 8009be0:	460e      	mov	r6, r1
 8009be2:	e73f      	b.n	8009a64 <__kernel_rem_pio2+0x4f0>
 8009be4:	9b04      	ldr	r3, [sp, #16]
 8009be6:	f100 4000 	add.w	r0, r0, #2147483648	; 0x80000000
 8009bea:	f101 4100 	add.w	r1, r1, #2147483648	; 0x80000000
 8009bee:	f106 4600 	add.w	r6, r6, #2147483648	; 0x80000000
 8009bf2:	601d      	str	r5, [r3, #0]
 8009bf4:	e9c3 0401 	strd	r0, r4, [r3, #4]
 8009bf8:	e9c3 1703 	strd	r1, r7, [r3, #12]
 8009bfc:	615e      	str	r6, [r3, #20]
 8009bfe:	e786      	b.n	8009b0e <__kernel_rem_pio2+0x59a>
 8009c00:	41700000 	.word	0x41700000
 8009c04:	3e700000 	.word	0x3e700000

08009c08 <__kernel_sin>:
 8009c08:	e92d 47f0 	stmdb	sp!, {r4, r5, r6, r7, r8, r9, sl, lr}
 8009c0c:	b086      	sub	sp, #24
 8009c0e:	e9cd 2300 	strd	r2, r3, [sp]
 8009c12:	f021 4300 	bic.w	r3, r1, #2147483648	; 0x80000000
 8009c16:	f1b3 5f79 	cmp.w	r3, #1044381696	; 0x3e400000
 8009c1a:	4682      	mov	sl, r0
 8009c1c:	460c      	mov	r4, r1
 8009c1e:	9d0e      	ldr	r5, [sp, #56]	; 0x38
 8009c20:	da03      	bge.n	8009c2a <__kernel_sin+0x22>
 8009c22:	f7f6 ff09 	bl	8000a38 <__aeabi_d2iz>
 8009c26:	2800      	cmp	r0, #0
 8009c28:	d050      	beq.n	8009ccc <__kernel_sin+0xc4>
 8009c2a:	4652      	mov	r2, sl
 8009c2c:	4623      	mov	r3, r4
 8009c2e:	4650      	mov	r0, sl
 8009c30:	4621      	mov	r1, r4
 8009c32:	f7f6 fc51 	bl	80004d8 <__aeabi_dmul>
 8009c36:	4606      	mov	r6, r0
 8009c38:	460f      	mov	r7, r1
 8009c3a:	4602      	mov	r2, r0
 8009c3c:	460b      	mov	r3, r1
 8009c3e:	4650      	mov	r0, sl
 8009c40:	4621      	mov	r1, r4
 8009c42:	f7f6 fc49 	bl	80004d8 <__aeabi_dmul>
 8009c46:	a33e      	add	r3, pc, #248	; (adr r3, 8009d40 <__kernel_sin+0x138>)
 8009c48:	e9d3 2300 	ldrd	r2, r3, [r3]
 8009c4c:	4680      	mov	r8, r0
 8009c4e:	4689      	mov	r9, r1
 8009c50:	4630      	mov	r0, r6
 8009c52:	4639      	mov	r1, r7
 8009c54:	f7f6 fc40 	bl	80004d8 <__aeabi_dmul>
 8009c58:	a33b      	add	r3, pc, #236	; (adr r3, 8009d48 <__kernel_sin+0x140>)
 8009c5a:	e9d3 2300 	ldrd	r2, r3, [r3]
 8009c5e:	f7f6 fa83 	bl	8000168 <__aeabi_dsub>
 8009c62:	4632      	mov	r2, r6
 8009c64:	463b      	mov	r3, r7
 8009c66:	f7f6 fc37 	bl	80004d8 <__aeabi_dmul>
 8009c6a:	a339      	add	r3, pc, #228	; (adr r3, 8009d50 <__kernel_sin+0x148>)
 8009c6c:	e9d3 2300 	ldrd	r2, r3, [r3]
 8009c70:	f7f6 fa7c 	bl	800016c <__adddf3>
 8009c74:	4632      	mov	r2, r6
 8009c76:	463b      	mov	r3, r7
 8009c78:	f7f6 fc2e 	bl	80004d8 <__aeabi_dmul>
 8009c7c:	a336      	add	r3, pc, #216	; (adr r3, 8009d58 <__kernel_sin+0x150>)
 8009c7e:	e9d3 2300 	ldrd	r2, r3, [r3]
 8009c82:	f7f6 fa71 	bl	8000168 <__aeabi_dsub>
 8009c86:	4632      	mov	r2, r6
 8009c88:	463b      	mov	r3, r7
 8009c8a:	f7f6 fc25 	bl	80004d8 <__aeabi_dmul>
 8009c8e:	a334      	add	r3, pc, #208	; (adr r3, 8009d60 <__kernel_sin+0x158>)
 8009c90:	e9d3 2300 	ldrd	r2, r3, [r3]
 8009c94:	f7f6 fa6a 	bl	800016c <__adddf3>
 8009c98:	e9cd 0102 	strd	r0, r1, [sp, #8]
 8009c9c:	b9dd      	cbnz	r5, 8009cd6 <__kernel_sin+0xce>
 8009c9e:	4602      	mov	r2, r0
 8009ca0:	460b      	mov	r3, r1
 8009ca2:	4630      	mov	r0, r6
 8009ca4:	4639      	mov	r1, r7
 8009ca6:	f7f6 fc17 	bl	80004d8 <__aeabi_dmul>
 8009caa:	a32f      	add	r3, pc, #188	; (adr r3, 8009d68 <__kernel_sin+0x160>)
 8009cac:	e9d3 2300 	ldrd	r2, r3, [r3]
 8009cb0:	f7f6 fa5a 	bl	8000168 <__aeabi_dsub>
 8009cb4:	4642      	mov	r2, r8
 8009cb6:	464b      	mov	r3, r9
 8009cb8:	f7f6 fc0e 	bl	80004d8 <__aeabi_dmul>
 8009cbc:	4602      	mov	r2, r0
 8009cbe:	460b      	mov	r3, r1
 8009cc0:	4650      	mov	r0, sl
 8009cc2:	4621      	mov	r1, r4
 8009cc4:	f7f6 fa52 	bl	800016c <__adddf3>
 8009cc8:	4682      	mov	sl, r0
 8009cca:	460c      	mov	r4, r1
 8009ccc:	4650      	mov	r0, sl
 8009cce:	4621      	mov	r1, r4
 8009cd0:	b006      	add	sp, #24
 8009cd2:	e8bd 87f0 	ldmia.w	sp!, {r4, r5, r6, r7, r8, r9, sl, pc}
 8009cd6:	2200      	movs	r2, #0
 8009cd8:	e9dd 0100 	ldrd	r0, r1, [sp]
 8009cdc:	4b24      	ldr	r3, [pc, #144]	; (8009d70 <__kernel_sin+0x168>)
 8009cde:	f7f6 fbfb 	bl	80004d8 <__aeabi_dmul>
 8009ce2:	e9dd 2302 	ldrd	r2, r3, [sp, #8]
 8009ce6:	e9cd 0104 	strd	r0, r1, [sp, #16]
 8009cea:	4640      	mov	r0, r8
 8009cec:	4649      	mov	r1, r9
 8009cee:	f7f6 fbf3 	bl	80004d8 <__aeabi_dmul>
 8009cf2:	4602      	mov	r2, r0
 8009cf4:	460b      	mov	r3, r1
 8009cf6:	e9dd 0104 	ldrd	r0, r1, [sp, #16]
 8009cfa:	f7f6 fa35 	bl	8000168 <__aeabi_dsub>
 8009cfe:	4632      	mov	r2, r6
 8009d00:	463b      	mov	r3, r7
 8009d02:	f7f6 fbe9 	bl	80004d8 <__aeabi_dmul>
 8009d06:	e9dd 2300 	ldrd	r2, r3, [sp]
 8009d0a:	f7f6 fa2d 	bl	8000168 <__aeabi_dsub>
 8009d0e:	a316      	add	r3, pc, #88	; (adr r3, 8009d68 <__kernel_sin+0x160>)
 8009d10:	e9d3 2300 	ldrd	r2, r3, [r3]
 8009d14:	4606      	mov	r6, r0
 8009d16:	460f      	mov	r7, r1
 8009d18:	4640      	mov	r0, r8
 8009d1a:	4649      	mov	r1, r9
 8009d1c:	f7f6 fbdc 	bl	80004d8 <__aeabi_dmul>
 8009d20:	4602      	mov	r2, r0
 8009d22:	460b      	mov	r3, r1
 8009d24:	4630      	mov	r0, r6
 8009d26:	4639      	mov	r1, r7
 8009d28:	f7f6 fa20 	bl	800016c <__adddf3>
 8009d2c:	4602      	mov	r2, r0
 8009d2e:	460b      	mov	r3, r1
 8009d30:	4650      	mov	r0, sl
 8009d32:	4621      	mov	r1, r4
 8009d34:	f7f6 fa18 	bl	8000168 <__aeabi_dsub>
 8009d38:	e7c6      	b.n	8009cc8 <__kernel_sin+0xc0>
 8009d3a:	bf00      	nop
 8009d3c:	f3af 8000 	nop.w
 8009d40:	5acfd57c 	.word	0x5acfd57c
 8009d44:	3de5d93a 	.word	0x3de5d93a
 8009d48:	8a2b9ceb 	.word	0x8a2b9ceb
 8009d4c:	3e5ae5e6 	.word	0x3e5ae5e6
 8009d50:	57b1fe7d 	.word	0x57b1fe7d
 8009d54:	3ec71de3 	.word	0x3ec71de3
 8009d58:	19c161d5 	.word	0x19c161d5
 8009d5c:	3f2a01a0 	.word	0x3f2a01a0
 8009d60:	1110f8a6 	.word	0x1110f8a6
 8009d64:	3f811111 	.word	0x3f811111
 8009d68:	55555549 	.word	0x55555549
 8009d6c:	3fc55555 	.word	0x3fc55555
 8009d70:	3fe00000 	.word	0x3fe00000

08009d74 <fabs>:
 8009d74:	f021 4300 	bic.w	r3, r1, #2147483648	; 0x80000000
 8009d78:	4619      	mov	r1, r3
 8009d7a:	4770      	bx	lr

08009d7c <finite>:
 8009d7c:	f041 4100 	orr.w	r1, r1, #2147483648	; 0x80000000
 8009d80:	f501 1080 	add.w	r0, r1, #1048576	; 0x100000
 8009d84:	0fc0      	lsrs	r0, r0, #31
 8009d86:	4770      	bx	lr

08009d88 <floor>:
 8009d88:	e92d 43f8 	stmdb	sp!, {r3, r4, r5, r6, r7, r8, r9, lr}
 8009d8c:	f3c1 580a 	ubfx	r8, r1, #20, #11
 8009d90:	f2a8 36ff 	subw	r6, r8, #1023	; 0x3ff
 8009d94:	2e13      	cmp	r6, #19
 8009d96:	4607      	mov	r7, r0
 8009d98:	460b      	mov	r3, r1
 8009d9a:	460c      	mov	r4, r1
 8009d9c:	4605      	mov	r5, r0
 8009d9e:	dc35      	bgt.n	8009e0c <floor+0x84>
 8009da0:	2e00      	cmp	r6, #0
 8009da2:	da16      	bge.n	8009dd2 <floor+0x4a>
 8009da4:	a336      	add	r3, pc, #216	; (adr r3, 8009e80 <floor+0xf8>)
 8009da6:	e9d3 2300 	ldrd	r2, r3, [r3]
 8009daa:	f7f6 f9df 	bl	800016c <__adddf3>
 8009dae:	2200      	movs	r2, #0
 8009db0:	2300      	movs	r3, #0
 8009db2:	f7f6 fe21 	bl	80009f8 <__aeabi_dcmpgt>
 8009db6:	b148      	cbz	r0, 8009dcc <floor+0x44>
 8009db8:	2c00      	cmp	r4, #0
 8009dba:	da5b      	bge.n	8009e74 <floor+0xec>
 8009dbc:	2500      	movs	r5, #0
 8009dbe:	f024 4300 	bic.w	r3, r4, #2147483648	; 0x80000000
 8009dc2:	4a31      	ldr	r2, [pc, #196]	; (8009e88 <floor+0x100>)
 8009dc4:	433b      	orrs	r3, r7
 8009dc6:	42ab      	cmp	r3, r5
 8009dc8:	bf18      	it	ne
 8009dca:	4614      	movne	r4, r2
 8009dcc:	4623      	mov	r3, r4
 8009dce:	462f      	mov	r7, r5
 8009dd0:	e026      	b.n	8009e20 <floor+0x98>
 8009dd2:	4a2e      	ldr	r2, [pc, #184]	; (8009e8c <floor+0x104>)
 8009dd4:	fa42 f806 	asr.w	r8, r2, r6
 8009dd8:	ea01 0208 	and.w	r2, r1, r8
 8009ddc:	4302      	orrs	r2, r0
 8009dde:	d01f      	beq.n	8009e20 <floor+0x98>
 8009de0:	a327      	add	r3, pc, #156	; (adr r3, 8009e80 <floor+0xf8>)
 8009de2:	e9d3 2300 	ldrd	r2, r3, [r3]
 8009de6:	f7f6 f9c1 	bl	800016c <__adddf3>
 8009dea:	2200      	movs	r2, #0
 8009dec:	2300      	movs	r3, #0
 8009dee:	f7f6 fe03 	bl	80009f8 <__aeabi_dcmpgt>
 8009df2:	2800      	cmp	r0, #0
 8009df4:	d0ea      	beq.n	8009dcc <floor+0x44>
 8009df6:	2c00      	cmp	r4, #0
 8009df8:	bfbe      	ittt	lt
 8009dfa:	f44f 1380 	movlt.w	r3, #1048576	; 0x100000
 8009dfe:	fa43 f606 	asrlt.w	r6, r3, r6
 8009e02:	19a4      	addlt	r4, r4, r6
 8009e04:	ea24 0408 	bic.w	r4, r4, r8
 8009e08:	2500      	movs	r5, #0
 8009e0a:	e7df      	b.n	8009dcc <floor+0x44>
 8009e0c:	2e33      	cmp	r6, #51	; 0x33
 8009e0e:	dd0b      	ble.n	8009e28 <floor+0xa0>
 8009e10:	f5b6 6f80 	cmp.w	r6, #1024	; 0x400
 8009e14:	d104      	bne.n	8009e20 <floor+0x98>
 8009e16:	4602      	mov	r2, r0
 8009e18:	f7f6 f9a8 	bl	800016c <__adddf3>
 8009e1c:	4607      	mov	r7, r0
 8009e1e:	460b      	mov	r3, r1
 8009e20:	4638      	mov	r0, r7
 8009e22:	4619      	mov	r1, r3
 8009e24:	e8bd 83f8 	ldmia.w	sp!, {r3, r4, r5, r6, r7, r8, r9, pc}
 8009e28:	f04f 32ff 	mov.w	r2, #4294967295
 8009e2c:	f2a8 4813 	subw	r8, r8, #1043	; 0x413
 8009e30:	fa22 f808 	lsr.w	r8, r2, r8
 8009e34:	ea18 0f00 	tst.w	r8, r0
 8009e38:	d0f2      	beq.n	8009e20 <floor+0x98>
 8009e3a:	a311      	add	r3, pc, #68	; (adr r3, 8009e80 <floor+0xf8>)
 8009e3c:	e9d3 2300 	ldrd	r2, r3, [r3]
 8009e40:	f7f6 f994 	bl	800016c <__adddf3>
 8009e44:	2200      	movs	r2, #0
 8009e46:	2300      	movs	r3, #0
 8009e48:	f7f6 fdd6 	bl	80009f8 <__aeabi_dcmpgt>
 8009e4c:	2800      	cmp	r0, #0
 8009e4e:	d0bd      	beq.n	8009dcc <floor+0x44>
 8009e50:	2c00      	cmp	r4, #0
 8009e52:	da02      	bge.n	8009e5a <floor+0xd2>
 8009e54:	2e14      	cmp	r6, #20
 8009e56:	d103      	bne.n	8009e60 <floor+0xd8>
 8009e58:	3401      	adds	r4, #1
 8009e5a:	ea25 0508 	bic.w	r5, r5, r8
 8009e5e:	e7b5      	b.n	8009dcc <floor+0x44>
 8009e60:	2301      	movs	r3, #1
 8009e62:	f1c6 0634 	rsb	r6, r6, #52	; 0x34
 8009e66:	fa03 f606 	lsl.w	r6, r3, r6
 8009e6a:	4435      	add	r5, r6
 8009e6c:	42bd      	cmp	r5, r7
 8009e6e:	bf38      	it	cc
 8009e70:	18e4      	addcc	r4, r4, r3
 8009e72:	e7f2      	b.n	8009e5a <floor+0xd2>
 8009e74:	2500      	movs	r5, #0
 8009e76:	462c      	mov	r4, r5
 8009e78:	e7a8      	b.n	8009dcc <floor+0x44>
 8009e7a:	bf00      	nop
 8009e7c:	f3af 8000 	nop.w
 8009e80:	8800759c 	.word	0x8800759c
 8009e84:	7e37e43c 	.word	0x7e37e43c
 8009e88:	bff00000 	.word	0xbff00000
 8009e8c:	000fffff 	.word	0x000fffff

08009e90 <matherr>:
 8009e90:	2000      	movs	r0, #0
 8009e92:	4770      	bx	lr

08009e94 <nan>:
 8009e94:	2000      	movs	r0, #0
 8009e96:	4901      	ldr	r1, [pc, #4]	; (8009e9c <nan+0x8>)
 8009e98:	4770      	bx	lr
 8009e9a:	bf00      	nop
 8009e9c:	7ff80000 	.word	0x7ff80000

08009ea0 <rint>:
 8009ea0:	b5f7      	push	{r0, r1, r2, r4, r5, r6, r7, lr}
 8009ea2:	f3c1 520a 	ubfx	r2, r1, #20, #11
 8009ea6:	f2a2 3cff 	subw	ip, r2, #1023	; 0x3ff
 8009eaa:	f1bc 0f13 	cmp.w	ip, #19
 8009eae:	4604      	mov	r4, r0
 8009eb0:	460d      	mov	r5, r1
 8009eb2:	460b      	mov	r3, r1
 8009eb4:	4606      	mov	r6, r0
 8009eb6:	ea4f 77d1 	mov.w	r7, r1, lsr #31
 8009eba:	dc5a      	bgt.n	8009f72 <rint+0xd2>
 8009ebc:	f1bc 0f00 	cmp.w	ip, #0
 8009ec0:	da2b      	bge.n	8009f1a <rint+0x7a>
 8009ec2:	f021 4200 	bic.w	r2, r1, #2147483648	; 0x80000000
 8009ec6:	4302      	orrs	r2, r0
 8009ec8:	d023      	beq.n	8009f12 <rint+0x72>
 8009eca:	f3c1 0213 	ubfx	r2, r1, #0, #20
 8009ece:	4302      	orrs	r2, r0
 8009ed0:	4256      	negs	r6, r2
 8009ed2:	4316      	orrs	r6, r2
 8009ed4:	0c4b      	lsrs	r3, r1, #17
 8009ed6:	0b36      	lsrs	r6, r6, #12
 8009ed8:	4934      	ldr	r1, [pc, #208]	; (8009fac <rint+0x10c>)
 8009eda:	045b      	lsls	r3, r3, #17
 8009edc:	f406 2600 	and.w	r6, r6, #524288	; 0x80000
 8009ee0:	ea46 0503 	orr.w	r5, r6, r3
 8009ee4:	eb01 01c7 	add.w	r1, r1, r7, lsl #3
 8009ee8:	4602      	mov	r2, r0
 8009eea:	462b      	mov	r3, r5
 8009eec:	e9d1 4500 	ldrd	r4, r5, [r1]
 8009ef0:	4620      	mov	r0, r4
 8009ef2:	4629      	mov	r1, r5
 8009ef4:	f7f6 f93a 	bl	800016c <__adddf3>
 8009ef8:	e9cd 0100 	strd	r0, r1, [sp]
 8009efc:	e9dd 0100 	ldrd	r0, r1, [sp]
 8009f00:	462b      	mov	r3, r5
 8009f02:	4622      	mov	r2, r4
 8009f04:	f7f6 f930 	bl	8000168 <__aeabi_dsub>
 8009f08:	4604      	mov	r4, r0
 8009f0a:	f021 4300 	bic.w	r3, r1, #2147483648	; 0x80000000
 8009f0e:	ea43 75c7 	orr.w	r5, r3, r7, lsl #31
 8009f12:	4620      	mov	r0, r4
 8009f14:	4629      	mov	r1, r5
 8009f16:	b003      	add	sp, #12
 8009f18:	bdf0      	pop	{r4, r5, r6, r7, pc}
 8009f1a:	4a25      	ldr	r2, [pc, #148]	; (8009fb0 <rint+0x110>)
 8009f1c:	fa42 f20c 	asr.w	r2, r2, ip
 8009f20:	4011      	ands	r1, r2
 8009f22:	4301      	orrs	r1, r0
 8009f24:	d0f5      	beq.n	8009f12 <rint+0x72>
 8009f26:	0852      	lsrs	r2, r2, #1
 8009f28:	ea05 0102 	and.w	r1, r5, r2
 8009f2c:	ea50 0601 	orrs.w	r6, r0, r1
 8009f30:	d00c      	beq.n	8009f4c <rint+0xac>
 8009f32:	f44f 2380 	mov.w	r3, #262144	; 0x40000
 8009f36:	f1bc 0f13 	cmp.w	ip, #19
 8009f3a:	bf0c      	ite	eq
 8009f3c:	f04f 4600 	moveq.w	r6, #2147483648	; 0x80000000
 8009f40:	2600      	movne	r6, #0
 8009f42:	ea25 0202 	bic.w	r2, r5, r2
 8009f46:	fa43 f30c 	asr.w	r3, r3, ip
 8009f4a:	4313      	orrs	r3, r2
 8009f4c:	4917      	ldr	r1, [pc, #92]	; (8009fac <rint+0x10c>)
 8009f4e:	4632      	mov	r2, r6
 8009f50:	eb01 07c7 	add.w	r7, r1, r7, lsl #3
 8009f54:	e9d7 4500 	ldrd	r4, r5, [r7]
 8009f58:	4620      	mov	r0, r4
 8009f5a:	4629      	mov	r1, r5
 8009f5c:	f7f6 f906 	bl	800016c <__adddf3>
 8009f60:	e9cd 0100 	strd	r0, r1, [sp]
 8009f64:	e9dd 0100 	ldrd	r0, r1, [sp]
 8009f68:	4622      	mov	r2, r4
 8009f6a:	462b      	mov	r3, r5
 8009f6c:	f7f6 f8fc 	bl	8000168 <__aeabi_dsub>
 8009f70:	e008      	b.n	8009f84 <rint+0xe4>
 8009f72:	f1bc 0f33 	cmp.w	ip, #51	; 0x33
 8009f76:	dd08      	ble.n	8009f8a <rint+0xea>
 8009f78:	f5bc 6f80 	cmp.w	ip, #1024	; 0x400
 8009f7c:	d1c9      	bne.n	8009f12 <rint+0x72>
 8009f7e:	4602      	mov	r2, r0
 8009f80:	f7f6 f8f4 	bl	800016c <__adddf3>
 8009f84:	4604      	mov	r4, r0
 8009f86:	460d      	mov	r5, r1
 8009f88:	e7c3      	b.n	8009f12 <rint+0x72>
 8009f8a:	f2a2 4113 	subw	r1, r2, #1043	; 0x413
 8009f8e:	f04f 32ff 	mov.w	r2, #4294967295
 8009f92:	40ca      	lsrs	r2, r1
 8009f94:	4210      	tst	r0, r2
 8009f96:	d0bc      	beq.n	8009f12 <rint+0x72>
 8009f98:	0852      	lsrs	r2, r2, #1
 8009f9a:	4210      	tst	r0, r2
 8009f9c:	bf1f      	itttt	ne
 8009f9e:	f04f 4680 	movne.w	r6, #1073741824	; 0x40000000
 8009fa2:	ea20 0202 	bicne.w	r2, r0, r2
 8009fa6:	410e      	asrne	r6, r1
 8009fa8:	4316      	orrne	r6, r2
 8009faa:	e7cf      	b.n	8009f4c <rint+0xac>
 8009fac:	0800b6f0 	.word	0x0800b6f0
 8009fb0:	000fffff 	.word	0x000fffff
 8009fb4:	00000000 	.word	0x00000000

08009fb8 <scalbn>:
 8009fb8:	b5f8      	push	{r3, r4, r5, r6, r7, lr}
 8009fba:	4616      	mov	r6, r2
 8009fbc:	f3c1 520a 	ubfx	r2, r1, #20, #11
 8009fc0:	4604      	mov	r4, r0
 8009fc2:	460d      	mov	r5, r1
 8009fc4:	460b      	mov	r3, r1
 8009fc6:	b982      	cbnz	r2, 8009fea <scalbn+0x32>
 8009fc8:	f021 4300 	bic.w	r3, r1, #2147483648	; 0x80000000
 8009fcc:	4303      	orrs	r3, r0
 8009fce:	d034      	beq.n	800a03a <scalbn+0x82>
 8009fd0:	4b2d      	ldr	r3, [pc, #180]	; (800a088 <scalbn+0xd0>)
 8009fd2:	2200      	movs	r2, #0
 8009fd4:	f7f6 fa80 	bl	80004d8 <__aeabi_dmul>
 8009fd8:	4b2c      	ldr	r3, [pc, #176]	; (800a08c <scalbn+0xd4>)
 8009fda:	4604      	mov	r4, r0
 8009fdc:	429e      	cmp	r6, r3
 8009fde:	460d      	mov	r5, r1
 8009fe0:	da0d      	bge.n	8009ffe <scalbn+0x46>
 8009fe2:	a325      	add	r3, pc, #148	; (adr r3, 800a078 <scalbn+0xc0>)
 8009fe4:	e9d3 2300 	ldrd	r2, r3, [r3]
 8009fe8:	e01c      	b.n	800a024 <scalbn+0x6c>
 8009fea:	f240 77ff 	movw	r7, #2047	; 0x7ff
 8009fee:	42ba      	cmp	r2, r7
 8009ff0:	d109      	bne.n	800a006 <scalbn+0x4e>
 8009ff2:	4602      	mov	r2, r0
 8009ff4:	f7f6 f8ba 	bl	800016c <__adddf3>
 8009ff8:	4604      	mov	r4, r0
 8009ffa:	460d      	mov	r5, r1
 8009ffc:	e01d      	b.n	800a03a <scalbn+0x82>
 8009ffe:	460b      	mov	r3, r1
 800a000:	f3c1 520a 	ubfx	r2, r1, #20, #11
 800a004:	3a36      	subs	r2, #54	; 0x36
 800a006:	f240 71fe 	movw	r1, #2046	; 0x7fe
 800a00a:	4432      	add	r2, r6
 800a00c:	428a      	cmp	r2, r1
 800a00e:	dd0c      	ble.n	800a02a <scalbn+0x72>
 800a010:	4622      	mov	r2, r4
 800a012:	462b      	mov	r3, r5
 800a014:	a11a      	add	r1, pc, #104	; (adr r1, 800a080 <scalbn+0xc8>)
 800a016:	e9d1 0100 	ldrd	r0, r1, [r1]
 800a01a:	f000 f83b 	bl	800a094 <copysign>
 800a01e:	a318      	add	r3, pc, #96	; (adr r3, 800a080 <scalbn+0xc8>)
 800a020:	e9d3 2300 	ldrd	r2, r3, [r3]
 800a024:	f7f6 fa58 	bl	80004d8 <__aeabi_dmul>
 800a028:	e7e6      	b.n	8009ff8 <scalbn+0x40>
 800a02a:	2a00      	cmp	r2, #0
 800a02c:	dd08      	ble.n	800a040 <scalbn+0x88>
 800a02e:	f023 43ff 	bic.w	r3, r3, #2139095040	; 0x7f800000
 800a032:	f423 03e0 	bic.w	r3, r3, #7340032	; 0x700000
 800a036:	ea43 5502 	orr.w	r5, r3, r2, lsl #20
 800a03a:	4620      	mov	r0, r4
 800a03c:	4629      	mov	r1, r5
 800a03e:	bdf8      	pop	{r3, r4, r5, r6, r7, pc}
 800a040:	f112 0f35 	cmn.w	r2, #53	; 0x35
 800a044:	da0b      	bge.n	800a05e <scalbn+0xa6>
 800a046:	f24c 3350 	movw	r3, #50000	; 0xc350
 800a04a:	429e      	cmp	r6, r3
 800a04c:	4622      	mov	r2, r4
 800a04e:	462b      	mov	r3, r5
 800a050:	dce0      	bgt.n	800a014 <scalbn+0x5c>
 800a052:	a109      	add	r1, pc, #36	; (adr r1, 800a078 <scalbn+0xc0>)
 800a054:	e9d1 0100 	ldrd	r0, r1, [r1]
 800a058:	f000 f81c 	bl	800a094 <copysign>
 800a05c:	e7c1      	b.n	8009fe2 <scalbn+0x2a>
 800a05e:	f023 43ff 	bic.w	r3, r3, #2139095040	; 0x7f800000
 800a062:	3236      	adds	r2, #54	; 0x36
 800a064:	f423 03e0 	bic.w	r3, r3, #7340032	; 0x700000
 800a068:	ea43 5502 	orr.w	r5, r3, r2, lsl #20
 800a06c:	4620      	mov	r0, r4
 800a06e:	4629      	mov	r1, r5
 800a070:	2200      	movs	r2, #0
 800a072:	4b07      	ldr	r3, [pc, #28]	; (800a090 <scalbn+0xd8>)
 800a074:	e7d6      	b.n	800a024 <scalbn+0x6c>
 800a076:	bf00      	nop
 800a078:	c2f8f359 	.word	0xc2f8f359
 800a07c:	01a56e1f 	.word	0x01a56e1f
 800a080:	8800759c 	.word	0x8800759c
 800a084:	7e37e43c 	.word	0x7e37e43c
 800a088:	43500000 	.word	0x43500000
 800a08c:	ffff3cb0 	.word	0xffff3cb0
 800a090:	3c900000 	.word	0x3c900000

0800a094 <copysign>:
 800a094:	b530      	push	{r4, r5, lr}
 800a096:	f021 4200 	bic.w	r2, r1, #2147483648	; 0x80000000
 800a09a:	f003 4300 	and.w	r3, r3, #2147483648	; 0x80000000
 800a09e:	ea42 0503 	orr.w	r5, r2, r3
 800a0a2:	4629      	mov	r1, r5
 800a0a4:	bd30      	pop	{r4, r5, pc}
	...

0800a0a8 <_init>:
 800a0a8:	b5f8      	push	{r3, r4, r5, r6, r7, lr}
 800a0aa:	bf00      	nop
 800a0ac:	bcf8      	pop	{r3, r4, r5, r6, r7}
 800a0ae:	bc08      	pop	{r3}
 800a0b0:	469e      	mov	lr, r3
 800a0b2:	4770      	bx	lr

0800a0b4 <_fini>:
 800a0b4:	b5f8      	push	{r3, r4, r5, r6, r7, lr}
 800a0b6:	bf00      	nop
 800a0b8:	bcf8      	pop	{r3, r4, r5, r6, r7}
 800a0ba:	bc08      	pop	{r3}
 800a0bc:	469e      	mov	lr, r3
 800a0be:	4770      	bx	lr
